
camera_app.elf:     file format elf32-littlenios2
camera_app.elf
architecture: nios2:r1, flags 0x00000112:
EXEC_P, HAS_SYMS, D_PAGED
start address 0x000001bc

Program Header:
    LOAD off    0x00001000 vaddr 0x00000000 paddr 0x00000000 align 2**12
         filesz 0x00000020 memsz 0x00000020 flags r-x
    LOAD off    0x00001020 vaddr 0x00000020 paddr 0x00000020 align 2**12
         filesz 0x000101dc memsz 0x000101dc flags r-x
    LOAD off    0x000111fc vaddr 0x000101fc paddr 0x00011ce8 align 2**12
         filesz 0x00001aec memsz 0x00001aec flags rw-
    LOAD off    0x000137d4 vaddr 0x000137d4 paddr 0x000137d4 align 2**12
         filesz 0x00000000 memsz 0x0000015c flags rw-

Sections:
Idx Name          Size      VMA       LMA       File off  Algn
  0 .entry        00000020  00000000  00000000  00001000  2**5
                  CONTENTS, ALLOC, LOAD, READONLY, CODE
  1 .exceptions   0000019c  00000020  00000020  00001020  2**2
                  CONTENTS, ALLOC, LOAD, READONLY, CODE
  2 .text         0000fc30  000001bc  000001bc  000011bc  2**2
                  CONTENTS, ALLOC, LOAD, READONLY, CODE
  3 .rodata       00000410  0000fdec  0000fdec  00010dec  2**2
                  CONTENTS, ALLOC, LOAD, READONLY, DATA
  4 .rwdata       00001aec  000101fc  00011ce8  000111fc  2**2
                  CONTENTS, ALLOC, LOAD, DATA, SMALL_DATA
  5 .bss          0000015c  000137d4  000137d4  000137d4  2**2
                  ALLOC, SMALL_DATA
  6 .sdram        00000000  00013930  00013930  00012ce8  2**0
                  CONTENTS
  7 .comment      00000023  00000000  00000000  00012ce8  2**0
                  CONTENTS, READONLY
  8 .debug_aranges 00000d48  00000000  00000000  00012d10  2**3
                  CONTENTS, READONLY, DEBUGGING
  9 .debug_info   000253d1  00000000  00000000  00013a58  2**0
                  CONTENTS, READONLY, DEBUGGING
 10 .debug_abbrev 000094eb  00000000  00000000  00038e29  2**0
                  CONTENTS, READONLY, DEBUGGING
 11 .debug_line   0000b5f3  00000000  00000000  00042314  2**0
                  CONTENTS, READONLY, DEBUGGING
 12 .debug_frame  0000236c  00000000  00000000  0004d908  2**2
                  CONTENTS, READONLY, DEBUGGING
 13 .debug_str    00003296  00000000  00000000  0004fc74  2**0
                  CONTENTS, READONLY, DEBUGGING
 14 .debug_loc    00016f41  00000000  00000000  00052f0a  2**0
                  CONTENTS, READONLY, DEBUGGING
 15 .debug_alt_sim_info 00000050  00000000  00000000  00069e4c  2**2
                  CONTENTS, READONLY, DEBUGGING
 16 .debug_ranges 00001368  00000000  00000000  00069ea0  2**3
                  CONTENTS, READONLY, DEBUGGING
 17 .thread_model 00000003  00000000  00000000  0006e521  2**0
                  CONTENTS, READONLY
 18 .cpu          00000005  00000000  00000000  0006e524  2**0
                  CONTENTS, READONLY
 19 .qsys         00000001  00000000  00000000  0006e529  2**0
                  CONTENTS, READONLY
 20 .simulation_enabled 00000001  00000000  00000000  0006e52a  2**0
                  CONTENTS, READONLY
 21 .stderr_dev   00000009  00000000  00000000  0006e52b  2**0
                  CONTENTS, READONLY
 22 .stdin_dev    00000009  00000000  00000000  0006e534  2**0
                  CONTENTS, READONLY
 23 .stdout_dev   00000009  00000000  00000000  0006e53d  2**0
                  CONTENTS, READONLY
 24 .sopc_system_name 00000006  00000000  00000000  0006e546  2**0
                  CONTENTS, READONLY
 25 .quartus_project_dir 00000020  00000000  00000000  0006e54c  2**0
                  CONTENTS, READONLY
 26 .jdi          000039ab  00000000  00000000  0006e56c  2**0
                  CONTENTS, READONLY
 27 .sopcinfo     0003de28  00000000  00000000  00071f17  2**0
                  CONTENTS, READONLY
SYMBOL TABLE:
00000000 l    d  .entry	00000000 .entry
00000020 l    d  .exceptions	00000000 .exceptions
000001bc l    d  .text	00000000 .text
0000fdec l    d  .rodata	00000000 .rodata
000101fc l    d  .rwdata	00000000 .rwdata
000137d4 l    d  .bss	00000000 .bss
00013930 l    d  .sdram	00000000 .sdram
00000000 l    d  .comment	00000000 .comment
00000000 l    d  .debug_aranges	00000000 .debug_aranges
00000000 l    d  .debug_info	00000000 .debug_info
00000000 l    d  .debug_abbrev	00000000 .debug_abbrev
00000000 l    d  .debug_line	00000000 .debug_line
00000000 l    d  .debug_frame	00000000 .debug_frame
00000000 l    d  .debug_str	00000000 .debug_str
00000000 l    d  .debug_loc	00000000 .debug_loc
00000000 l    d  .debug_alt_sim_info	00000000 .debug_alt_sim_info
00000000 l    d  .debug_ranges	00000000 .debug_ranges
00000000 l    df *ABS*	00000000 /data/workspace/ES/lab03/software/camera_app_bsp//obj/HAL/src/crt0.o
000001f4 l       .text	00000000 alt_after_alt_main
00000000 l    df *ABS*	00000000 alt_exception_entry.o
00000094 l       .exceptions	00000000 alt_exception_unknown
00000000 l    df *ABS*	00000000 alt_irq_handler.c
00000000 l    df *ABS*	00000000 hello_world.c
00000000 l    df *ABS*	00000000 i2c.c
000008f0 l     F .text	00000030 i2c_usleep
00000920 l     F .text	00000040 i2c_wait_end_of_transfer
00000960 l     F .text	0000006c i2c_set_data_control
000009cc l     F .text	00000064 i2c_get_data_set_control
00000000 l    df *ABS*	00000000 lib2-divmod.c
000010e8 l     F .text	0000006c udivmodsi4
00000000 l    df *ABS*	00000000 calloc.c
00000000 l    df *ABS*	00000000 mallocr.c
00000000 l    df *ABS*	00000000 impure.c
000101fc l     O .rwdata	00000424 impure_data
00000000 l    df *ABS*	00000000 mallocr.c
00000000 l    df *ABS*	00000000 memset.c
00000000 l    df *ABS*	00000000 printf.c
00000000 l    df *ABS*	00000000 putc.c
00000000 l    df *ABS*	00000000 puts.c
00000000 l    df *ABS*	00000000 sbrkr.c
00000000 l    df *ABS*	00000000 strlen.c
00000000 l    df *ABS*	00000000 vfprintf.c
0000ff4e l     O .rodata	00000010 zeroes.4181
0000ff5e l     O .rodata	00000010 blanks.4180
00000000 l    df *ABS*	00000000 wbuf.c
00000000 l    df *ABS*	00000000 wsetup.c
00000000 l    df *ABS*	00000000 dtoa.c
00004208 l     F .text	00000200 quorem
00000000 l    df *ABS*	00000000 fflush.c
00000000 l    df *ABS*	00000000 findfp.c
00005d88 l     F .text	00000008 __fp_lock
00005d90 l     F .text	00000008 __fp_unlock
00005da4 l     F .text	000001a0 __sinit.part.1
00000000 l    df *ABS*	00000000 mallocr.c
00000000 l    df *ABS*	00000000 fvwrite.c
00000000 l    df *ABS*	00000000 fwalk.c
00000000 l    df *ABS*	00000000 int_errno.c
00000000 l    df *ABS*	00000000 locale.c
00010a48 l     O .rwdata	00000020 lc_ctype_charset
00010a28 l     O .rwdata	00000020 lc_message_charset
00010a68 l     O .rwdata	00000038 lconv
00000000 l    df *ABS*	00000000 makebuf.c
00000000 l    df *ABS*	00000000 memchr.c
00000000 l    df *ABS*	00000000 memcpy.c
00000000 l    df *ABS*	00000000 memmove.c
00000000 l    df *ABS*	00000000 mprec.c
0000ff8c l     O .rodata	0000000c p05.2678
00000000 l    df *ABS*	00000000 mallocr.c
00000000 l    df *ABS*	00000000 s_fpclassify.c
00000000 l    df *ABS*	00000000 stdio.c
00000000 l    df *ABS*	00000000 strcmp.c
00000000 l    df *ABS*	00000000 vfprintf.c
000088e4 l     F .text	000000fc __sprint_r.part.0
000100c0 l     O .rodata	00000010 blanks.4125
000100b0 l     O .rodata	00000010 zeroes.4126
00000000 l    df *ABS*	00000000 writer.c
00000000 l    df *ABS*	00000000 closer.c
00000000 l    df *ABS*	00000000 fclose.c
00000000 l    df *ABS*	00000000 fputwc.c
00000000 l    df *ABS*	00000000 fstatr.c
00000000 l    df *ABS*	00000000 isattyr.c
00000000 l    df *ABS*	00000000 lseekr.c
00000000 l    df *ABS*	00000000 readr.c
00000000 l    df *ABS*	00000000 wcrtomb.c
00000000 l    df *ABS*	00000000 wctomb_r.c
00000000 l    df *ABS*	00000000 libgcc2.c
00000000 l    df *ABS*	00000000 libgcc2.c
00000000 l    df *ABS*	00000000 adddf3.c
00000000 l    df *ABS*	00000000 divdf3.c
00000000 l    df *ABS*	00000000 eqdf2.c
00000000 l    df *ABS*	00000000 gedf2.c
00000000 l    df *ABS*	00000000 ledf2.c
00000000 l    df *ABS*	00000000 muldf3.c
00000000 l    df *ABS*	00000000 subdf3.c
00000000 l    df *ABS*	00000000 fixdfsi.c
00000000 l    df *ABS*	00000000 floatsidf.c
00000000 l    df *ABS*	00000000 floatunsidf.c
00000000 l    df *ABS*	00000000 libgcc2.c
00000000 l    df *ABS*	00000000 libgcc2.c
00000000 l    df *ABS*	00000000 alt_close.c
0000d5cc l     F .text	00000050 alt_get_errno
00000000 l    df *ABS*	00000000 alt_dev.c
0000d6ec l     F .text	0000002c alt_dev_null_write
00000000 l    df *ABS*	00000000 alt_errno.c
00000000 l    df *ABS*	00000000 alt_fstat.c
0000d718 l     F .text	00000050 alt_get_errno
00000000 l    df *ABS*	00000000 alt_isatty.c
0000d818 l     F .text	00000050 alt_get_errno
00000000 l    df *ABS*	00000000 alt_load.c
0000d90c l     F .text	00000064 alt_load_section
00000000 l    df *ABS*	00000000 alt_lseek.c
0000d9f0 l     F .text	00000050 alt_get_errno
00000000 l    df *ABS*	00000000 alt_main.c
00000000 l    df *ABS*	00000000 alt_malloc_lock.c
00000000 l    df *ABS*	00000000 alt_read.c
0000dbcc l     F .text	00000050 alt_get_errno
00000000 l    df *ABS*	00000000 alt_release_fd.c
00000000 l    df *ABS*	00000000 alt_sbrk.c
00011cd8 l     O .rwdata	00000004 heap_end
00000000 l    df *ABS*	00000000 alt_usleep.c
00000000 l    df *ABS*	00000000 alt_write.c
0000de58 l     F .text	00000050 alt_get_errno
00000000 l    df *ABS*	00000000 alt_sys_init.c
0000dfa0 l     F .text	00000038 alt_dev_reg
00010c48 l     O .rwdata	00001060 jtag_uart
00000000 l    df *ABS*	00000000 altera_avalon_jtag_uart_fd.c
00000000 l    df *ABS*	00000000 altera_avalon_jtag_uart_init.c
0000e278 l     F .text	00000204 altera_avalon_jtag_uart_irq
0000e47c l     F .text	000000a8 altera_avalon_jtag_uart_timeout
00000000 l    df *ABS*	00000000 altera_avalon_jtag_uart_ioctl.c
00000000 l    df *ABS*	00000000 altera_avalon_jtag_uart_read.c
00000000 l    df *ABS*	00000000 altera_avalon_jtag_uart_write.c
00000000 l    df *ABS*	00000000 alt_alarm_start.c
00000000 l    df *ABS*	00000000 alt_busy_sleep.c
00000000 l    df *ABS*	00000000 alt_dcache_flush_all.c
00000000 l    df *ABS*	00000000 alt_dev_llist_insert.c
0000ed50 l     F .text	00000050 alt_get_errno
00000000 l    df *ABS*	00000000 alt_do_ctors.c
00000000 l    df *ABS*	00000000 alt_do_dtors.c
00000000 l    df *ABS*	00000000 alt_icache_flush_all.c
00000000 l    df *ABS*	00000000 alt_iic.c
00000000 l    df *ABS*	00000000 alt_iic_isr_register.c
00000000 l    df *ABS*	00000000 alt_io_redirect.c
0000f1fc l     F .text	000000c0 alt_open_fd
00000000 l    df *ABS*	00000000 alt_irq_vars.c
00000000 l    df *ABS*	00000000 alt_open.c
0000f334 l     F .text	00000050 alt_get_errno
0000f384 l     F .text	000000cc alt_file_locked
00000000 l    df *ABS*	00000000 alt_tick.c
00000000 l    df *ABS*	00000000 altera_nios2_qsys_irq.c
00000000 l    df *ABS*	00000000 alt_find_dev.c
00000000 l    df *ABS*	00000000 alt_find_file.c
00000000 l    df *ABS*	00000000 alt_get_fd.c
00000000 l    df *ABS*	00000000 alt_icache_flush.c
00000000 l    df *ABS*	00000000 atexit.c
00000000 l    df *ABS*	00000000 exit.c
00000000 l    df *ABS*	00000000 memcmp.c
00000000 l    df *ABS*	00000000 __atexit.c
00000000 l    df *ABS*	00000000 __call_atexit.c
00000000 l    df *ABS*	00000000 alt_exit.c
00007f78 g     F .text	00000074 _mprec_log10
00008064 g     F .text	0000008c __any_on
0000a170 g     F .text	00000054 _isatty_r
0000ff98 g     O .rodata	00000028 __mprec_tinytens
0000db14 g     F .text	00000078 alt_main
00001d90 g     F .text	000000b8 _puts_r
00013830 g     O .bss	00000100 alt_irq
0000a1c4 g     F .text	0000005c _lseek_r
0000038c g     F .text	00000140 dump_pcm_data
00011ce8 g       *ABS*	00000000 __flash_rwdata_start
0000c134 g     F .text	00000084 .hidden __eqdf2
00013930 g       *ABS*	00000000 __alt_heap_start
00001bec g     F .text	0000003c printf
0000a27c g     F .text	0000009c _wcrtomb_r
000087dc g     F .text	0000005c __sseek
000060d8 g     F .text	00000010 __sinit
00003f68 g     F .text	00000154 __swbuf_r
00006b50 g     F .text	0000007c _setlocale_r
00005f44 g     F .text	00000064 __sfmoreglue
0000dbac g     F .text	00000020 __malloc_unlock
00007008 g     F .text	0000015c memmove
000060c0 g     F .text	00000018 _cleanup
00007164 g     F .text	000000a8 _Balloc
0000c1b8 g     F .text	000000e0 .hidden __gtdf2
00000000  w      *UND*	00000000 __errno
00000b38 g     F .text	0000012c i2c_write
00000000 g     F .entry	0000001c __reset
00000020 g       *ABS*	00000000 __flash_exceptions_start
0000a118 g     F .text	00000058 _fstat_r
000137e0 g     O .bss	00000004 errno
00008758 g     F .text	00000008 __seofread
000137f4 g     O .bss	00000004 alt_argv
00019ca8 g       *ABS*	00000000 _gp
0000de28 g     F .text	00000030 usleep
000002ec g     F .text	00000048 dump_word
00010ac8 g     O .rwdata	00000180 alt_fd_list
0000f764 g     F .text	00000090 alt_find_dev
00006ed0 g     F .text	00000138 memcpy
00005d98 g     F .text	0000000c _cleanup_r
0000d3f4 g     F .text	000000d0 .hidden __floatsidf
00000dac g     F .text	00000194 i2c_write_array
0000f2bc g     F .text	00000078 alt_io_redirect
0000c298 g     F .text	000000e0 .hidden __ltdf2
0000fdec g       *ABS*	00000000 __DTOR_END__
00001e48 g     F .text	00000014 puts
00008690 g     F .text	00000074 __fpclassifyd
00007ed4 g     F .text	000000a4 __ratio
00009d54 g     F .text	00000024 __vfiprintf_internal
0000e678 g     F .text	0000020c altera_avalon_jtag_uart_read
00000000  w      *UND*	00000000 malloc
00001bc0 g     F .text	0000002c _printf_r
00001204 g     F .text	00000008 .hidden __udivsi3
0000d868 g     F .text	000000a4 isatty
0000ffe8 g     O .rodata	000000c8 __mprec_tens
00000334 g     F .text	00000058 dump_pcm_header
00006bcc g     F .text	0000000c __locale_charset
0000f9bc g     F .text	0000008c alt_icache_flush
000137dc g     O .bss	00000004 __malloc_top_pad
00011cb8 g     O .rwdata	00000004 __mb_cur_max
00006bfc g     F .text	0000000c _localeconv_r
00007564 g     F .text	0000003c __i2b
0000653c g     F .text	000004a4 __sfvwrite_r
00001e5c g     F .text	00000054 _sbrk_r
0000a220 g     F .text	0000005c _read_r
00011cd0 g     O .rwdata	00000004 alt_max_fd
00009e28 g     F .text	00000100 _fclose_r
00005d58 g     F .text	00000030 fflush
000137d8 g     O .bss	00000004 __malloc_max_sbrked_mem
0000afcc g     F .text	0000089c .hidden __adddf3
00007c7c g     F .text	0000011c __b2d
0000aa3c g     F .text	00000590 .hidden __umoddi3
0000da40 g     F .text	000000d4 lseek
00011ca8 g     O .rwdata	00000004 _global_impure_ptr
000080f0 g     F .text	000005a0 _realloc_r
00013930 g       *ABS*	00000000 __bss_end
0000f10c g     F .text	000000f0 alt_iic_isr_register
0000f640 g     F .text	00000104 alt_tick
0000a47c g     F .text	000005c0 .hidden __udivdi3
00009f3c g     F .text	00000184 _fputwc_r
0000ffc0 g     O .rodata	00000028 __mprec_bigtens
00007348 g     F .text	00000104 __s2b
0000d4c4 g     F .text	000000a4 .hidden __floatunsidf
00007a24 g     F .text	00000060 __mcmp
000060f8 g     F .text	00000018 __fp_lock_all
0000f0c0 g     F .text	0000004c alt_ic_irq_enabled
0000f5a8 g     F .text	00000098 alt_alarm_stop
000137fc g     O .bss	00000004 alt_irq_active
000000ec g     F .exceptions	000000d0 alt_irq_handler
00010aa0 g     O .rwdata	00000028 alt_dev_null
0000ed34 g     F .text	0000001c alt_dcache_flush_all
0000744c g     F .text	00000068 __hi0bits
0000d36c g     F .text	00000088 .hidden __fixdfsi
00001214 g     F .text	0000001c calloc
00011ce8 g       *ABS*	00000000 __ram_rwdata_end
00011cc8 g     O .rwdata	00000008 alt_dev_list
0000dea8 g     F .text	000000f8 write
00001c28 g     F .text	000000a0 _putc_r
000101fc g       *ABS*	00000000 __ram_rodata_end
0000d768 g     F .text	000000b0 fstat
00000288 g     F .text	00000064 sleep_ms
00000a30 g     F .text	0000002c i2c_inst
0000c298 g     F .text	000000e0 .hidden __ledf2
0000779c g     F .text	00000140 __pow5mult
000089f8 g     F .text	0000135c ___vfiprintf_internal_r
000137ec g     O .bss	00000004 __nlocale_changed
0000120c g     F .text	00000008 .hidden __umodsi3
00013930 g       *ABS*	00000000 end
0000e1b4 g     F .text	000000c4 altera_avalon_jtag_uart_init
0000fdec g       *ABS*	00000000 __CTOR_LIST__
02000000 g       *ABS*	00000000 __alt_stack_pointer
0000d568 g     F .text	00000064 .hidden __clzsi2
0000e884 g     F .text	00000218 altera_avalon_jtag_uart_write
000060e8 g     F .text	00000004 __sfp_lock_acquire
00006de8 g     F .text	000000e8 memchr
00001f48 g     F .text	00001ffc ___vfprintf_internal_r
0000624c g     F .text	000002f0 _free_r
00006bd8 g     F .text	00000010 __locale_mb_cur_max
0000fc24 g     F .text	00000194 __call_exitprocs
000137e8 g     O .bss	00000004 __mlocale_changed
00011cb0 g     O .rwdata	00000004 __malloc_sbrk_base
000001bc g     F .text	0000003c _start
00013800 g     O .bss	00000004 _alt_tick_rate
000078dc g     F .text	00000148 __lshift
00013804 g     O .bss	00000004 _alt_nticks
0000dc1c g     F .text	000000fc read
0000e00c g     F .text	00000044 alt_sys_init
00000abc g     F .text	0000007c i2c_configure
0000fb10 g     F .text	00000114 __register_exitproc
000075a0 g     F .text	000001fc __multiply
0000e524 g     F .text	00000068 altera_avalon_jtag_uart_close
000101fc g       *ABS*	00000000 __ram_rwdata_start
0000fdec g       *ABS*	00000000 __ram_rodata_start
00013808 g     O .bss	00000028 __malloc_current_mallinfo
00007d98 g     F .text	0000013c __d2b
0000e050 g     F .text	00000060 altera_avalon_jtag_uart_read_fd
0000f908 g     F .text	000000b4 alt_get_fd
0000ebdc g     F .text	00000158 alt_busy_sleep
00009dd4 g     F .text	00000054 _close_r
000001f8 g     F .text	00000058 cam_get_preset
0000fa94 g     F .text	0000007c memcmp
0000e110 g     F .text	00000050 altera_avalon_jtag_uart_close_fd
00013930 g       *ABS*	00000000 __alt_stack_base
0000e160 g     F .text	00000054 altera_avalon_jtag_uart_ioctl_fd
000040d8 g     F .text	00000130 __swsetup_r
0000b868 g     F .text	000008cc .hidden __divdf3
00005fa8 g     F .text	00000118 __sfp
00007fec g     F .text	00000078 __copybits
00010620 g     O .rwdata	00000408 __malloc_av_
000060f4 g     F .text	00000004 __sinit_lock_release
0000c378 g     F .text	00000724 .hidden __muldf3
00008704 g     F .text	00000054 __sread
0000f7f4 g     F .text	00000114 alt_find_file
0000eda0 g     F .text	000000a4 alt_dev_llist_insert
000004cc g     F .text	00000084 trdb_d5m_write
0000db8c g     F .text	00000020 __malloc_lock
0000dd78 g     F .text	000000b0 sbrk
00005b30 g     F .text	00000228 _fflush_r
00001230 g     F .text	000000c4 _calloc_r
000137d4 g       *ABS*	00000000 __bss_start
00001a9c g     F .text	00000124 memset
000005ec g     F .text	00000304 main
000137f8 g     O .bss	00000004 alt_envp
000137d4 g     O .bss	00000004 __malloc_max_total_mem
0000e0b0 g     F .text	00000060 altera_avalon_jtag_uart_write_fd
00000c64 g     F .text	00000148 i2c_read
000040bc g     F .text	0000001c __swbuf
00008838 g     F .text	00000008 __sclose
02000000 g       *ABS*	00000000 __alt_heap_limit
00009f28 g     F .text	00000014 fclose
00004408 g     F .text	00001728 _dtoa_r
000012f4 g     F .text	000007a8 _malloc_r
0000a3f0 g     F .text	00000030 __ascii_wctomb
00011cd4 g     O .rwdata	00000004 alt_errno
000069e0 g     F .text	000000b8 _fwalk
00001cc8 g     F .text	000000c8 putc
00001154 g     F .text	00000054 .hidden __divsi3
00006128 g     F .text	00000124 _malloc_trim_r
0000fdec g       *ABS*	00000000 __CTOR_END__
00008840 g     F .text	000000a4 strcmp
0000fdec g       *ABS*	00000000 __flash_rodata_start
0000fdec g       *ABS*	00000000 __DTOR_LIST__
0000c134 g     F .text	00000084 .hidden __nedf2
0000dfd8 g     F .text	00000034 alt_irq_init
0000dd18 g     F .text	00000060 alt_release_fd
000100d0 g     O .rodata	00000100 .hidden __clz_tab
000137e4 g     O .bss	00000004 _PathLocale
0000fa48 g     F .text	00000014 atexit
00009d78 g     F .text	0000005c _write_r
00006c08 g     F .text	0000001c setlocale
00000250 g     F .text	00000038 printPreset
00011cac g     O .rwdata	00000004 _impure_ptr
000137f0 g     O .bss	00000004 alt_argc
0000eea0 g     F .text	0000005c _do_dtors
00006bf4 g     F .text	00000008 __locale_cjk_lang
00000a5c g     F .text	00000060 i2c_init
00000020 g       .exceptions	00000000 alt_irq_entry
00007c1c g     F .text	00000060 __ulp
00006110 g     F .text	00000018 __fp_unlock_all
00011cc0 g     O .rwdata	00000008 alt_fs_list
00000020 g       *ABS*	00000000 __ram_exceptions_start
00006c24 g     F .text	0000000c localeconv
0000fdec g     O .rodata	0000006c cam_presets
0000ef2c g     F .text	00000050 alt_ic_isr_register
00011ce8 g       *ABS*	00000000 _edata
00013930 g       *ABS*	00000000 _end
000001bc g       *ABS*	00000000 __ram_exceptions_end
0000e58c g     F .text	000000ec altera_avalon_jtag_uart_ioctl
00000550 g     F .text	0000009c trdb_d5m_read
0000f01c g     F .text	000000a4 alt_ic_irq_disable
00008760 g     F .text	0000007c __swrite
00011cb4 g     O .rwdata	00000004 __malloc_trim_threshold
0000f744 g     F .text	00000020 altera_nios2_qsys_irq_init
00006be8 g     F .text	0000000c __locale_msgcharset
0000fa5c g     F .text	00000038 exit
00006a98 g     F .text	000000b8 _fwalk_reent
00007a84 g     F .text	00000198 __mdiff
000011a8 g     F .text	0000005c .hidden __modsi3
02000000 g       *ABS*	00000000 __alt_data_end
00000020 g     F .exceptions	00000000 alt_exception
000060ec g     F .text	00000004 __sfp_lock_release
00000000 g       *ABS*	00000000 __alt_mem_sdram
0000fdb8 g     F .text	00000034 _exit
0000ea9c g     F .text	00000140 alt_alarm_start
00006c30 g     F .text	000001b8 __smakebuf_r
00000f40 g     F .text	000001a8 i2c_read_array
00001eb0 g     F .text	00000098 strlen
0000f450 g     F .text	00000158 open
0000c1b8 g     F .text	000000e0 .hidden __gedf2
00011cbc g     O .rwdata	00000004 __wctomb
000089e0 g     F .text	00000018 __sprint_r
0000eefc g     F .text	00000030 alt_icache_flush_all
00011cdc g     O .rwdata	00000004 alt_priority_mask
0000ef7c g     F .text	000000a0 alt_ic_irq_enable
00003f44 g     F .text	00000024 __vfprintf_internal
0000a420 g     F .text	0000005c _wctomb_r
0000ca9c g     F .text	000008d0 .hidden __subdf3
000074b4 g     F .text	000000b0 __lo0bits
00011ce0 g     O .rwdata	00000008 alt_alarm_list
0000ee44 g     F .text	0000005c _do_ctors
0000a318 g     F .text	000000d8 wcrtomb
0000d61c g     F .text	000000d0 close
0000d970 g     F .text	00000080 alt_load
0000a0c0 g     F .text	00000058 fputwc
00000000  w      *UND*	00000000 free
000060f0 g     F .text	00000004 __sinit_lock_acquire
00007234 g     F .text	00000114 __multadd
0000720c g     F .text	00000028 _Bfree



Disassembly of section .entry:

00000000 <__reset>:
#if NIOS2_ICACHE_SIZE > 0 && defined(ALT_ALLOW_CODE_AT_RESET) && !defined(ALT_SIM_OPTIMIZE)
    /* Assume the instruction cache size is always a power of two. */
#if NIOS2_ICACHE_SIZE > 0x8000
    movhi r2, %hi(NIOS2_ICACHE_SIZE)
#else
    movui r2, NIOS2_ICACHE_SIZE
   0:	00840014 	movui	r2,4096
#endif

0:
    initi r2
   4:	1001483a 	initi	r2
    addi r2, r2, -NIOS2_ICACHE_LINE_SIZE
   8:	10bff804 	addi	r2,r2,-32
    bgt r2, zero, 0b
   c:	00bffd16 	blt	zero,r2,4 <__reset+0x4>
 * Jump to the _start entry point in the .text section if reset code
 * is allowed or if optimizing for RTL simulation.
 */
#if defined(ALT_ALLOW_CODE_AT_RESET) || defined(ALT_SIM_OPTIMIZE)
    /* Jump to the _start entry point in the .text section. */
    movhi r1, %hi(_start)
  10:	00400034 	movhi	at,0
    ori r1, r1, %lo(_start)
  14:	08406f14 	ori	at,at,444
    jmp r1
  18:	0800683a 	jmp	at
  1c:	00000000 	call	0 <__reset>

Disassembly of section .exceptions:

00000020 <alt_exception>:

#else /* ALT_EXCEPTION_STACK disabled */
        /* 
         * Reserve space on normal stack for registers about to be pushed.
         */
        addi  sp, sp, -76
  20:	deffed04 	addi	sp,sp,-76
         * documentation for details).
         *
         * Leave a gap in the stack frame at 4(sp) for the muldiv handler to
         * store zero into.
         */
        stw   ra,  0(sp)
  24:	dfc00015 	stw	ra,0(sp)
        stw   r1,   8(sp)
  28:	d8400215 	stw	at,8(sp)
        stw   r2,  12(sp)
  2c:	d8800315 	stw	r2,12(sp)
        stw   r3,  16(sp)
  30:	d8c00415 	stw	r3,16(sp)
        stw   r4,  20(sp)
  34:	d9000515 	stw	r4,20(sp)
        stw   r5,  24(sp)
  38:	d9400615 	stw	r5,24(sp)
        stw   r6,  28(sp)
  3c:	d9800715 	stw	r6,28(sp)
        stw   r7,  32(sp)
  40:	d9c00815 	stw	r7,32(sp)
        rdctl r5, estatus   /* Read early to avoid usage stall */
  44:	000b307a 	rdctl	r5,estatus
        stw   r8,  36(sp)
  48:	da000915 	stw	r8,36(sp)
        stw   r9,  40(sp)
  4c:	da400a15 	stw	r9,40(sp)
        stw   r10, 44(sp)
  50:	da800b15 	stw	r10,44(sp)
        stw   r11, 48(sp)
  54:	dac00c15 	stw	r11,48(sp)
        stw   r12, 52(sp)
  58:	db000d15 	stw	r12,52(sp)
        stw   r13, 56(sp)
  5c:	db400e15 	stw	r13,56(sp)
        stw   r14, 60(sp)
  60:	db800f15 	stw	r14,60(sp)
        stw   r15, 64(sp)
  64:	dbc01015 	stw	r15,64(sp)
        /*
         * ea-4 contains the address of the instruction being executed
         * when the exception occured. For interrupt exceptions, we will
         * will be re-issue the isntruction. Store it in 72(sp)
         */
        stw   r5,  68(sp)  /* estatus */
  68:	d9401115 	stw	r5,68(sp)
        addi  r15, ea, -4  /* instruction that caused exception */
  6c:	ebffff04 	addi	r15,ea,-4
        stw   r15,  72(sp)
  70:	dbc01215 	stw	r15,72(sp)
#else
        /*
         * Test to see if the exception was a software exception or caused 
         * by an external interrupt, and vector accordingly.
         */
        rdctl r4, ipending
  74:	0009313a 	rdctl	r4,ipending
        andi  r2, r5, 1
  78:	2880004c 	andi	r2,r5,1
        beq   r2, zero, .Lnot_irq
  7c:	10000326 	beq	r2,zero,8c <alt_exception+0x6c>
        beq   r4, zero, .Lnot_irq
  80:	20000226 	beq	r4,zero,8c <alt_exception+0x6c>
        /*
         * Now that all necessary registers have been preserved, call 
         * alt_irq_handler() to process the interrupts.
         */

        call alt_irq_handler
  84:	00000ec0 	call	ec <alt_irq_handler>

        .section .exceptions.irqreturn, "xa"

        br    .Lexception_exit
  88:	00000306 	br	98 <alt_exception_unknown+0x4>
         * upon completion, so we write ea (address of instruction *after*
         * the one where the exception occured) into 72(sp). The actual
         * instruction that caused the exception is written in r2, which these
         * handlers will utilize.
         */
        stw   ea,  72(sp)  /* Don't re-issue */
  8c:	df401215 	stw	ea,72(sp)
        ldw   r2, -4(ea)   /* Instruction that caused exception */
  90:	e8bfff17 	ldw	r2,-4(ea)

00000094 <alt_exception_unknown>:
#ifdef NIOS2_HAS_DEBUG_STUB
       /*
        *  Either tell the user now (if there is a debugger attached) or go into
        *  the debug monitor which will loop until a debugger is attached.
        */
        break
  94:	003da03a 	break	0
        /* 
         * Restore the saved registers, so that all general purpose registers 
         * have been restored to their state at the time the interrupt occured.
         */

        ldw   r5,  68(sp)
  98:	d9401117 	ldw	r5,68(sp)
        ldw   ea,  72(sp)  /* This becomes the PC once eret is executed */
  9c:	df401217 	ldw	ea,72(sp)
        ldw   ra,   0(sp)
  a0:	dfc00017 	ldw	ra,0(sp)

        wrctl estatus, r5
  a4:	2801707a 	wrctl	estatus,r5

        ldw   r1,   8(sp)
  a8:	d8400217 	ldw	at,8(sp)
        ldw   r2,  12(sp)
  ac:	d8800317 	ldw	r2,12(sp)
        ldw   r3,  16(sp)
  b0:	d8c00417 	ldw	r3,16(sp)
        ldw   r4,  20(sp)
  b4:	d9000517 	ldw	r4,20(sp)
        ldw   r5,  24(sp)
  b8:	d9400617 	ldw	r5,24(sp)
        ldw   r6,  28(sp)
  bc:	d9800717 	ldw	r6,28(sp)
        ldw   r7,  32(sp)
  c0:	d9c00817 	ldw	r7,32(sp)

#if defined(ALT_EXCEPTION_STACK) && defined(ALT_STACK_CHECK)
        ldw   et, %gprel(alt_exception_old_stack_limit)(gp)
#endif

        ldw   r8,  36(sp)
  c4:	da000917 	ldw	r8,36(sp)
        ldw   r9,  40(sp)
  c8:	da400a17 	ldw	r9,40(sp)
        ldw   r10, 44(sp)
  cc:	da800b17 	ldw	r10,44(sp)
        ldw   r11, 48(sp)
  d0:	dac00c17 	ldw	r11,48(sp)
        ldw   r12, 52(sp)
  d4:	db000d17 	ldw	r12,52(sp)
        ldw   r13, 56(sp)
  d8:	db400e17 	ldw	r13,56(sp)
        ldw   r14, 60(sp)
  dc:	db800f17 	ldw	r14,60(sp)
        ldw   r15, 64(sp)
  e0:	dbc01017 	ldw	r15,64(sp)
        stw   et, %gprel(alt_stack_limit_value)(gp)
        stw   zero, %gprel(alt_exception_old_stack_limit)(gp)
#endif /* ALT_STACK_CHECK */
        ldw   sp,  76(sp)
#else /* ALT_EXCEPTION_STACK disabled */
        addi  sp, sp, 76
  e4:	dec01304 	addi	sp,sp,76

        /*
         * Return to the interrupted instruction.
         */

        eret
  e8:	ef80083a 	eret

000000ec <alt_irq_handler>:
 * instruction is present if the macro ALT_CI_INTERRUPT_VECTOR defined.
 */

void alt_irq_handler (void) __attribute__ ((section (".exceptions")));
void alt_irq_handler (void)
{
  ec:	defff904 	addi	sp,sp,-28
  f0:	dfc00615 	stw	ra,24(sp)
  f4:	df000515 	stw	fp,20(sp)
  f8:	df000504 	addi	fp,sp,20
  
  /*
   * Notify the operating system that we are at interrupt level.
   */ 
  
  ALT_OS_INT_ENTER();
  fc:	0001883a 	nop
#ifndef NIOS2_EIC_PRESENT
static ALT_INLINE alt_u32 ALT_ALWAYS_INLINE alt_irq_pending (void)
{
  alt_u32 active;

  NIOS2_READ_IPENDING (active);
 100:	0005313a 	rdctl	r2,ipending
 104:	e0bffe15 	stw	r2,-8(fp)

  return active;
 108:	e0bffe17 	ldw	r2,-8(fp)
   * Consider the case where the high priority interupt is asserted during
   * the interrupt entry sequence for a lower priority interrupt to see why
   * this is the case.
   */

  active = alt_irq_pending ();
 10c:	e0bffb15 	stw	r2,-20(fp)

  do
  {
    i = 0;
 110:	e03ffd15 	stw	zero,-12(fp)
    mask = 1;
 114:	00800044 	movi	r2,1
 118:	e0bffc15 	stw	r2,-16(fp)
     * called to clear the interrupt condition.
     */

    do
    {
      if (active & mask)
 11c:	e0fffb17 	ldw	r3,-20(fp)
 120:	e0bffc17 	ldw	r2,-16(fp)
 124:	1884703a 	and	r2,r3,r2
 128:	10001426 	beq	r2,zero,17c <alt_irq_handler+0x90>
      { 
#ifdef ALT_ENHANCED_INTERRUPT_API_PRESENT
        alt_irq[i].handler(alt_irq[i].context); 
 12c:	00800074 	movhi	r2,1
 130:	108e0c04 	addi	r2,r2,14384
 134:	e0fffd17 	ldw	r3,-12(fp)
 138:	180690fa 	slli	r3,r3,3
 13c:	10c5883a 	add	r2,r2,r3
 140:	10c00017 	ldw	r3,0(r2)
 144:	00800074 	movhi	r2,1
 148:	108e0c04 	addi	r2,r2,14384
 14c:	e13ffd17 	ldw	r4,-12(fp)
 150:	200890fa 	slli	r4,r4,3
 154:	1105883a 	add	r2,r2,r4
 158:	10800104 	addi	r2,r2,4
 15c:	10800017 	ldw	r2,0(r2)
 160:	1009883a 	mov	r4,r2
 164:	183ee83a 	callr	r3
#else
        alt_irq[i].handler(alt_irq[i].context, i); 
#endif
        break;
 168:	0001883a 	nop
#ifndef NIOS2_EIC_PRESENT
static ALT_INLINE alt_u32 ALT_ALWAYS_INLINE alt_irq_pending (void)
{
  alt_u32 active;

  NIOS2_READ_IPENDING (active);
 16c:	0005313a 	rdctl	r2,ipending
 170:	e0bfff15 	stw	r2,-4(fp)

  return active;
 174:	e0bfff17 	ldw	r2,-4(fp)
 178:	00000706 	br	198 <alt_irq_handler+0xac>
      }
      mask <<= 1;
 17c:	e0bffc17 	ldw	r2,-16(fp)
 180:	1085883a 	add	r2,r2,r2
 184:	e0bffc15 	stw	r2,-16(fp)
      i++;
 188:	e0bffd17 	ldw	r2,-12(fp)
 18c:	10800044 	addi	r2,r2,1
 190:	e0bffd15 	stw	r2,-12(fp)

    } while (1);
 194:	003fe106 	br	11c <alt_irq_handler+0x30>

    active = alt_irq_pending ();
 198:	e0bffb15 	stw	r2,-20(fp)
    
  } while (active);
 19c:	e0bffb17 	ldw	r2,-20(fp)
 1a0:	103fdb1e 	bne	r2,zero,110 <alt_irq_handler+0x24>

  /*
   * Notify the operating system that interrupt processing is complete.
   */ 

  ALT_OS_INT_EXIT();
 1a4:	0001883a 	nop
}
 1a8:	e037883a 	mov	sp,fp
 1ac:	dfc00117 	ldw	ra,4(sp)
 1b0:	df000017 	ldw	fp,0(sp)
 1b4:	dec00204 	addi	sp,sp,8
 1b8:	f800283a 	ret

Disassembly of section .text:

000001bc <_start>:

    /*
     * Now that the caches are initialized, set up the stack pointer and global pointer.
     * The values provided by the linker are assumed to be correctly aligned.
     */
    movhi sp, %hi(__alt_stack_pointer)
     1bc:	06c08034 	movhi	sp,512
    ori sp, sp, %lo(__alt_stack_pointer)
     1c0:	dec00014 	ori	sp,sp,0
    movhi gp, %hi(_gp)
     1c4:	06800074 	movhi	gp,1
    ori gp, gp, %lo(_gp)
     1c8:	d6a72a14 	ori	gp,gp,40104
 */
#ifndef ALT_SIM_OPTIMIZE
    /* Log that the BSS is about to be cleared. */
    ALT_LOG_PUTS(alt_log_msg_bss)

    movhi r2, %hi(__bss_start)
     1cc:	00800074 	movhi	r2,1
    ori r2, r2, %lo(__bss_start)
     1d0:	108df514 	ori	r2,r2,14292

    movhi r3, %hi(__bss_end)
     1d4:	00c00074 	movhi	r3,1
    ori r3, r3, %lo(__bss_end)
     1d8:	18ce4c14 	ori	r3,r3,14640

    beq r2, r3, 1f
     1dc:	10c00326 	beq	r2,r3,1ec <_start+0x30>

0:
    stw zero, (r2)
     1e0:	10000015 	stw	zero,0(r2)
    addi r2, r2, 4
     1e4:	10800104 	addi	r2,r2,4
    bltu r2, r3, 0b
     1e8:	10fffd36 	bltu	r2,r3,1e0 <_start+0x24>
     * section aren't defined until alt_load() has been called).
     */
    mov   et, zero
#endif

    call alt_load
     1ec:	000d9700 	call	d970 <alt_load>

    /* Log that alt_main is about to be called. */
    ALT_LOG_PUTS(alt_log_msg_alt_main)

    /* Call the C entry point. It should never return. */
    call alt_main
     1f0:	000db140 	call	db14 <alt_main>

000001f4 <alt_after_alt_main>:

    /* Wait in infinite loop in case alt_main does return. */
alt_after_alt_main:
    br alt_after_alt_main
     1f4:	003fff06 	br	1f4 <alt_after_alt_main>

000001f8 <cam_get_preset>:
    { 1920, 1080, 34.1f },   // 1920p
    { 1280, 720, 56.4f }     // 720p
  };

  inline struct CamPreset cam_get_preset(CamPresetID id)
  {
     1f8:	defffd04 	addi	sp,sp,-12
     1fc:	df000215 	stw	fp,8(sp)
     200:	df000204 	addi	fp,sp,8
     204:	e13ffe15 	stw	r4,-8(fp)
     208:	e17fff15 	stw	r5,-4(fp)
    return cam_presets[id];
     20c:	e0bffe17 	ldw	r2,-8(fp)
     210:	00c00074 	movhi	r3,1
     214:	18ff7b04 	addi	r3,r3,-532
     218:	e13fff17 	ldw	r4,-4(fp)
     21c:	21000324 	muli	r4,r4,12
     220:	1907883a 	add	r3,r3,r4
     224:	19000017 	ldw	r4,0(r3)
     228:	11000015 	stw	r4,0(r2)
     22c:	19000117 	ldw	r4,4(r3)
     230:	11000115 	stw	r4,4(r2)
     234:	18c00217 	ldw	r3,8(r3)
     238:	10c00215 	stw	r3,8(r2)
  }
     23c:	e0bffe17 	ldw	r2,-8(fp)
     240:	e037883a 	mov	sp,fp
     244:	df000017 	ldw	fp,0(sp)
     248:	dec00104 	addi	sp,sp,4
     24c:	f800283a 	ret

00000250 <printPreset>:
#include <HAL/inc/sys/alt_cache.h>

#include "i2c/i2c.h"
#include "../../CameraController/CameraController.h"

void printPreset(const char * name, CamPresetID id) {
     250:	defff904 	addi	sp,sp,-28
     254:	dfc00615 	stw	ra,24(sp)
     258:	df000515 	stw	fp,20(sp)
     25c:	df000504 	addi	fp,sp,20
     260:	e13ffe15 	stw	r4,-8(fp)
     264:	e17fff15 	stw	r5,-4(fp)
	struct CamPreset myPreset = cam_get_preset(id);
     268:	e13ffb04 	addi	r4,fp,-20
     26c:	e17fff17 	ldw	r5,-4(fp)
     270:	00001f80 	call	1f8 <cam_get_preset>
	// printf("%s\tW: %d, H: %d, fps: %.2f\n", name, myPreset.width, myPreset.height, myPreset.fps);
}
     274:	e037883a 	mov	sp,fp
     278:	dfc00117 	ldw	ra,4(sp)
     27c:	df000017 	ldw	fp,0(sp)
     280:	dec00204 	addi	sp,sp,8
     284:	f800283a 	ret

00000288 <sleep_ms>:

void sleep_ms(int milisec)
{
     288:	defffc04 	addi	sp,sp,-16
     28c:	df000315 	stw	fp,12(sp)
     290:	df000304 	addi	fp,sp,12
     294:	e13fff15 	stw	r4,-4(fp)
    int i;
    int k;
    for (i = 0; i < milisec; i++) {
     298:	e03ffd15 	stw	zero,-12(fp)
     29c:	00000c06 	br	2d0 <sleep_ms+0x48>
        for (k = 0; k < 125; k++) {
     2a0:	e03ffe15 	stw	zero,-8(fp)
     2a4:	00000406 	br	2b8 <sleep_ms+0x30>
             __asm("nop");
     2a8:	0001883a 	nop
void sleep_ms(int milisec)
{
    int i;
    int k;
    for (i = 0; i < milisec; i++) {
        for (k = 0; k < 125; k++) {
     2ac:	e0bffe17 	ldw	r2,-8(fp)
     2b0:	10800044 	addi	r2,r2,1
     2b4:	e0bffe15 	stw	r2,-8(fp)
     2b8:	e0bffe17 	ldw	r2,-8(fp)
     2bc:	10801f50 	cmplti	r2,r2,125
     2c0:	103ff91e 	bne	r2,zero,2a8 <sleep_ms+0x20>

void sleep_ms(int milisec)
{
    int i;
    int k;
    for (i = 0; i < milisec; i++) {
     2c4:	e0bffd17 	ldw	r2,-12(fp)
     2c8:	10800044 	addi	r2,r2,1
     2cc:	e0bffd15 	stw	r2,-12(fp)
     2d0:	e0fffd17 	ldw	r3,-12(fp)
     2d4:	e0bfff17 	ldw	r2,-4(fp)
     2d8:	18bff116 	blt	r3,r2,2a0 <sleep_ms+0x18>
        for (k = 0; k < 125; k++) {
             __asm("nop");
        }
    }
}
     2dc:	e037883a 	mov	sp,fp
     2e0:	df000017 	ldw	fp,0(sp)
     2e4:	dec00104 	addi	sp,sp,4
     2e8:	f800283a 	ret

000002ec <dump_word>:

void dump_word(const void *addr)
{
     2ec:	defffd04 	addi	sp,sp,-12
     2f0:	dfc00215 	stw	ra,8(sp)
     2f4:	df000115 	stw	fp,4(sp)
     2f8:	df000104 	addi	fp,sp,4
     2fc:	e13fff15 	stw	r4,-4(fp)
	printf("[%08x] %08x\n", (unsigned int)addr, IORD_32DIRECT(0, (unsigned int)addr));
     300:	e0ffff17 	ldw	r3,-4(fp)
     304:	e0bfff17 	ldw	r2,-4(fp)
     308:	10800037 	ldwio	r2,0(r2)
     30c:	01000074 	movhi	r4,1
     310:	213f9604 	addi	r4,r4,-424
     314:	180b883a 	mov	r5,r3
     318:	100d883a 	mov	r6,r2
     31c:	0001bec0 	call	1bec <printf>
}
     320:	e037883a 	mov	sp,fp
     324:	dfc00117 	ldw	ra,4(sp)
     328:	df000017 	ldw	fp,0(sp)
     32c:	dec00204 	addi	sp,sp,8
     330:	f800283a 	ret

00000334 <dump_pcm_header>:

void dump_pcm_header(unsigned int width, unsigned int height) {
     334:	defffc04 	addi	sp,sp,-16
     338:	dfc00315 	stw	ra,12(sp)
     33c:	df000215 	stw	fp,8(sp)
     340:	df000204 	addi	fp,sp,8
     344:	e13ffe15 	stw	r4,-8(fp)
     348:	e17fff15 	stw	r5,-4(fp)
	printf("P3\n");
     34c:	01000074 	movhi	r4,1
     350:	213f9a04 	addi	r4,r4,-408
     354:	0001e480 	call	1e48 <puts>
	printf("%d %d\n", width, height);
     358:	01000074 	movhi	r4,1
     35c:	213f9b04 	addi	r4,r4,-404
     360:	e17ffe17 	ldw	r5,-8(fp)
     364:	e1bfff17 	ldw	r6,-4(fp)
     368:	0001bec0 	call	1bec <printf>
	printf("255\n");
     36c:	01000074 	movhi	r4,1
     370:	213f9d04 	addi	r4,r4,-396
     374:	0001e480 	call	1e48 <puts>
}
     378:	e037883a 	mov	sp,fp
     37c:	dfc00117 	ldw	ra,4(sp)
     380:	df000017 	ldw	fp,0(sp)
     384:	dec00204 	addi	sp,sp,8
     388:	f800283a 	ret

0000038c <dump_pcm_data>:

void dump_pcm_data(uint16_t *buffer, unsigned int width, unsigned int height)
{
     38c:	defff604 	addi	sp,sp,-40
     390:	dfc00915 	stw	ra,36(sp)
     394:	df000815 	stw	fp,32(sp)
     398:	dc400715 	stw	r17,28(sp)
     39c:	dc000615 	stw	r16,24(sp)
     3a0:	df000804 	addi	fp,sp,32
     3a4:	e13ffb15 	stw	r4,-20(fp)
     3a8:	e17ffc15 	stw	r5,-16(fp)
     3ac:	e1bffd15 	stw	r6,-12(fp)
	unsigned int i = 0;
     3b0:	e03ff815 	stw	zero,-32(fp)

	for (i = 0 ; i < (width * height) ; i ++) {
     3b4:	e03ff815 	stw	zero,-32(fp)
     3b8:	00003806 	br	49c <dump_pcm_data+0x110>
		unsigned short px = buffer[i];
     3bc:	e0bff817 	ldw	r2,-32(fp)
     3c0:	1085883a 	add	r2,r2,r2
     3c4:	1007883a 	mov	r3,r2
     3c8:	e0bffb17 	ldw	r2,-20(fp)
     3cc:	10c5883a 	add	r2,r2,r3
     3d0:	1080000b 	ldhu	r2,0(r2)
     3d4:	e0bff90d 	sth	r2,-28(fp)


		unsigned char b = (px & 0x001f);
     3d8:	e0bff90b 	ldhu	r2,-28(fp)
     3dc:	108007cc 	andi	r2,r2,31
     3e0:	e0bff985 	stb	r2,-26(fp)
		unsigned char v = (px & 0x07e0) >> 5;
     3e4:	e0bff90b 	ldhu	r2,-28(fp)
     3e8:	1081f80c 	andi	r2,r2,2016
     3ec:	1005d17a 	srai	r2,r2,5
     3f0:	e0bff9c5 	stb	r2,-25(fp)
		unsigned char r = (px & 0xf800) >> 11; // bit 15 -> bit 8
     3f4:	e0bff90b 	ldhu	r2,-28(fp)
     3f8:	1004d2fa 	srli	r2,r2,11
     3fc:	e0bffa05 	stb	r2,-24(fp)

//		unsigned char b = (px & 0x001f) <<  3;
//		unsigned char v = (px & 0x07e0) >>  4;
//		unsigned char r = (px & 0xf800) >> 11;

		printf("%03d %03d %03d  ", ((int)r * 255) / 0x1f, ((int)v * 255) / 0x3f, ((int)b * 255) / 0x1f);
     400:	e0bffa03 	ldbu	r2,-24(fp)
     404:	10803fe4 	muli	r2,r2,255
     408:	1009883a 	mov	r4,r2
     40c:	014007c4 	movi	r5,31
     410:	00011540 	call	1154 <__divsi3>
     414:	1023883a 	mov	r17,r2
     418:	e0bff9c3 	ldbu	r2,-25(fp)
     41c:	10803fe4 	muli	r2,r2,255
     420:	1009883a 	mov	r4,r2
     424:	01400fc4 	movi	r5,63
     428:	00011540 	call	1154 <__divsi3>
     42c:	1021883a 	mov	r16,r2
     430:	e0bff983 	ldbu	r2,-26(fp)
     434:	10803fe4 	muli	r2,r2,255
     438:	1009883a 	mov	r4,r2
     43c:	014007c4 	movi	r5,31
     440:	00011540 	call	1154 <__divsi3>
     444:	01000074 	movhi	r4,1
     448:	213f9e04 	addi	r4,r4,-392
     44c:	880b883a 	mov	r5,r17
     450:	800d883a 	mov	r6,r16
     454:	100f883a 	mov	r7,r2
     458:	0001bec0 	call	1bec <printf>
		// printf("%04x ", px);
		if ((i+1) % width == 0) {
     45c:	e0bff817 	ldw	r2,-32(fp)
     460:	10800044 	addi	r2,r2,1
     464:	1009883a 	mov	r4,r2
     468:	e17ffc17 	ldw	r5,-16(fp)
     46c:	000120c0 	call	120c <__umodsi3>
     470:	1000071e 	bne	r2,zero,490 <dump_pcm_data+0x104>
			putchar('\n');
     474:	00800074 	movhi	r2,1
     478:	10872b04 	addi	r2,r2,7340
     47c:	10800017 	ldw	r2,0(r2)
     480:	10800217 	ldw	r2,8(r2)
     484:	01000284 	movi	r4,10
     488:	100b883a 	mov	r5,r2
     48c:	0001cc80 	call	1cc8 <putc>

void dump_pcm_data(uint16_t *buffer, unsigned int width, unsigned int height)
{
	unsigned int i = 0;

	for (i = 0 ; i < (width * height) ; i ++) {
     490:	e0bff817 	ldw	r2,-32(fp)
     494:	10800044 	addi	r2,r2,1
     498:	e0bff815 	stw	r2,-32(fp)
     49c:	e0fffc17 	ldw	r3,-16(fp)
     4a0:	e0bffd17 	ldw	r2,-12(fp)
     4a4:	1885383a 	mul	r2,r3,r2
     4a8:	e0fff817 	ldw	r3,-32(fp)
     4ac:	18bfc336 	bltu	r3,r2,3bc <dump_pcm_data+0x30>
		if ((i+1) % width == 0) {
			putchar('\n');
		}
	}

}
     4b0:	e6fffe04 	addi	sp,fp,-8
     4b4:	dfc00317 	ldw	ra,12(sp)
     4b8:	df000217 	ldw	fp,8(sp)
     4bc:	dc400117 	ldw	r17,4(sp)
     4c0:	dc000017 	ldw	r16,0(sp)
     4c4:	dec00404 	addi	sp,sp,16
     4c8:	f800283a 	ret

000004cc <trdb_d5m_write>:

#define I2C_FREQ              (50000000) /* 50 MHz -- clock frequency driving the i2c core: 50 MHz */
#define TRDB_D5M_I2C_ADDRESS  (0xba)

bool trdb_d5m_write(i2c_dev *i2c, uint8_t register_offset, uint16_t data) {
     4cc:	defff804 	addi	sp,sp,-32
     4d0:	dfc00715 	stw	ra,28(sp)
     4d4:	df000615 	stw	fp,24(sp)
     4d8:	df000604 	addi	fp,sp,24
     4dc:	e13ffd15 	stw	r4,-12(fp)
     4e0:	2807883a 	mov	r3,r5
     4e4:	3005883a 	mov	r2,r6
     4e8:	e0fffe05 	stb	r3,-8(fp)
     4ec:	e0bfff0d 	sth	r2,-4(fp)
    uint8_t byte_data[2] = {(data >> 8) & 0xff, data & 0xff};
     4f0:	e0bfff0b 	ldhu	r2,-4(fp)
     4f4:	1004d23a 	srli	r2,r2,8
     4f8:	e0bffc05 	stb	r2,-16(fp)
     4fc:	e0bfff0b 	ldhu	r2,-4(fp)
     500:	e0bffc45 	stb	r2,-15(fp)

    int success = i2c_write_array(i2c, TRDB_D5M_I2C_ADDRESS, register_offset, byte_data, sizeof(byte_data));
     504:	e1bffe03 	ldbu	r6,-8(fp)
     508:	e0fffc04 	addi	r3,fp,-16
     50c:	00800084 	movi	r2,2
     510:	d8800015 	stw	r2,0(sp)
     514:	e13ffd17 	ldw	r4,-12(fp)
     518:	01402e84 	movi	r5,186
     51c:	180f883a 	mov	r7,r3
     520:	0000dac0 	call	dac <i2c_write_array>
     524:	e0bffb15 	stw	r2,-20(fp)

    if (success != I2C_SUCCESS) {
     528:	e0bffb17 	ldw	r2,-20(fp)
     52c:	10000226 	beq	r2,zero,538 <trdb_d5m_write+0x6c>
        return false;
     530:	0005883a 	mov	r2,zero
     534:	00000106 	br	53c <trdb_d5m_write+0x70>
    } else {
        return true;
     538:	00800044 	movi	r2,1
    }
}
     53c:	e037883a 	mov	sp,fp
     540:	dfc00117 	ldw	ra,4(sp)
     544:	df000017 	ldw	fp,0(sp)
     548:	dec00204 	addi	sp,sp,8
     54c:	f800283a 	ret

00000550 <trdb_d5m_read>:

bool trdb_d5m_read(i2c_dev *i2c, uint8_t register_offset, uint16_t *data) {
     550:	defff804 	addi	sp,sp,-32
     554:	dfc00715 	stw	ra,28(sp)
     558:	df000615 	stw	fp,24(sp)
     55c:	df000604 	addi	fp,sp,24
     560:	e13ffd15 	stw	r4,-12(fp)
     564:	2805883a 	mov	r2,r5
     568:	e1bfff15 	stw	r6,-4(fp)
     56c:	e0bffe05 	stb	r2,-8(fp)
    uint8_t byte_data[2] = {0, 0};
     570:	e03ffc05 	stb	zero,-16(fp)
     574:	e03ffc45 	stb	zero,-15(fp)

    int success = i2c_read_array(i2c, TRDB_D5M_I2C_ADDRESS, register_offset, byte_data, sizeof(byte_data));
     578:	e1bffe03 	ldbu	r6,-8(fp)
     57c:	e0fffc04 	addi	r3,fp,-16
     580:	00800084 	movi	r2,2
     584:	d8800015 	stw	r2,0(sp)
     588:	e13ffd17 	ldw	r4,-12(fp)
     58c:	01402e84 	movi	r5,186
     590:	180f883a 	mov	r7,r3
     594:	0000f400 	call	f40 <i2c_read_array>
     598:	e0bffb15 	stw	r2,-20(fp)

    if (success != I2C_SUCCESS) {
     59c:	e0bffb17 	ldw	r2,-20(fp)
     5a0:	10000226 	beq	r2,zero,5ac <trdb_d5m_read+0x5c>
        return false;
     5a4:	0005883a 	mov	r2,zero
     5a8:	00000b06 	br	5d8 <trdb_d5m_read+0x88>
    } else {
        *data = ((uint16_t) byte_data[0] << 8) + byte_data[1];
     5ac:	e0bffc03 	ldbu	r2,-16(fp)
     5b0:	10803fcc 	andi	r2,r2,255
     5b4:	1004923a 	slli	r2,r2,8
     5b8:	1007883a 	mov	r3,r2
     5bc:	e0bffc43 	ldbu	r2,-15(fp)
     5c0:	10803fcc 	andi	r2,r2,255
     5c4:	1885883a 	add	r2,r3,r2
     5c8:	1007883a 	mov	r3,r2
     5cc:	e0bfff17 	ldw	r2,-4(fp)
     5d0:	10c0000d 	sth	r3,0(r2)
        return true;
     5d4:	00800044 	movi	r2,1
    }
}
     5d8:	e037883a 	mov	sp,fp
     5dc:	dfc00117 	ldw	ra,4(sp)
     5e0:	df000017 	ldw	fp,0(sp)
     5e4:	dec00204 	addi	sp,sp,8
     5e8:	f800283a 	ret

000005ec <main>:


int main()
{
     5ec:	defff604 	addi	sp,sp,-40
     5f0:	dfc00915 	stw	ra,36(sp)
     5f4:	df000815 	stw	fp,32(sp)
     5f8:	df000804 	addi	fp,sp,32
    i2c_dev i2c = i2c_inst((void *) I2C_0_BASE);
     5fc:	01008034 	movhi	r4,512
     600:	21001404 	addi	r4,r4,80
     604:	0000a300 	call	a30 <i2c_inst>
     608:	e0bfff15 	stw	r2,-4(fp)
    i2c_init(&i2c, I2C_FREQ);
     60c:	e0bfff04 	addi	r2,fp,-4
     610:	1009883a 	mov	r4,r2
     614:	0140bef4 	movhi	r5,763
     618:	297c2004 	addi	r5,r5,-3968
     61c:	0000a5c0 	call	a5c <i2c_init>

    int i = 0;
     620:	e03ff815 	stw	zero,-32(fp)

    int width = 640, height = 480; // VGA
     624:	0080a004 	movi	r2,640
     628:	e0bff915 	stw	r2,-28(fp)
     62c:	00807804 	movi	r2,480
     630:	e0bffa15 	stw	r2,-24(fp)
//    int width = 320, height = 240;

    // Sample on rising edge
    trdb_d5m_write(&i2c, 0x00a, 0x8000);
     634:	e0bfff04 	addi	r2,fp,-4
     638:	1009883a 	mov	r4,r2
     63c:	01400284 	movi	r5,10
     640:	01a00014 	movui	r6,32768
     644:	00004cc0 	call	4cc <trdb_d5m_write>
    // Test pattern
    trdb_d5m_write(&i2c, 0x0a0, (8 << 3) | (0x0));
     648:	e0bfff04 	addi	r2,fp,-4
     64c:	1009883a 	mov	r4,r2
     650:	01402804 	movi	r5,160
     654:	01801004 	movi	r6,64
     658:	00004cc0 	call	4cc <trdb_d5m_write>
    trdb_d5m_write(&i2c, 0x00c, 8000); // Shutter delay (increases exposure)
     65c:	e0bfff04 	addi	r2,fp,-4
     660:	1009883a 	mov	r4,r2
     664:	01400304 	movi	r5,12
     668:	0187d004 	movi	r6,8000
     66c:	00004cc0 	call	4cc <trdb_d5m_write>

    // USE BINNING:

    // Frame height (8 times height to account for Bayes pattern and row binning)
	trdb_d5m_write(&i2c, 0x003, (height << 2) - 1);
     670:	e0bffa17 	ldw	r2,-24(fp)
     674:	1085883a 	add	r2,r2,r2
     678:	1085883a 	add	r2,r2,r2
     67c:	10bfffc4 	addi	r2,r2,-1
     680:	10bfffcc 	andi	r2,r2,65535
     684:	e0ffff04 	addi	r3,fp,-4
     688:	1809883a 	mov	r4,r3
     68c:	014000c4 	movi	r5,3
     690:	100d883a 	mov	r6,r2
     694:	00004cc0 	call	4cc <trdb_d5m_write>
	// Frame width
	trdb_d5m_write(&i2c, 0x004, (width << 2) - 1);
     698:	e0bff917 	ldw	r2,-28(fp)
     69c:	1085883a 	add	r2,r2,r2
     6a0:	1085883a 	add	r2,r2,r2
     6a4:	10bfffc4 	addi	r2,r2,-1
     6a8:	10bfffcc 	andi	r2,r2,65535
     6ac:	e0ffff04 	addi	r3,fp,-4
     6b0:	1809883a 	mov	r4,r3
     6b4:	01400104 	movi	r5,4
     6b8:	100d883a 	mov	r6,r2
     6bc:	00004cc0 	call	4cc <trdb_d5m_write>
	// Row binning x4
	trdb_d5m_write(&i2c, 0x022, 0x0011);
     6c0:	e0bfff04 	addi	r2,fp,-4
     6c4:	1009883a 	mov	r4,r2
     6c8:	01400884 	movi	r5,34
     6cc:	01800444 	movi	r6,17
     6d0:	00004cc0 	call	4cc <trdb_d5m_write>
	// Column binning x4
	trdb_d5m_write(&i2c, 0x023, 0x0011);
     6d4:	e0bfff04 	addi	r2,fp,-4
     6d8:	1009883a 	mov	r4,r2
     6dc:	014008c4 	movi	r5,35
     6e0:	01800444 	movi	r6,17
     6e4:	00004cc0 	call	4cc <trdb_d5m_write>
//	trdb_d5m_write(&i2c, 0x022, 0x0000);
//	// No column binning
//	trdb_d5m_write(&i2c, 0x023, 0x0000);


	uint16_t *buffer = calloc(2*4, width*height);
     6e8:	e0fff917 	ldw	r3,-28(fp)
     6ec:	e0bffa17 	ldw	r2,-24(fp)
     6f0:	1885383a 	mul	r2,r3,r2
     6f4:	01000204 	movi	r4,8
     6f8:	100b883a 	mov	r5,r2
     6fc:	00012140 	call	1214 <calloc>
     700:	e0bffb15 	stw	r2,-20(fp)
	if (buffer == NULL) {
     704:	e0bffb17 	ldw	r2,-20(fp)
     708:	1000051e 	bne	r2,zero,720 <main+0x134>
		 printf("# Cannot allocate image buffer\n");
     70c:	01000074 	movhi	r4,1
     710:	213fa304 	addi	r4,r4,-372
     714:	0001e480 	call	1e48 <puts>
		return 1;
     718:	00800044 	movi	r2,1
     71c:	00006f06 	br	8dc <main+0x2f0>
	}

	IOWR_32DIRECT(CMOS_SENSOR_OUTPUT_GENERATOR_0_BASE, 0x1c, 0); // Stop generation
     720:	0007883a 	mov	r3,zero
     724:	00808034 	movhi	r2,512
     728:	10800704 	addi	r2,r2,28
     72c:	10c00035 	stwio	r3,0(r2)

	// Reset camera
	// IOWR_32DIRECT(CAMERA_CONTROLLER_0_BASE, CAM_CTRL_1, CAM_RESET);

	// Set output buffer address
	IOWR_32DIRECT(CAMERA_CONTROLLER_0_BASE, CAM_BUFFER_START, buffer);
     730:	e0fffb17 	ldw	r3,-20(fp)
     734:	00808034 	movhi	r2,512
     738:	10800804 	addi	r2,r2,32
     73c:	10c00035 	stwio	r3,0(r2)
	// Start capture
	IOWR_32DIRECT(CAMERA_CONTROLLER_0_BASE, CAM_CTRL_1, CAM_START);
     740:	00c00404 	movi	r3,16
     744:	00808034 	movhi	r2,512
     748:	10800b04 	addi	r2,r2,44
     74c:	10c00035 	stwio	r3,0(r2)

	IOWR_32DIRECT(CMOS_SENSOR_OUTPUT_GENERATOR_0_BASE, 0x00, width << 1); // Width
     750:	e0bff917 	ldw	r2,-28(fp)
     754:	1085883a 	add	r2,r2,r2
     758:	1007883a 	mov	r3,r2
     75c:	00808034 	movhi	r2,512
     760:	10c00035 	stwio	r3,0(r2)
	IOWR_32DIRECT(CMOS_SENSOR_OUTPUT_GENERATOR_0_BASE, 0x04, height << 1); // Height
     764:	e0bffa17 	ldw	r2,-24(fp)
     768:	1085883a 	add	r2,r2,r2
     76c:	1007883a 	mov	r3,r2
     770:	00808034 	movhi	r2,512
     774:	10800104 	addi	r2,r2,4
     778:	10c00035 	stwio	r3,0(r2)
	IOWR_32DIRECT(CMOS_SENSOR_OUTPUT_GENERATOR_0_BASE, 0x08, 1);
     77c:	00c00044 	movi	r3,1
     780:	00808034 	movhi	r2,512
     784:	10800204 	addi	r2,r2,8
     788:	10c00035 	stwio	r3,0(r2)
	IOWR_32DIRECT(CMOS_SENSOR_OUTPUT_GENERATOR_0_BASE, 0x0c, 0);
     78c:	0007883a 	mov	r3,zero
     790:	00808034 	movhi	r2,512
     794:	10800304 	addi	r2,r2,12
     798:	10c00035 	stwio	r3,0(r2)
	IOWR_32DIRECT(CMOS_SENSOR_OUTPUT_GENERATOR_0_BASE, 0x10, 1);
     79c:	00c00044 	movi	r3,1
     7a0:	00808034 	movhi	r2,512
     7a4:	10800404 	addi	r2,r2,16
     7a8:	10c00035 	stwio	r3,0(r2)
	IOWR_32DIRECT(CMOS_SENSOR_OUTPUT_GENERATOR_0_BASE, 0x14, 0);
     7ac:	0007883a 	mov	r3,zero
     7b0:	00808034 	movhi	r2,512
     7b4:	10800504 	addi	r2,r2,20
     7b8:	10c00035 	stwio	r3,0(r2)
	IOWR_32DIRECT(CMOS_SENSOR_OUTPUT_GENERATOR_0_BASE, 0x18, 0); // Generate random
     7bc:	0007883a 	mov	r3,zero
     7c0:	00808034 	movhi	r2,512
     7c4:	10800604 	addi	r2,r2,24
     7c8:	10c00035 	stwio	r3,0(r2)
	IOWR_32DIRECT(CMOS_SENSOR_OUTPUT_GENERATOR_0_BASE, 0x1c, 1); // Start generation
     7cc:	00c00044 	movi	r3,1
     7d0:	00808034 	movhi	r2,512
     7d4:	10800704 	addi	r2,r2,28
     7d8:	10c00035 	stwio	r3,0(r2)
//	  constant FRAME_FRAME_BLANK_CYCLES : positive := 1;
//	  constant FRAME_LINE_BLANK_CYCLES  : natural  := 0;
//	  constant LINE_LINE_BLANK_CYCLES   : positive := 1;
//	  constant LINE_FRAME_BLANK_CYCLES  : natural  := 0;

	for (i = 0 ; i < 10 ; i++) {
     7dc:	e03ff815 	stw	zero,-32(fp)
     7e0:	00003306 	br	8b0 <main+0x2c4>
		puts("# == NEW FRAME \n");
     7e4:	01000074 	movhi	r4,1
     7e8:	213fab04 	addi	r4,r4,-340
     7ec:	0001e480 	call	1e48 <puts>
		dump_pcm_header(width, height);
     7f0:	e0fff917 	ldw	r3,-28(fp)
     7f4:	e0bffa17 	ldw	r2,-24(fp)
     7f8:	1809883a 	mov	r4,r3
     7fc:	100b883a 	mov	r5,r2
     800:	00003340 	call	334 <dump_pcm_header>
		int ctl;
		do {
			ctl = IORD_32DIRECT(CAMERA_CONTROLLER_0_BASE, 0x0c);
     804:	00808034 	movhi	r2,512
     808:	10800b04 	addi	r2,r2,44
     80c:	10800037 	ldwio	r2,0(r2)
     810:	e0bffc15 	stw	r2,-16(fp)
			 printf("# CTRL: %08x\n", ctl);
     814:	01000074 	movhi	r4,1
     818:	213fb004 	addi	r4,r4,-320
     81c:	e17ffc17 	ldw	r5,-16(fp)
     820:	0001bec0 	call	1bec <printf>

			 int debug_reg = IORD_32DIRECT(CAMERA_CONTROLLER_0_BASE, 0x14);
     824:	00808034 	movhi	r2,512
     828:	10800d04 	addi	r2,r2,52
     82c:	10800037 	ldwio	r2,0(r2)
     830:	e0bffd15 	stw	r2,-12(fp)
			 printf("# DBG: %08x\n", debug_reg);
     834:	01000074 	movhi	r4,1
     838:	213fb404 	addi	r4,r4,-304
     83c:	e17ffd17 	ldw	r5,-12(fp)
     840:	0001bec0 	call	1bec <printf>

			sleep_ms(10000);
     844:	0109c404 	movi	r4,10000
     848:	00002880 	call	288 <sleep_ms>
		} while ( !(ctl & CAM_READ_AVAIL) );
     84c:	e0bffc17 	ldw	r2,-16(fp)
     850:	1080400c 	andi	r2,r2,256
     854:	103feb26 	beq	r2,zero,804 <main+0x218>
		void * addr = IORD_32DIRECT(CAMERA_CONTROLLER_0_BASE, CAM_CURRENT_FRAME);
     858:	00808034 	movhi	r2,512
     85c:	10800a04 	addi	r2,r2,40
     860:	10800037 	ldwio	r2,0(r2)
     864:	e0bffe15 	stw	r2,-8(fp)
		printf("# Buffer addr: %08x \n", (int)addr);
     868:	e0bffe17 	ldw	r2,-8(fp)
     86c:	01000074 	movhi	r4,1
     870:	213fb804 	addi	r4,r4,-288
     874:	100b883a 	mov	r5,r2
     878:	0001bec0 	call	1bec <printf>
		dump_pcm_data(addr, width, height);
     87c:	e0fff917 	ldw	r3,-28(fp)
     880:	e0bffa17 	ldw	r2,-24(fp)
     884:	e13ffe17 	ldw	r4,-8(fp)
     888:	180b883a 	mov	r5,r3
     88c:	100d883a 	mov	r6,r2
     890:	000038c0 	call	38c <dump_pcm_data>
		IOWR_32DIRECT(CAMERA_CONTROLLER_0_BASE, CAM_CTRL_1, CAM_READ_DONE);
     894:	00c02004 	movi	r3,128
     898:	00808034 	movhi	r2,512
     89c:	10800b04 	addi	r2,r2,44
     8a0:	10c00035 	stwio	r3,0(r2)
//	  constant FRAME_FRAME_BLANK_CYCLES : positive := 1;
//	  constant FRAME_LINE_BLANK_CYCLES  : natural  := 0;
//	  constant LINE_LINE_BLANK_CYCLES   : positive := 1;
//	  constant LINE_FRAME_BLANK_CYCLES  : natural  := 0;

	for (i = 0 ; i < 10 ; i++) {
     8a4:	e0bff817 	ldw	r2,-32(fp)
     8a8:	10800044 	addi	r2,r2,1
     8ac:	e0bff815 	stw	r2,-32(fp)
     8b0:	e0bff817 	ldw	r2,-32(fp)
     8b4:	10800290 	cmplti	r2,r2,10
     8b8:	103fca1e 	bne	r2,zero,7e4 <main+0x1f8>
		dump_pcm_data(addr, width, height);
		IOWR_32DIRECT(CAMERA_CONTROLLER_0_BASE, CAM_CTRL_1, CAM_READ_DONE);
	}


	IOWR_32DIRECT(CAMERA_CONTROLLER_0_BASE, CAM_CTRL_1, CAM_STOP);
     8bc:	00c00804 	movi	r3,32
     8c0:	00808034 	movhi	r2,512
     8c4:	10800b04 	addi	r2,r2,44
     8c8:	10c00035 	stwio	r3,0(r2)
	printf("\n# Finished\n");
     8cc:	01000074 	movhi	r4,1
     8d0:	213fbe04 	addi	r4,r4,-264
     8d4:	0001e480 	call	1e48 <puts>

    return 0;
     8d8:	0005883a 	mov	r2,zero
}
     8dc:	e037883a 	mov	sp,fp
     8e0:	dfc00117 	ldw	ra,4(sp)
     8e4:	df000017 	ldw	fp,0(sp)
     8e8:	dec00204 	addi	sp,sp,8
     8ec:	f800283a 	ret

000008f0 <i2c_usleep>:
static void i2c_wait_end_of_transfer(i2c_dev *dev);
static void i2c_set_data_control(i2c_dev *dev, uint8_t data, uint8_t control);
static uint8_t i2c_get_data_set_control(i2c_dev *dev, uint8_t control);

/* Function to put the host processor to sleep for microseconds */
static void i2c_usleep(unsigned int useconds) {
     8f0:	defffd04 	addi	sp,sp,-12
     8f4:	dfc00215 	stw	ra,8(sp)
     8f8:	df000115 	stw	fp,4(sp)
     8fc:	df000104 	addi	fp,sp,4
     900:	e13fff15 	stw	r4,-4(fp)
#if defined(__KERNEL__) || defined(MODULE)
    udelay(useconds);
#else
    usleep(useconds);
     904:	e13fff17 	ldw	r4,-4(fp)
     908:	000de280 	call	de28 <usleep>
#endif
}
     90c:	e037883a 	mov	sp,fp
     910:	dfc00117 	ldw	ra,4(sp)
     914:	df000017 	ldw	fp,0(sp)
     918:	dec00204 	addi	sp,sp,8
     91c:	f800283a 	ret

00000920 <i2c_wait_end_of_transfer>:

/*
 * Waits until the current i2c transfer is finished.
 */
static void i2c_wait_end_of_transfer(i2c_dev *dev) {
     920:	defffe04 	addi	sp,sp,-8
     924:	df000115 	stw	fp,4(sp)
     928:	df000104 	addi	fp,sp,4
     92c:	e13fff15 	stw	r4,-4(fp)
    while (I2C_RD_STATUS(dev->base) & I2C_STATUS_TRANSFER_IN_PROGRESS_MSK);
     930:	0001883a 	nop
     934:	e0bfff17 	ldw	r2,-4(fp)
     938:	10800017 	ldw	r2,0(r2)
     93c:	10800084 	addi	r2,r2,2
     940:	10800023 	ldbuio	r2,0(r2)
     944:	10803fcc 	andi	r2,r2,255
     948:	1080020c 	andi	r2,r2,8
     94c:	103ff91e 	bne	r2,zero,934 <i2c_wait_end_of_transfer+0x14>
}
     950:	e037883a 	mov	sp,fp
     954:	df000017 	ldw	fp,0(sp)
     958:	dec00104 	addi	sp,sp,4
     95c:	f800283a 	ret

00000960 <i2c_set_data_control>:

/*
 * Writes the supplied "data" argument to SDA while using the control sequences
 * provided in argument "control".
 */
static void i2c_set_data_control(i2c_dev *dev, uint8_t data, uint8_t control) {
     960:	defffb04 	addi	sp,sp,-20
     964:	dfc00415 	stw	ra,16(sp)
     968:	df000315 	stw	fp,12(sp)
     96c:	df000304 	addi	fp,sp,12
     970:	e13ffd15 	stw	r4,-12(fp)
     974:	2807883a 	mov	r3,r5
     978:	3005883a 	mov	r2,r6
     97c:	e0fffe05 	stb	r3,-8(fp)
     980:	e0bfff05 	stb	r2,-4(fp)
    i2c_wait_end_of_transfer(dev);
     984:	e13ffd17 	ldw	r4,-12(fp)
     988:	00009200 	call	920 <i2c_wait_end_of_transfer>
    I2C_WR_DATA(dev->base, data);
     98c:	e0bffd17 	ldw	r2,-12(fp)
     990:	10800017 	ldw	r2,0(r2)
     994:	e0fffe03 	ldbu	r3,-8(fp)
     998:	10c00025 	stbio	r3,0(r2)
    I2C_WR_CONTROL(dev->base, control);
     99c:	e0bffd17 	ldw	r2,-12(fp)
     9a0:	10800017 	ldw	r2,0(r2)
     9a4:	10800044 	addi	r2,r2,1
     9a8:	e0ffff03 	ldbu	r3,-4(fp)
     9ac:	10c00025 	stbio	r3,0(r2)
    i2c_wait_end_of_transfer(dev);
     9b0:	e13ffd17 	ldw	r4,-12(fp)
     9b4:	00009200 	call	920 <i2c_wait_end_of_transfer>
}
     9b8:	e037883a 	mov	sp,fp
     9bc:	dfc00117 	ldw	ra,4(sp)
     9c0:	df000017 	ldw	fp,0(sp)
     9c4:	dec00204 	addi	sp,sp,8
     9c8:	f800283a 	ret

000009cc <i2c_get_data_set_control>:

/*
 * Reads data from SDA while using the control sequences provided in argument
 * "control".
 */
static uint8_t i2c_get_data_set_control(i2c_dev *dev, uint8_t control) {
     9cc:	defffc04 	addi	sp,sp,-16
     9d0:	dfc00315 	stw	ra,12(sp)
     9d4:	df000215 	stw	fp,8(sp)
     9d8:	df000204 	addi	fp,sp,8
     9dc:	e13ffe15 	stw	r4,-8(fp)
     9e0:	2805883a 	mov	r2,r5
     9e4:	e0bfff05 	stb	r2,-4(fp)
    i2c_wait_end_of_transfer(dev);
     9e8:	e13ffe17 	ldw	r4,-8(fp)
     9ec:	00009200 	call	920 <i2c_wait_end_of_transfer>
    I2C_WR_CONTROL(dev->base, control);
     9f0:	e0bffe17 	ldw	r2,-8(fp)
     9f4:	10800017 	ldw	r2,0(r2)
     9f8:	10800044 	addi	r2,r2,1
     9fc:	e0ffff03 	ldbu	r3,-4(fp)
     a00:	10c00025 	stbio	r3,0(r2)
    i2c_wait_end_of_transfer(dev);
     a04:	e13ffe17 	ldw	r4,-8(fp)
     a08:	00009200 	call	920 <i2c_wait_end_of_transfer>
    return I2C_RD_DATA(dev->base);
     a0c:	e0bffe17 	ldw	r2,-8(fp)
     a10:	10800017 	ldw	r2,0(r2)
     a14:	10800023 	ldbuio	r2,0(r2)
     a18:	10803fcc 	andi	r2,r2,255
}
     a1c:	e037883a 	mov	sp,fp
     a20:	dfc00117 	ldw	ra,4(sp)
     a24:	df000017 	ldw	fp,0(sp)
     a28:	dec00204 	addi	sp,sp,8
     a2c:	f800283a 	ret

00000a30 <i2c_inst>:
/*
 * i2c_inst
 *
 * Constructs a device structure.
 */
i2c_dev i2c_inst(void *base) {
     a30:	defffd04 	addi	sp,sp,-12
     a34:	df000215 	stw	fp,8(sp)
     a38:	df000204 	addi	fp,sp,8
     a3c:	e13fff15 	stw	r4,-4(fp)
    i2c_dev dev;

    dev.base = base;
     a40:	e0bfff17 	ldw	r2,-4(fp)
     a44:	e0bffe15 	stw	r2,-8(fp)

    return dev;
     a48:	e0bffe17 	ldw	r2,-8(fp)
}
     a4c:	e037883a 	mov	sp,fp
     a50:	df000017 	ldw	fp,0(sp)
     a54:	dec00104 	addi	sp,sp,4
     a58:	f800283a 	ret

00000a5c <i2c_init>:
 * standard data rate for an I2C transfer is 100 kbits/s. However, in order to
 * meet the timing constraints of the protocol, the I2C controller needs to
 * operate 4 times faster. Therefore, one must set the clock divisor register to
 * i2c_frequency / (4 * 100 KHz).
 */
void i2c_init(i2c_dev *dev, uint32_t i2c_frequency) {
     a5c:	defffb04 	addi	sp,sp,-20
     a60:	dfc00415 	stw	ra,16(sp)
     a64:	df000315 	stw	fp,12(sp)
     a68:	dc000215 	stw	r16,8(sp)
     a6c:	df000304 	addi	fp,sp,12
     a70:	e13ffd15 	stw	r4,-12(fp)
     a74:	e17ffe15 	stw	r5,-8(fp)
    I2C_WR_CLOCK_DIVISOR(dev->base, i2c_frequency / (4 * 100000));
     a78:	e0bffd17 	ldw	r2,-12(fp)
     a7c:	10800017 	ldw	r2,0(r2)
     a80:	140000c4 	addi	r16,r2,3
     a84:	e0bffe17 	ldw	r2,-8(fp)
     a88:	1009883a 	mov	r4,r2
     a8c:	014001b4 	movhi	r5,6
     a90:	2946a004 	addi	r5,r5,6784
     a94:	00012040 	call	1204 <__udivsi3>
     a98:	80800025 	stbio	r2,0(r16)
    i2c_usleep(I2C_SLEEP_US);
     a9c:	0104e204 	movi	r4,5000
     aa0:	00008f00 	call	8f0 <i2c_usleep>
}
     aa4:	e6ffff04 	addi	sp,fp,-4
     aa8:	dfc00217 	ldw	ra,8(sp)
     aac:	df000117 	ldw	fp,4(sp)
     ab0:	dc000017 	ldw	r16,0(sp)
     ab4:	dec00304 	addi	sp,sp,12
     ab8:	f800283a 	ret

00000abc <i2c_configure>:
 * Configure the controller.
 *
 * Setting the irq paramater to true enables interrupt generation at the end of
 * a read/write transfer, and false disables interrupt generation.
 */
void i2c_configure(i2c_dev *dev, bool irq) {
     abc:	defffc04 	addi	sp,sp,-16
     ac0:	df000315 	stw	fp,12(sp)
     ac4:	df000304 	addi	fp,sp,12
     ac8:	e13ffe15 	stw	r4,-8(fp)
     acc:	2805883a 	mov	r2,r5
     ad0:	e0bfff05 	stb	r2,-4(fp)
    uint32_t config = 0;
     ad4:	e03ffd15 	stw	zero,-12(fp)

    if (irq) {
     ad8:	e0bfff03 	ldbu	r2,-4(fp)
     adc:	10000426 	beq	r2,zero,af0 <i2c_configure+0x34>
        config |= I2C_CONTROL_INTERRUPT_ENABLE_MSK;
     ae0:	e0bffd17 	ldw	r2,-12(fp)
     ae4:	10800814 	ori	r2,r2,32
     ae8:	e0bffd15 	stw	r2,-12(fp)
     aec:	00000406 	br	b00 <i2c_configure+0x44>
    } else {
        config &= ~I2C_CONTROL_INTERRUPT_ENABLE_MSK;
     af0:	e0fffd17 	ldw	r3,-12(fp)
     af4:	00bff7c4 	movi	r2,-33
     af8:	1884703a 	and	r2,r3,r2
     afc:	e0bffd15 	stw	r2,-12(fp)
    }

    I2C_WR_CONTROL(dev->base, I2C_CONTROL_GENERATE_STOP_SEQUENCE_MSK);
     b00:	e0bffe17 	ldw	r2,-8(fp)
     b04:	10800017 	ldw	r2,0(r2)
     b08:	10800044 	addi	r2,r2,1
     b0c:	00c00084 	movi	r3,2
     b10:	10c00025 	stbio	r3,0(r2)
    I2C_WR_CONTROL(dev->base, config);
     b14:	e0bffe17 	ldw	r2,-8(fp)
     b18:	10800017 	ldw	r2,0(r2)
     b1c:	10800044 	addi	r2,r2,1
     b20:	e0fffd17 	ldw	r3,-12(fp)
     b24:	10c00025 	stbio	r3,0(r2)
}
     b28:	e037883a 	mov	sp,fp
     b2c:	df000017 	ldw	fp,0(sp)
     b30:	dec00104 	addi	sp,sp,4
     b34:	f800283a 	ret

00000b38 <i2c_write>:
 *
 * Returns: I2C_SUCCESS -> success
 *          I2C_ENODEV  -> device does not answer
 *          I2C_EBADACK -> bad acknowledge received
 */
int i2c_write(i2c_dev *dev, uint8_t device, uint8_t index, uint8_t value) {
     b38:	defffa04 	addi	sp,sp,-24
     b3c:	dfc00515 	stw	ra,20(sp)
     b40:	df000415 	stw	fp,16(sp)
     b44:	df000404 	addi	fp,sp,16
     b48:	e13ffc15 	stw	r4,-16(fp)
     b4c:	2809883a 	mov	r4,r5
     b50:	3007883a 	mov	r3,r6
     b54:	3805883a 	mov	r2,r7
     b58:	e13ffd05 	stb	r4,-12(fp)
     b5c:	e0fffe05 	stb	r3,-8(fp)
     b60:	e0bfff05 	stb	r2,-4(fp)
    /* write to the device with the R/W bit set to 0 (write mode) */
    i2c_set_data_control(dev, device & 0xFE, I2C_CONTROL_GENERATE_START_SEQUENCE_MSK | I2C_CONTROL_WRITE_COMMAND_MSK);
     b64:	e0bffd03 	ldbu	r2,-12(fp)
     b68:	10803f8c 	andi	r2,r2,254
     b6c:	e13ffc17 	ldw	r4,-16(fp)
     b70:	100b883a 	mov	r5,r2
     b74:	01800504 	movi	r6,20
     b78:	00009600 	call	960 <i2c_set_data_control>

    /* error: device does not answer */
    if (I2C_RD_STATUS(dev->base) & I2C_STATUS_LAST_ACKNOWLEDGE_RECEIVED_MSK) {
     b7c:	e0bffc17 	ldw	r2,-16(fp)
     b80:	10800017 	ldw	r2,0(r2)
     b84:	10800084 	addi	r2,r2,2
     b88:	10800023 	ldbuio	r2,0(r2)
     b8c:	10803fcc 	andi	r2,r2,255
     b90:	1080004c 	andi	r2,r2,1
     b94:	10000726 	beq	r2,zero,bb4 <i2c_write+0x7c>
        I2C_WR_CONTROL(dev->base, I2C_CONTROL_GENERATE_STOP_SEQUENCE_MSK);
     b98:	e0bffc17 	ldw	r2,-16(fp)
     b9c:	10800017 	ldw	r2,0(r2)
     ba0:	10800044 	addi	r2,r2,1
     ba4:	00c00084 	movi	r3,2
     ba8:	10c00025 	stbio	r3,0(r2)
        return I2C_ENODEV;
     bac:	00800044 	movi	r2,1
     bb0:	00002706 	br	c50 <i2c_write+0x118>
    }

    /* write register index to device */
    i2c_set_data_control(dev, index, I2C_CONTROL_WRITE_COMMAND_MSK);
     bb4:	e0bffe03 	ldbu	r2,-8(fp)
     bb8:	e13ffc17 	ldw	r4,-16(fp)
     bbc:	100b883a 	mov	r5,r2
     bc0:	01800404 	movi	r6,16
     bc4:	00009600 	call	960 <i2c_set_data_control>

    /* error: bad acknowledge */
    if (I2C_RD_STATUS(dev->base) & I2C_STATUS_LAST_ACKNOWLEDGE_RECEIVED_MSK) {
     bc8:	e0bffc17 	ldw	r2,-16(fp)
     bcc:	10800017 	ldw	r2,0(r2)
     bd0:	10800084 	addi	r2,r2,2
     bd4:	10800023 	ldbuio	r2,0(r2)
     bd8:	10803fcc 	andi	r2,r2,255
     bdc:	1080004c 	andi	r2,r2,1
     be0:	10000726 	beq	r2,zero,c00 <i2c_write+0xc8>
        I2C_WR_CONTROL(dev->base, I2C_CONTROL_GENERATE_STOP_SEQUENCE_MSK);
     be4:	e0bffc17 	ldw	r2,-16(fp)
     be8:	10800017 	ldw	r2,0(r2)
     bec:	10800044 	addi	r2,r2,1
     bf0:	00c00084 	movi	r3,2
     bf4:	10c00025 	stbio	r3,0(r2)
        return I2C_EBADACK;
     bf8:	00800084 	movi	r2,2
     bfc:	00001406 	br	c50 <i2c_write+0x118>
    }

    /* write register data to device */
    i2c_set_data_control(dev, value, I2C_CONTROL_GENERATE_STOP_SEQUENCE_MSK | I2C_CONTROL_WRITE_COMMAND_MSK);
     c00:	e0bfff03 	ldbu	r2,-4(fp)
     c04:	e13ffc17 	ldw	r4,-16(fp)
     c08:	100b883a 	mov	r5,r2
     c0c:	01800484 	movi	r6,18
     c10:	00009600 	call	960 <i2c_set_data_control>

    /* error: bad acknowledge */
    if (I2C_RD_STATUS(dev->base) & I2C_STATUS_LAST_ACKNOWLEDGE_RECEIVED_MSK) {
     c14:	e0bffc17 	ldw	r2,-16(fp)
     c18:	10800017 	ldw	r2,0(r2)
     c1c:	10800084 	addi	r2,r2,2
     c20:	10800023 	ldbuio	r2,0(r2)
     c24:	10803fcc 	andi	r2,r2,255
     c28:	1080004c 	andi	r2,r2,1
     c2c:	10000726 	beq	r2,zero,c4c <i2c_write+0x114>
        I2C_WR_CONTROL(dev->base, I2C_CONTROL_GENERATE_STOP_SEQUENCE_MSK);
     c30:	e0bffc17 	ldw	r2,-16(fp)
     c34:	10800017 	ldw	r2,0(r2)
     c38:	10800044 	addi	r2,r2,1
     c3c:	00c00084 	movi	r3,2
     c40:	10c00025 	stbio	r3,0(r2)
        return I2C_EBADACK;
     c44:	00800084 	movi	r2,2
     c48:	00000106 	br	c50 <i2c_write+0x118>
    }

    return I2C_SUCCESS;
     c4c:	0005883a 	mov	r2,zero
}
     c50:	e037883a 	mov	sp,fp
     c54:	dfc00117 	ldw	ra,4(sp)
     c58:	df000017 	ldw	fp,0(sp)
     c5c:	dec00204 	addi	sp,sp,8
     c60:	f800283a 	ret

00000c64 <i2c_read>:
 *
 * Returns: I2C_SUCCESS -> success
 *          I2C_ENODEV  -> device does not answer
 *          I2C_EBADACK -> bad acknowledge received
 */
int i2c_read(i2c_dev *dev, uint8_t device, uint8_t index, uint8_t *value) {
     c64:	defffa04 	addi	sp,sp,-24
     c68:	dfc00515 	stw	ra,20(sp)
     c6c:	df000415 	stw	fp,16(sp)
     c70:	df000404 	addi	fp,sp,16
     c74:	e13ffc15 	stw	r4,-16(fp)
     c78:	2807883a 	mov	r3,r5
     c7c:	3005883a 	mov	r2,r6
     c80:	e1ffff15 	stw	r7,-4(fp)
     c84:	e0fffd05 	stb	r3,-12(fp)
     c88:	e0bffe05 	stb	r2,-8(fp)
    /* write to the device with the R/W bit set to 0 (write mode) */
    i2c_set_data_control(dev, device & 0xFE, I2C_CONTROL_GENERATE_START_SEQUENCE_MSK | I2C_CONTROL_WRITE_COMMAND_MSK);
     c8c:	e0bffd03 	ldbu	r2,-12(fp)
     c90:	10803f8c 	andi	r2,r2,254
     c94:	e13ffc17 	ldw	r4,-16(fp)
     c98:	100b883a 	mov	r5,r2
     c9c:	01800504 	movi	r6,20
     ca0:	00009600 	call	960 <i2c_set_data_control>

    /* error: device does not answer */
    if (I2C_RD_STATUS(dev->base) & I2C_STATUS_LAST_ACKNOWLEDGE_RECEIVED_MSK) {
     ca4:	e0bffc17 	ldw	r2,-16(fp)
     ca8:	10800017 	ldw	r2,0(r2)
     cac:	10800084 	addi	r2,r2,2
     cb0:	10800023 	ldbuio	r2,0(r2)
     cb4:	10803fcc 	andi	r2,r2,255
     cb8:	1080004c 	andi	r2,r2,1
     cbc:	10000726 	beq	r2,zero,cdc <i2c_read+0x78>
        I2C_WR_CONTROL(dev->base, I2C_CONTROL_GENERATE_STOP_SEQUENCE_MSK);
     cc0:	e0bffc17 	ldw	r2,-16(fp)
     cc4:	10800017 	ldw	r2,0(r2)
     cc8:	10800044 	addi	r2,r2,1
     ccc:	00c00084 	movi	r3,2
     cd0:	10c00025 	stbio	r3,0(r2)
        return I2C_ENODEV;
     cd4:	00800044 	movi	r2,1
     cd8:	00002f06 	br	d98 <i2c_read+0x134>
    }

    /* write register index to device */
    i2c_set_data_control(dev, index, I2C_CONTROL_WRITE_COMMAND_MSK);
     cdc:	e0bffe03 	ldbu	r2,-8(fp)
     ce0:	e13ffc17 	ldw	r4,-16(fp)
     ce4:	100b883a 	mov	r5,r2
     ce8:	01800404 	movi	r6,16
     cec:	00009600 	call	960 <i2c_set_data_control>

    /* error: bad acknowledge */
    if (I2C_RD_STATUS(dev->base) & I2C_STATUS_LAST_ACKNOWLEDGE_RECEIVED_MSK) {
     cf0:	e0bffc17 	ldw	r2,-16(fp)
     cf4:	10800017 	ldw	r2,0(r2)
     cf8:	10800084 	addi	r2,r2,2
     cfc:	10800023 	ldbuio	r2,0(r2)
     d00:	10803fcc 	andi	r2,r2,255
     d04:	1080004c 	andi	r2,r2,1
     d08:	10000726 	beq	r2,zero,d28 <i2c_read+0xc4>
        I2C_WR_CONTROL(dev->base, I2C_CONTROL_GENERATE_STOP_SEQUENCE_MSK);
     d0c:	e0bffc17 	ldw	r2,-16(fp)
     d10:	10800017 	ldw	r2,0(r2)
     d14:	10800044 	addi	r2,r2,1
     d18:	00c00084 	movi	r3,2
     d1c:	10c00025 	stbio	r3,0(r2)
        return I2C_EBADACK;
     d20:	00800084 	movi	r2,2
     d24:	00001c06 	br	d98 <i2c_read+0x134>
    }

    /* write to the device with the R/W bit set to 1 (read mode) */
    i2c_set_data_control(dev, device | 0x01, I2C_CONTROL_GENERATE_START_SEQUENCE_MSK | I2C_CONTROL_WRITE_COMMAND_MSK);
     d28:	e0bffd03 	ldbu	r2,-12(fp)
     d2c:	10800054 	ori	r2,r2,1
     d30:	10803fcc 	andi	r2,r2,255
     d34:	e13ffc17 	ldw	r4,-16(fp)
     d38:	100b883a 	mov	r5,r2
     d3c:	01800504 	movi	r6,20
     d40:	00009600 	call	960 <i2c_set_data_control>

    /* error: device does not answer */
    if (I2C_RD_STATUS(dev->base) & I2C_STATUS_LAST_ACKNOWLEDGE_RECEIVED_MSK) {
     d44:	e0bffc17 	ldw	r2,-16(fp)
     d48:	10800017 	ldw	r2,0(r2)
     d4c:	10800084 	addi	r2,r2,2
     d50:	10800023 	ldbuio	r2,0(r2)
     d54:	10803fcc 	andi	r2,r2,255
     d58:	1080004c 	andi	r2,r2,1
     d5c:	10000726 	beq	r2,zero,d7c <i2c_read+0x118>
        I2C_WR_CONTROL(dev->base, I2C_CONTROL_GENERATE_STOP_SEQUENCE_MSK);
     d60:	e0bffc17 	ldw	r2,-16(fp)
     d64:	10800017 	ldw	r2,0(r2)
     d68:	10800044 	addi	r2,r2,1
     d6c:	00c00084 	movi	r3,2
     d70:	10c00025 	stbio	r3,0(r2)
        return I2C_ENODEV;
     d74:	00800044 	movi	r2,1
     d78:	00000706 	br	d98 <i2c_read+0x134>
    }

    /* Read the data. Attention: write I2C_CONTROL_ACKNOWLEDGE_READ_MSK to control register to send a N0_ACK */
    *value = i2c_get_data_set_control(dev, I2C_CONTROL_GENERATE_STOP_SEQUENCE_MSK | I2C_CONTROL_READ_COMMAND_MSK | I2C_CONTROL_ACKNOWLEDGE_READ_MSK);
     d7c:	e13ffc17 	ldw	r4,-16(fp)
     d80:	014002c4 	movi	r5,11
     d84:	00009cc0 	call	9cc <i2c_get_data_set_control>
     d88:	1007883a 	mov	r3,r2
     d8c:	e0bfff17 	ldw	r2,-4(fp)
     d90:	10c00005 	stb	r3,0(r2)

    return I2C_SUCCESS;
     d94:	0005883a 	mov	r2,zero
}
     d98:	e037883a 	mov	sp,fp
     d9c:	dfc00117 	ldw	ra,4(sp)
     da0:	df000017 	ldw	fp,0(sp)
     da4:	dec00204 	addi	sp,sp,8
     da8:	f800283a 	ret

00000dac <i2c_write_array>:
 *
 * Returns: I2C_SUCCESS -> success
 *          I2C_ENODEV  -> device does not answer
 *          I2C_EBADACK -> bad acknowledge received
 */
int i2c_write_array(i2c_dev *dev, uint8_t device, uint8_t index, uint8_t *value, unsigned int size) {
     dac:	defff904 	addi	sp,sp,-28
     db0:	dfc00615 	stw	ra,24(sp)
     db4:	df000515 	stw	fp,20(sp)
     db8:	df000504 	addi	fp,sp,20
     dbc:	e13ffc15 	stw	r4,-16(fp)
     dc0:	2807883a 	mov	r3,r5
     dc4:	3005883a 	mov	r2,r6
     dc8:	e1ffff15 	stw	r7,-4(fp)
     dcc:	e0fffd05 	stb	r3,-12(fp)
     dd0:	e0bffe05 	stb	r2,-8(fp)
    /* write to the device with the R/W bit set to 0 (write mode) */
    i2c_set_data_control(dev, device & 0xFE, I2C_CONTROL_GENERATE_START_SEQUENCE_MSK | I2C_CONTROL_WRITE_COMMAND_MSK);
     dd4:	e0bffd03 	ldbu	r2,-12(fp)
     dd8:	10803f8c 	andi	r2,r2,254
     ddc:	e13ffc17 	ldw	r4,-16(fp)
     de0:	100b883a 	mov	r5,r2
     de4:	01800504 	movi	r6,20
     de8:	00009600 	call	960 <i2c_set_data_control>

    /* error: device does not answer */
    if (I2C_RD_STATUS(dev->base) & I2C_STATUS_LAST_ACKNOWLEDGE_RECEIVED_MSK) {
     dec:	e0bffc17 	ldw	r2,-16(fp)
     df0:	10800017 	ldw	r2,0(r2)
     df4:	10800084 	addi	r2,r2,2
     df8:	10800023 	ldbuio	r2,0(r2)
     dfc:	10803fcc 	andi	r2,r2,255
     e00:	1080004c 	andi	r2,r2,1
     e04:	10000726 	beq	r2,zero,e24 <i2c_write_array+0x78>
        I2C_WR_CONTROL(dev->base, I2C_CONTROL_GENERATE_STOP_SEQUENCE_MSK);
     e08:	e0bffc17 	ldw	r2,-16(fp)
     e0c:	10800017 	ldw	r2,0(r2)
     e10:	10800044 	addi	r2,r2,1
     e14:	00c00084 	movi	r3,2
     e18:	10c00025 	stbio	r3,0(r2)
        return I2C_ENODEV;
     e1c:	00800044 	movi	r2,1
     e20:	00004206 	br	f2c <i2c_write_array+0x180>
    }

    /* write register index to device */
    i2c_set_data_control(dev, index, I2C_CONTROL_WRITE_COMMAND_MSK);
     e24:	e0bffe03 	ldbu	r2,-8(fp)
     e28:	e13ffc17 	ldw	r4,-16(fp)
     e2c:	100b883a 	mov	r5,r2
     e30:	01800404 	movi	r6,16
     e34:	00009600 	call	960 <i2c_set_data_control>

    /* error: bad acknowledge */
    if (I2C_RD_STATUS(dev->base) & I2C_STATUS_LAST_ACKNOWLEDGE_RECEIVED_MSK) {
     e38:	e0bffc17 	ldw	r2,-16(fp)
     e3c:	10800017 	ldw	r2,0(r2)
     e40:	10800084 	addi	r2,r2,2
     e44:	10800023 	ldbuio	r2,0(r2)
     e48:	10803fcc 	andi	r2,r2,255
     e4c:	1080004c 	andi	r2,r2,1
     e50:	10000726 	beq	r2,zero,e70 <i2c_write_array+0xc4>
        I2C_WR_CONTROL(dev->base, I2C_CONTROL_GENERATE_STOP_SEQUENCE_MSK);
     e54:	e0bffc17 	ldw	r2,-16(fp)
     e58:	10800017 	ldw	r2,0(r2)
     e5c:	10800044 	addi	r2,r2,1
     e60:	00c00084 	movi	r3,2
     e64:	10c00025 	stbio	r3,0(r2)
        return I2C_EBADACK;
     e68:	00800084 	movi	r2,2
     e6c:	00002f06 	br	f2c <i2c_write_array+0x180>
    }

    unsigned int i = 0;
     e70:	e03ffb15 	stw	zero,-20(fp)
    for (i = 0; i < size; i++) {
     e74:	e03ffb15 	stw	zero,-20(fp)
     e78:	00002806 	br	f1c <i2c_write_array+0x170>
        /* write register data to device */
        if (i < size - 1) {
     e7c:	e0800217 	ldw	r2,8(fp)
     e80:	10bfffc4 	addi	r2,r2,-1
     e84:	e0fffb17 	ldw	r3,-20(fp)
     e88:	18800a2e 	bgeu	r3,r2,eb4 <i2c_write_array+0x108>
            i2c_set_data_control(dev, value[i], I2C_CONTROL_WRITE_COMMAND_MSK);
     e8c:	e0ffff17 	ldw	r3,-4(fp)
     e90:	e0bffb17 	ldw	r2,-20(fp)
     e94:	1885883a 	add	r2,r3,r2
     e98:	10800003 	ldbu	r2,0(r2)
     e9c:	10803fcc 	andi	r2,r2,255
     ea0:	e13ffc17 	ldw	r4,-16(fp)
     ea4:	100b883a 	mov	r5,r2
     ea8:	01800404 	movi	r6,16
     eac:	00009600 	call	960 <i2c_set_data_control>
     eb0:	00000906 	br	ed8 <i2c_write_array+0x12c>
        } else {
            i2c_set_data_control(dev, value[i], I2C_CONTROL_GENERATE_STOP_SEQUENCE_MSK | I2C_CONTROL_WRITE_COMMAND_MSK);
     eb4:	e0ffff17 	ldw	r3,-4(fp)
     eb8:	e0bffb17 	ldw	r2,-20(fp)
     ebc:	1885883a 	add	r2,r3,r2
     ec0:	10800003 	ldbu	r2,0(r2)
     ec4:	10803fcc 	andi	r2,r2,255
     ec8:	e13ffc17 	ldw	r4,-16(fp)
     ecc:	100b883a 	mov	r5,r2
     ed0:	01800484 	movi	r6,18
     ed4:	00009600 	call	960 <i2c_set_data_control>

        }

        /* error: bad acknowledge */
        if (I2C_RD_STATUS(dev->base) & I2C_STATUS_LAST_ACKNOWLEDGE_RECEIVED_MSK) {
     ed8:	e0bffc17 	ldw	r2,-16(fp)
     edc:	10800017 	ldw	r2,0(r2)
     ee0:	10800084 	addi	r2,r2,2
     ee4:	10800023 	ldbuio	r2,0(r2)
     ee8:	10803fcc 	andi	r2,r2,255
     eec:	1080004c 	andi	r2,r2,1
     ef0:	10000726 	beq	r2,zero,f10 <i2c_write_array+0x164>
            I2C_WR_CONTROL(dev->base, I2C_CONTROL_GENERATE_STOP_SEQUENCE_MSK);
     ef4:	e0bffc17 	ldw	r2,-16(fp)
     ef8:	10800017 	ldw	r2,0(r2)
     efc:	10800044 	addi	r2,r2,1
     f00:	00c00084 	movi	r3,2
     f04:	10c00025 	stbio	r3,0(r2)
            return I2C_EBADACK;
     f08:	00800084 	movi	r2,2
     f0c:	00000706 	br	f2c <i2c_write_array+0x180>
        I2C_WR_CONTROL(dev->base, I2C_CONTROL_GENERATE_STOP_SEQUENCE_MSK);
        return I2C_EBADACK;
    }

    unsigned int i = 0;
    for (i = 0; i < size; i++) {
     f10:	e0bffb17 	ldw	r2,-20(fp)
     f14:	10800044 	addi	r2,r2,1
     f18:	e0bffb15 	stw	r2,-20(fp)
     f1c:	e0fffb17 	ldw	r3,-20(fp)
     f20:	e0800217 	ldw	r2,8(fp)
     f24:	18bfd536 	bltu	r3,r2,e7c <i2c_write_array+0xd0>
            I2C_WR_CONTROL(dev->base, I2C_CONTROL_GENERATE_STOP_SEQUENCE_MSK);
            return I2C_EBADACK;
        }
    }

    return I2C_SUCCESS;
     f28:	0005883a 	mov	r2,zero
}
     f2c:	e037883a 	mov	sp,fp
     f30:	dfc00117 	ldw	ra,4(sp)
     f34:	df000017 	ldw	fp,0(sp)
     f38:	dec00204 	addi	sp,sp,8
     f3c:	f800283a 	ret

00000f40 <i2c_read_array>:
 *
 * Returns: I2C_SUCCESS -> success
 *          I2C_ENODEV  -> device does not answer
 *          I2C_EBADACK -> bad acknowledge received
 */
int i2c_read_array(i2c_dev *dev, uint8_t device, uint8_t index, uint8_t *value, unsigned int size) {
     f40:	defff804 	addi	sp,sp,-32
     f44:	dfc00715 	stw	ra,28(sp)
     f48:	df000615 	stw	fp,24(sp)
     f4c:	dc000515 	stw	r16,20(sp)
     f50:	df000604 	addi	fp,sp,24
     f54:	e13ffb15 	stw	r4,-20(fp)
     f58:	2807883a 	mov	r3,r5
     f5c:	3005883a 	mov	r2,r6
     f60:	e1fffe15 	stw	r7,-8(fp)
     f64:	e0fffc05 	stb	r3,-16(fp)
     f68:	e0bffd05 	stb	r2,-12(fp)
    /* write to the device with the R/W bit set to 0 (write mode) */
    i2c_set_data_control(dev, device & 0xFE, I2C_CONTROL_GENERATE_START_SEQUENCE_MSK | I2C_CONTROL_WRITE_COMMAND_MSK);
     f6c:	e0bffc03 	ldbu	r2,-16(fp)
     f70:	10803f8c 	andi	r2,r2,254
     f74:	e13ffb17 	ldw	r4,-20(fp)
     f78:	100b883a 	mov	r5,r2
     f7c:	01800504 	movi	r6,20
     f80:	00009600 	call	960 <i2c_set_data_control>

    /* error: device does not answer */
    if (I2C_RD_STATUS(dev->base) & I2C_STATUS_LAST_ACKNOWLEDGE_RECEIVED_MSK) {
     f84:	e0bffb17 	ldw	r2,-20(fp)
     f88:	10800017 	ldw	r2,0(r2)
     f8c:	10800084 	addi	r2,r2,2
     f90:	10800023 	ldbuio	r2,0(r2)
     f94:	10803fcc 	andi	r2,r2,255
     f98:	1080004c 	andi	r2,r2,1
     f9c:	10000726 	beq	r2,zero,fbc <i2c_read_array+0x7c>
        I2C_WR_CONTROL(dev->base, I2C_CONTROL_GENERATE_STOP_SEQUENCE_MSK);
     fa0:	e0bffb17 	ldw	r2,-20(fp)
     fa4:	10800017 	ldw	r2,0(r2)
     fa8:	10800044 	addi	r2,r2,1
     fac:	00c00084 	movi	r3,2
     fb0:	10c00025 	stbio	r3,0(r2)
        return I2C_ENODEV;
     fb4:	00800044 	movi	r2,1
     fb8:	00004506 	br	10d0 <i2c_read_array+0x190>
    }

    /* write register index to device */
    i2c_set_data_control(dev, index, I2C_CONTROL_WRITE_COMMAND_MSK);
     fbc:	e0bffd03 	ldbu	r2,-12(fp)
     fc0:	e13ffb17 	ldw	r4,-20(fp)
     fc4:	100b883a 	mov	r5,r2
     fc8:	01800404 	movi	r6,16
     fcc:	00009600 	call	960 <i2c_set_data_control>

    /* error: bad acknowledge */
    if (I2C_RD_STATUS(dev->base) & I2C_STATUS_LAST_ACKNOWLEDGE_RECEIVED_MSK) {
     fd0:	e0bffb17 	ldw	r2,-20(fp)
     fd4:	10800017 	ldw	r2,0(r2)
     fd8:	10800084 	addi	r2,r2,2
     fdc:	10800023 	ldbuio	r2,0(r2)
     fe0:	10803fcc 	andi	r2,r2,255
     fe4:	1080004c 	andi	r2,r2,1
     fe8:	10000726 	beq	r2,zero,1008 <i2c_read_array+0xc8>
        I2C_WR_CONTROL(dev->base, I2C_CONTROL_GENERATE_STOP_SEQUENCE_MSK);
     fec:	e0bffb17 	ldw	r2,-20(fp)
     ff0:	10800017 	ldw	r2,0(r2)
     ff4:	10800044 	addi	r2,r2,1
     ff8:	00c00084 	movi	r3,2
     ffc:	10c00025 	stbio	r3,0(r2)
        return I2C_EBADACK;
    1000:	00800084 	movi	r2,2
    1004:	00003206 	br	10d0 <i2c_read_array+0x190>
    }

    /* write to the device with the R/W bit set to 1 (read mode) */
    i2c_set_data_control(dev, device | 0x01, I2C_CONTROL_GENERATE_START_SEQUENCE_MSK | I2C_CONTROL_WRITE_COMMAND_MSK);
    1008:	e0bffc03 	ldbu	r2,-16(fp)
    100c:	10800054 	ori	r2,r2,1
    1010:	10803fcc 	andi	r2,r2,255
    1014:	e13ffb17 	ldw	r4,-20(fp)
    1018:	100b883a 	mov	r5,r2
    101c:	01800504 	movi	r6,20
    1020:	00009600 	call	960 <i2c_set_data_control>

    /* error: device does not answer */
    if (I2C_RD_STATUS(dev->base) & I2C_STATUS_LAST_ACKNOWLEDGE_RECEIVED_MSK) {
    1024:	e0bffb17 	ldw	r2,-20(fp)
    1028:	10800017 	ldw	r2,0(r2)
    102c:	10800084 	addi	r2,r2,2
    1030:	10800023 	ldbuio	r2,0(r2)
    1034:	10803fcc 	andi	r2,r2,255
    1038:	1080004c 	andi	r2,r2,1
    103c:	10000726 	beq	r2,zero,105c <i2c_read_array+0x11c>
        I2C_WR_CONTROL(dev->base, I2C_CONTROL_GENERATE_STOP_SEQUENCE_MSK);
    1040:	e0bffb17 	ldw	r2,-20(fp)
    1044:	10800017 	ldw	r2,0(r2)
    1048:	10800044 	addi	r2,r2,1
    104c:	00c00084 	movi	r3,2
    1050:	10c00025 	stbio	r3,0(r2)
        return I2C_ENODEV;
    1054:	00800044 	movi	r2,1
    1058:	00001d06 	br	10d0 <i2c_read_array+0x190>
    }

    unsigned int i = 0;
    105c:	e03ffa15 	stw	zero,-24(fp)
    for (i = 0; i < size; i++) {
    1060:	e03ffa15 	stw	zero,-24(fp)
    1064:	00001606 	br	10c0 <i2c_read_array+0x180>
        if (i < size - 1) {
    1068:	e0800217 	ldw	r2,8(fp)
    106c:	10bfffc4 	addi	r2,r2,-1
    1070:	e0fffa17 	ldw	r3,-24(fp)
    1074:	1880082e 	bgeu	r3,r2,1098 <i2c_read_array+0x158>
            value[i] = i2c_get_data_set_control(dev, I2C_CONTROL_READ_COMMAND_MSK);
    1078:	e0fffe17 	ldw	r3,-8(fp)
    107c:	e0bffa17 	ldw	r2,-24(fp)
    1080:	18a1883a 	add	r16,r3,r2
    1084:	e13ffb17 	ldw	r4,-20(fp)
    1088:	01400204 	movi	r5,8
    108c:	00009cc0 	call	9cc <i2c_get_data_set_control>
    1090:	80800005 	stb	r2,0(r16)
    1094:	00000706 	br	10b4 <i2c_read_array+0x174>
        } else {
            /* Read the data. Attention: write I2C_CONTROL_ACKNOWLEDGE_READ_MSK to control register to send a N0_ACK */
            value[i] = i2c_get_data_set_control(dev, I2C_CONTROL_GENERATE_STOP_SEQUENCE_MSK | I2C_CONTROL_READ_COMMAND_MSK | I2C_CONTROL_ACKNOWLEDGE_READ_MSK);
    1098:	e0fffe17 	ldw	r3,-8(fp)
    109c:	e0bffa17 	ldw	r2,-24(fp)
    10a0:	18a1883a 	add	r16,r3,r2
    10a4:	e13ffb17 	ldw	r4,-20(fp)
    10a8:	014002c4 	movi	r5,11
    10ac:	00009cc0 	call	9cc <i2c_get_data_set_control>
    10b0:	80800005 	stb	r2,0(r16)
        I2C_WR_CONTROL(dev->base, I2C_CONTROL_GENERATE_STOP_SEQUENCE_MSK);
        return I2C_ENODEV;
    }

    unsigned int i = 0;
    for (i = 0; i < size; i++) {
    10b4:	e0bffa17 	ldw	r2,-24(fp)
    10b8:	10800044 	addi	r2,r2,1
    10bc:	e0bffa15 	stw	r2,-24(fp)
    10c0:	e0fffa17 	ldw	r3,-24(fp)
    10c4:	e0800217 	ldw	r2,8(fp)
    10c8:	18bfe736 	bltu	r3,r2,1068 <i2c_read_array+0x128>
            /* Read the data. Attention: write I2C_CONTROL_ACKNOWLEDGE_READ_MSK to control register to send a N0_ACK */
            value[i] = i2c_get_data_set_control(dev, I2C_CONTROL_GENERATE_STOP_SEQUENCE_MSK | I2C_CONTROL_READ_COMMAND_MSK | I2C_CONTROL_ACKNOWLEDGE_READ_MSK);
        }
    }

    return I2C_SUCCESS;
    10cc:	0005883a 	mov	r2,zero
}
    10d0:	e6ffff04 	addi	sp,fp,-4
    10d4:	dfc00217 	ldw	ra,8(sp)
    10d8:	df000117 	ldw	fp,4(sp)
    10dc:	dc000017 	ldw	r16,0(sp)
    10e0:	dec00304 	addi	sp,sp,12
    10e4:	f800283a 	ret

000010e8 <udivmodsi4>:
    10e8:	2900182e 	bgeu	r5,r4,114c <udivmodsi4+0x64>
    10ec:	28001716 	blt	r5,zero,114c <udivmodsi4+0x64>
    10f0:	00800804 	movi	r2,32
    10f4:	00c00044 	movi	r3,1
    10f8:	00000206 	br	1104 <udivmodsi4+0x1c>
    10fc:	10001126 	beq	r2,zero,1144 <udivmodsi4+0x5c>
    1100:	28000516 	blt	r5,zero,1118 <udivmodsi4+0x30>
    1104:	294b883a 	add	r5,r5,r5
    1108:	10bfffc4 	addi	r2,r2,-1
    110c:	18c7883a 	add	r3,r3,r3
    1110:	293ffa36 	bltu	r5,r4,10fc <udivmodsi4+0x14>
    1114:	18000b26 	beq	r3,zero,1144 <udivmodsi4+0x5c>
    1118:	0005883a 	mov	r2,zero
    111c:	21400236 	bltu	r4,r5,1128 <udivmodsi4+0x40>
    1120:	2149c83a 	sub	r4,r4,r5
    1124:	10c4b03a 	or	r2,r2,r3
    1128:	1806d07a 	srli	r3,r3,1
    112c:	280ad07a 	srli	r5,r5,1
    1130:	183ffa1e 	bne	r3,zero,111c <udivmodsi4+0x34>
    1134:	3000011e 	bne	r6,zero,113c <udivmodsi4+0x54>
    1138:	f800283a 	ret
    113c:	2005883a 	mov	r2,r4
    1140:	f800283a 	ret
    1144:	0005883a 	mov	r2,zero
    1148:	003ffa06 	br	1134 <udivmodsi4+0x4c>
    114c:	00c00044 	movi	r3,1
    1150:	003ff106 	br	1118 <udivmodsi4+0x30>

00001154 <__divsi3>:
    1154:	defffe04 	addi	sp,sp,-8
    1158:	dfc00115 	stw	ra,4(sp)
    115c:	dc000015 	stw	r16,0(sp)
    1160:	20000b16 	blt	r4,zero,1190 <__divsi3+0x3c>
    1164:	0021883a 	mov	r16,zero
    1168:	28000c16 	blt	r5,zero,119c <__divsi3+0x48>
    116c:	000d883a 	mov	r6,zero
    1170:	00010e80 	call	10e8 <udivmodsi4>
    1174:	0407c83a 	sub	r3,zero,r16
    1178:	1884f03a 	xor	r2,r3,r2
    117c:	1405883a 	add	r2,r2,r16
    1180:	dfc00117 	ldw	ra,4(sp)
    1184:	dc000017 	ldw	r16,0(sp)
    1188:	dec00204 	addi	sp,sp,8
    118c:	f800283a 	ret
    1190:	0109c83a 	sub	r4,zero,r4
    1194:	04000044 	movi	r16,1
    1198:	283ff40e 	bge	r5,zero,116c <__divsi3+0x18>
    119c:	014bc83a 	sub	r5,zero,r5
    11a0:	8400005c 	xori	r16,r16,1
    11a4:	003ff106 	br	116c <__divsi3+0x18>

000011a8 <__modsi3>:
    11a8:	defffd04 	addi	sp,sp,-12
    11ac:	dfc00215 	stw	ra,8(sp)
    11b0:	dc400115 	stw	r17,4(sp)
    11b4:	dc000015 	stw	r16,0(sp)
    11b8:	20000c16 	blt	r4,zero,11ec <__modsi3+0x44>
    11bc:	0023883a 	mov	r17,zero
    11c0:	0021883a 	mov	r16,zero
    11c4:	28000d16 	blt	r5,zero,11fc <__modsi3+0x54>
    11c8:	01800044 	movi	r6,1
    11cc:	00010e80 	call	10e8 <udivmodsi4>
    11d0:	1404f03a 	xor	r2,r2,r16
    11d4:	8885883a 	add	r2,r17,r2
    11d8:	dfc00217 	ldw	ra,8(sp)
    11dc:	dc400117 	ldw	r17,4(sp)
    11e0:	dc000017 	ldw	r16,0(sp)
    11e4:	dec00304 	addi	sp,sp,12
    11e8:	f800283a 	ret
    11ec:	0109c83a 	sub	r4,zero,r4
    11f0:	04400044 	movi	r17,1
    11f4:	043fffc4 	movi	r16,-1
    11f8:	283ff30e 	bge	r5,zero,11c8 <__modsi3+0x20>
    11fc:	014bc83a 	sub	r5,zero,r5
    1200:	003ff106 	br	11c8 <__modsi3+0x20>

00001204 <__udivsi3>:
    1204:	000d883a 	mov	r6,zero
    1208:	00010e81 	jmpi	10e8 <udivmodsi4>

0000120c <__umodsi3>:
    120c:	01800044 	movi	r6,1
    1210:	00010e81 	jmpi	10e8 <udivmodsi4>

00001214 <calloc>:
    1214:	00c00074 	movhi	r3,1
    1218:	18c72b04 	addi	r3,r3,7340
    121c:	2005883a 	mov	r2,r4
    1220:	19000017 	ldw	r4,0(r3)
    1224:	280d883a 	mov	r6,r5
    1228:	100b883a 	mov	r5,r2
    122c:	00012301 	jmpi	1230 <_calloc_r>

00001230 <_calloc_r>:
    1230:	298b383a 	mul	r5,r5,r6
    1234:	defffe04 	addi	sp,sp,-8
    1238:	dc000015 	stw	r16,0(sp)
    123c:	dfc00115 	stw	ra,4(sp)
    1240:	00012f40 	call	12f4 <_malloc_r>
    1244:	1021883a 	mov	r16,r2
    1248:	10002826 	beq	r2,zero,12ec <_calloc_r+0xbc>
    124c:	11bfff17 	ldw	r6,-4(r2)
    1250:	00bfff04 	movi	r2,-4
    1254:	00c00904 	movi	r3,36
    1258:	308c703a 	and	r6,r6,r2
    125c:	308d883a 	add	r6,r6,r2
    1260:	19801436 	bltu	r3,r6,12b4 <_calloc_r+0x84>
    1264:	008004c4 	movi	r2,19
    1268:	11800936 	bltu	r2,r6,1290 <_calloc_r+0x60>
    126c:	8005883a 	mov	r2,r16
    1270:	10000015 	stw	zero,0(r2)
    1274:	10000115 	stw	zero,4(r2)
    1278:	10000215 	stw	zero,8(r2)
    127c:	8005883a 	mov	r2,r16
    1280:	dfc00117 	ldw	ra,4(sp)
    1284:	dc000017 	ldw	r16,0(sp)
    1288:	dec00204 	addi	sp,sp,8
    128c:	f800283a 	ret
    1290:	80000015 	stw	zero,0(r16)
    1294:	80000115 	stw	zero,4(r16)
    1298:	008006c4 	movi	r2,27
    129c:	11800d2e 	bgeu	r2,r6,12d4 <_calloc_r+0xa4>
    12a0:	80000215 	stw	zero,8(r16)
    12a4:	80000315 	stw	zero,12(r16)
    12a8:	30c00c26 	beq	r6,r3,12dc <_calloc_r+0xac>
    12ac:	80800404 	addi	r2,r16,16
    12b0:	003fef06 	br	1270 <_calloc_r+0x40>
    12b4:	8009883a 	mov	r4,r16
    12b8:	000b883a 	mov	r5,zero
    12bc:	0001a9c0 	call	1a9c <memset>
    12c0:	8005883a 	mov	r2,r16
    12c4:	dfc00117 	ldw	ra,4(sp)
    12c8:	dc000017 	ldw	r16,0(sp)
    12cc:	dec00204 	addi	sp,sp,8
    12d0:	f800283a 	ret
    12d4:	80800204 	addi	r2,r16,8
    12d8:	003fe506 	br	1270 <_calloc_r+0x40>
    12dc:	80000415 	stw	zero,16(r16)
    12e0:	80800604 	addi	r2,r16,24
    12e4:	80000515 	stw	zero,20(r16)
    12e8:	003fe106 	br	1270 <_calloc_r+0x40>
    12ec:	0005883a 	mov	r2,zero
    12f0:	003fe306 	br	1280 <_calloc_r+0x50>

000012f4 <_malloc_r>:
    12f4:	defff504 	addi	sp,sp,-44
    12f8:	dc800315 	stw	r18,12(sp)
    12fc:	dfc00a15 	stw	ra,40(sp)
    1300:	df000915 	stw	fp,36(sp)
    1304:	ddc00815 	stw	r23,32(sp)
    1308:	dd800715 	stw	r22,28(sp)
    130c:	dd400615 	stw	r21,24(sp)
    1310:	dd000515 	stw	r20,20(sp)
    1314:	dcc00415 	stw	r19,16(sp)
    1318:	dc400215 	stw	r17,8(sp)
    131c:	dc000115 	stw	r16,4(sp)
    1320:	288002c4 	addi	r2,r5,11
    1324:	00c00584 	movi	r3,22
    1328:	2025883a 	mov	r18,r4
    132c:	18802a2e 	bgeu	r3,r2,13d8 <_malloc_r+0xe4>
    1330:	047ffe04 	movi	r17,-8
    1334:	1462703a 	and	r17,r2,r17
    1338:	88009e16 	blt	r17,zero,15b4 <_malloc_r+0x2c0>
    133c:	89409d36 	bltu	r17,r5,15b4 <_malloc_r+0x2c0>
    1340:	000db8c0 	call	db8c <__malloc_lock>
    1344:	00807dc4 	movi	r2,503
    1348:	14402736 	bltu	r2,r17,13e8 <_malloc_r+0xf4>
    134c:	8806d0fa 	srli	r3,r17,3
    1350:	04c00074 	movhi	r19,1
    1354:	9cc18804 	addi	r19,r19,1568
    1358:	18c5883a 	add	r2,r3,r3
    135c:	1085883a 	add	r2,r2,r2
    1360:	1085883a 	add	r2,r2,r2
    1364:	9885883a 	add	r2,r19,r2
    1368:	14000317 	ldw	r16,12(r2)
    136c:	80814a26 	beq	r16,r2,1898 <_malloc_r+0x5a4>
    1370:	80c00117 	ldw	r3,4(r16)
    1374:	81000317 	ldw	r4,12(r16)
    1378:	00bfff04 	movi	r2,-4
    137c:	1884703a 	and	r2,r3,r2
    1380:	81400217 	ldw	r5,8(r16)
    1384:	8085883a 	add	r2,r16,r2
    1388:	10c00117 	ldw	r3,4(r2)
    138c:	29000315 	stw	r4,12(r5)
    1390:	21400215 	stw	r5,8(r4)
    1394:	18c00054 	ori	r3,r3,1
    1398:	10c00115 	stw	r3,4(r2)
    139c:	9009883a 	mov	r4,r18
    13a0:	000dbac0 	call	dbac <__malloc_unlock>
    13a4:	80800204 	addi	r2,r16,8
    13a8:	dfc00a17 	ldw	ra,40(sp)
    13ac:	df000917 	ldw	fp,36(sp)
    13b0:	ddc00817 	ldw	r23,32(sp)
    13b4:	dd800717 	ldw	r22,28(sp)
    13b8:	dd400617 	ldw	r21,24(sp)
    13bc:	dd000517 	ldw	r20,20(sp)
    13c0:	dcc00417 	ldw	r19,16(sp)
    13c4:	dc800317 	ldw	r18,12(sp)
    13c8:	dc400217 	ldw	r17,8(sp)
    13cc:	dc000117 	ldw	r16,4(sp)
    13d0:	dec00b04 	addi	sp,sp,44
    13d4:	f800283a 	ret
    13d8:	04400404 	movi	r17,16
    13dc:	89407536 	bltu	r17,r5,15b4 <_malloc_r+0x2c0>
    13e0:	000db8c0 	call	db8c <__malloc_lock>
    13e4:	003fd906 	br	134c <_malloc_r+0x58>
    13e8:	8806d27a 	srli	r3,r17,9
    13ec:	18007526 	beq	r3,zero,15c4 <_malloc_r+0x2d0>
    13f0:	00800104 	movi	r2,4
    13f4:	10c0ef36 	bltu	r2,r3,17b4 <_malloc_r+0x4c0>
    13f8:	8806d1ba 	srli	r3,r17,6
    13fc:	19c00e04 	addi	r7,r3,56
    1400:	39cb883a 	add	r5,r7,r7
    1404:	04c00074 	movhi	r19,1
    1408:	294b883a 	add	r5,r5,r5
    140c:	9cc18804 	addi	r19,r19,1568
    1410:	294b883a 	add	r5,r5,r5
    1414:	994b883a 	add	r5,r19,r5
    1418:	2c000317 	ldw	r16,12(r5)
    141c:	2c000e26 	beq	r5,r16,1458 <_malloc_r+0x164>
    1420:	80800117 	ldw	r2,4(r16)
    1424:	01bfff04 	movi	r6,-4
    1428:	010003c4 	movi	r4,15
    142c:	1184703a 	and	r2,r2,r6
    1430:	1447c83a 	sub	r3,r2,r17
    1434:	20c00716 	blt	r4,r3,1454 <_malloc_r+0x160>
    1438:	1800650e 	bge	r3,zero,15d0 <_malloc_r+0x2dc>
    143c:	84000317 	ldw	r16,12(r16)
    1440:	2c000526 	beq	r5,r16,1458 <_malloc_r+0x164>
    1444:	80800117 	ldw	r2,4(r16)
    1448:	1184703a 	and	r2,r2,r6
    144c:	1447c83a 	sub	r3,r2,r17
    1450:	20fff90e 	bge	r4,r3,1438 <_malloc_r+0x144>
    1454:	39ffffc4 	addi	r7,r7,-1
    1458:	38c00044 	addi	r3,r7,1
    145c:	01800074 	movhi	r6,1
    1460:	9c000417 	ldw	r16,16(r19)
    1464:	31818804 	addi	r6,r6,1568
    1468:	32400204 	addi	r9,r6,8
    146c:	82410326 	beq	r16,r9,187c <_malloc_r+0x588>
    1470:	81000117 	ldw	r4,4(r16)
    1474:	00bfff04 	movi	r2,-4
    1478:	208e703a 	and	r7,r4,r2
    147c:	3c45c83a 	sub	r2,r7,r17
    1480:	010003c4 	movi	r4,15
    1484:	2080ee16 	blt	r4,r2,1840 <_malloc_r+0x54c>
    1488:	32400515 	stw	r9,20(r6)
    148c:	32400415 	stw	r9,16(r6)
    1490:	1000510e 	bge	r2,zero,15d8 <_malloc_r+0x2e4>
    1494:	00807fc4 	movi	r2,511
    1498:	11c0ce36 	bltu	r2,r7,17d4 <_malloc_r+0x4e0>
    149c:	3808d0fa 	srli	r4,r7,3
    14a0:	01c00044 	movi	r7,1
    14a4:	30800117 	ldw	r2,4(r6)
    14a8:	210b883a 	add	r5,r4,r4
    14ac:	294b883a 	add	r5,r5,r5
    14b0:	2009d0ba 	srai	r4,r4,2
    14b4:	294b883a 	add	r5,r5,r5
    14b8:	298b883a 	add	r5,r5,r6
    14bc:	2a000217 	ldw	r8,8(r5)
    14c0:	3908983a 	sll	r4,r7,r4
    14c4:	81400315 	stw	r5,12(r16)
    14c8:	82000215 	stw	r8,8(r16)
    14cc:	2088b03a 	or	r4,r4,r2
    14d0:	2c000215 	stw	r16,8(r5)
    14d4:	31000115 	stw	r4,4(r6)
    14d8:	44000315 	stw	r16,12(r8)
    14dc:	1805d0ba 	srai	r2,r3,2
    14e0:	01400044 	movi	r5,1
    14e4:	288a983a 	sll	r5,r5,r2
    14e8:	21404336 	bltu	r4,r5,15f8 <_malloc_r+0x304>
    14ec:	2144703a 	and	r2,r4,r5
    14f0:	10000a1e 	bne	r2,zero,151c <_malloc_r+0x228>
    14f4:	00bfff04 	movi	r2,-4
    14f8:	294b883a 	add	r5,r5,r5
    14fc:	1886703a 	and	r3,r3,r2
    1500:	2144703a 	and	r2,r4,r5
    1504:	18c00104 	addi	r3,r3,4
    1508:	1000041e 	bne	r2,zero,151c <_malloc_r+0x228>
    150c:	294b883a 	add	r5,r5,r5
    1510:	2144703a 	and	r2,r4,r5
    1514:	18c00104 	addi	r3,r3,4
    1518:	103ffc26 	beq	r2,zero,150c <_malloc_r+0x218>
    151c:	023fff04 	movi	r8,-4
    1520:	01c003c4 	movi	r7,15
    1524:	18c5883a 	add	r2,r3,r3
    1528:	1085883a 	add	r2,r2,r2
    152c:	1085883a 	add	r2,r2,r2
    1530:	9895883a 	add	r10,r19,r2
    1534:	52c00304 	addi	r11,r10,12
    1538:	1819883a 	mov	r12,r3
    153c:	5c000017 	ldw	r16,0(r11)
    1540:	59bffd04 	addi	r6,r11,-12
    1544:	8180041e 	bne	r16,r6,1558 <_malloc_r+0x264>
    1548:	0000ce06 	br	1884 <_malloc_r+0x590>
    154c:	2000d70e 	bge	r4,zero,18ac <_malloc_r+0x5b8>
    1550:	84000317 	ldw	r16,12(r16)
    1554:	8180cb26 	beq	r16,r6,1884 <_malloc_r+0x590>
    1558:	80800117 	ldw	r2,4(r16)
    155c:	1204703a 	and	r2,r2,r8
    1560:	1449c83a 	sub	r4,r2,r17
    1564:	393ff90e 	bge	r7,r4,154c <_malloc_r+0x258>
    1568:	80800317 	ldw	r2,12(r16)
    156c:	80c00217 	ldw	r3,8(r16)
    1570:	89400054 	ori	r5,r17,1
    1574:	81400115 	stw	r5,4(r16)
    1578:	18800315 	stw	r2,12(r3)
    157c:	10c00215 	stw	r3,8(r2)
    1580:	8463883a 	add	r17,r16,r17
    1584:	9c400515 	stw	r17,20(r19)
    1588:	9c400415 	stw	r17,16(r19)
    158c:	20800054 	ori	r2,r4,1
    1590:	88800115 	stw	r2,4(r17)
    1594:	8a400315 	stw	r9,12(r17)
    1598:	8a400215 	stw	r9,8(r17)
    159c:	8923883a 	add	r17,r17,r4
    15a0:	89000015 	stw	r4,0(r17)
    15a4:	9009883a 	mov	r4,r18
    15a8:	000dbac0 	call	dbac <__malloc_unlock>
    15ac:	80800204 	addi	r2,r16,8
    15b0:	003f7d06 	br	13a8 <_malloc_r+0xb4>
    15b4:	00800304 	movi	r2,12
    15b8:	90800015 	stw	r2,0(r18)
    15bc:	0005883a 	mov	r2,zero
    15c0:	003f7906 	br	13a8 <_malloc_r+0xb4>
    15c4:	01401f84 	movi	r5,126
    15c8:	01c00fc4 	movi	r7,63
    15cc:	003f8d06 	br	1404 <_malloc_r+0x110>
    15d0:	81000317 	ldw	r4,12(r16)
    15d4:	003f6a06 	br	1380 <_malloc_r+0x8c>
    15d8:	81c5883a 	add	r2,r16,r7
    15dc:	10c00117 	ldw	r3,4(r2)
    15e0:	9009883a 	mov	r4,r18
    15e4:	18c00054 	ori	r3,r3,1
    15e8:	10c00115 	stw	r3,4(r2)
    15ec:	000dbac0 	call	dbac <__malloc_unlock>
    15f0:	80800204 	addi	r2,r16,8
    15f4:	003f6c06 	br	13a8 <_malloc_r+0xb4>
    15f8:	9c000217 	ldw	r16,8(r19)
    15fc:	00bfff04 	movi	r2,-4
    1600:	85800117 	ldw	r22,4(r16)
    1604:	b0ac703a 	and	r22,r22,r2
    1608:	b4400336 	bltu	r22,r17,1618 <_malloc_r+0x324>
    160c:	b445c83a 	sub	r2,r22,r17
    1610:	00c003c4 	movi	r3,15
    1614:	18805d16 	blt	r3,r2,178c <_malloc_r+0x498>
    1618:	05c00074 	movhi	r23,1
    161c:	00800074 	movhi	r2,1
    1620:	bdc72c04 	addi	r23,r23,7344
    1624:	108df704 	addi	r2,r2,14300
    1628:	15400017 	ldw	r21,0(r2)
    162c:	b9000017 	ldw	r4,0(r23)
    1630:	00ffffc4 	movi	r3,-1
    1634:	858d883a 	add	r6,r16,r22
    1638:	8d6b883a 	add	r21,r17,r21
    163c:	20c0e426 	beq	r4,r3,19d0 <_malloc_r+0x6dc>
    1640:	ad4403c4 	addi	r21,r21,4111
    1644:	00fc0004 	movi	r3,-4096
    1648:	a8ea703a 	and	r21,r21,r3
    164c:	9009883a 	mov	r4,r18
    1650:	a80b883a 	mov	r5,r21
    1654:	d9800015 	stw	r6,0(sp)
    1658:	0001e5c0 	call	1e5c <_sbrk_r>
    165c:	00ffffc4 	movi	r3,-1
    1660:	1029883a 	mov	r20,r2
    1664:	d9800017 	ldw	r6,0(sp)
    1668:	10c0a426 	beq	r2,r3,18fc <_malloc_r+0x608>
    166c:	1180a236 	bltu	r2,r6,18f8 <_malloc_r+0x604>
    1670:	07000074 	movhi	fp,1
    1674:	e70e0204 	addi	fp,fp,14344
    1678:	e0c00017 	ldw	r3,0(fp)
    167c:	a8c7883a 	add	r3,r21,r3
    1680:	e0c00015 	stw	r3,0(fp)
    1684:	3500da26 	beq	r6,r20,19f0 <_malloc_r+0x6fc>
    1688:	b9000017 	ldw	r4,0(r23)
    168c:	00bfffc4 	movi	r2,-1
    1690:	2080e426 	beq	r4,r2,1a24 <_malloc_r+0x730>
    1694:	a185c83a 	sub	r2,r20,r6
    1698:	1885883a 	add	r2,r3,r2
    169c:	e0800015 	stw	r2,0(fp)
    16a0:	a0c001cc 	andi	r3,r20,7
    16a4:	1800b526 	beq	r3,zero,197c <_malloc_r+0x688>
    16a8:	a0e9c83a 	sub	r20,r20,r3
    16ac:	00840204 	movi	r2,4104
    16b0:	a5000204 	addi	r20,r20,8
    16b4:	10c7c83a 	sub	r3,r2,r3
    16b8:	a545883a 	add	r2,r20,r21
    16bc:	1083ffcc 	andi	r2,r2,4095
    16c0:	18abc83a 	sub	r21,r3,r2
    16c4:	9009883a 	mov	r4,r18
    16c8:	a80b883a 	mov	r5,r21
    16cc:	0001e5c0 	call	1e5c <_sbrk_r>
    16d0:	00ffffc4 	movi	r3,-1
    16d4:	10c0d026 	beq	r2,r3,1a18 <_malloc_r+0x724>
    16d8:	1507c83a 	sub	r3,r2,r20
    16dc:	a8c7883a 	add	r3,r21,r3
    16e0:	18c00054 	ori	r3,r3,1
    16e4:	e0800017 	ldw	r2,0(fp)
    16e8:	9d000215 	stw	r20,8(r19)
    16ec:	a0c00115 	stw	r3,4(r20)
    16f0:	a887883a 	add	r3,r21,r2
    16f4:	e0c00015 	stw	r3,0(fp)
    16f8:	84c00e26 	beq	r16,r19,1734 <_malloc_r+0x440>
    16fc:	018003c4 	movi	r6,15
    1700:	3580a02e 	bgeu	r6,r22,1984 <_malloc_r+0x690>
    1704:	81400117 	ldw	r5,4(r16)
    1708:	013ffe04 	movi	r4,-8
    170c:	b0bffd04 	addi	r2,r22,-12
    1710:	1104703a 	and	r2,r2,r4
    1714:	2900004c 	andi	r4,r5,1
    1718:	1108b03a 	or	r4,r2,r4
    171c:	81000115 	stw	r4,4(r16)
    1720:	01400144 	movi	r5,5
    1724:	8089883a 	add	r4,r16,r2
    1728:	21400115 	stw	r5,4(r4)
    172c:	21400215 	stw	r5,8(r4)
    1730:	3080c036 	bltu	r6,r2,1a34 <_malloc_r+0x740>
    1734:	00800074 	movhi	r2,1
    1738:	108df604 	addi	r2,r2,14296
    173c:	11000017 	ldw	r4,0(r2)
    1740:	20c0012e 	bgeu	r4,r3,1748 <_malloc_r+0x454>
    1744:	10c00015 	stw	r3,0(r2)
    1748:	00800074 	movhi	r2,1
    174c:	108df504 	addi	r2,r2,14292
    1750:	11000017 	ldw	r4,0(r2)
    1754:	9c000217 	ldw	r16,8(r19)
    1758:	20c0012e 	bgeu	r4,r3,1760 <_malloc_r+0x46c>
    175c:	10c00015 	stw	r3,0(r2)
    1760:	80c00117 	ldw	r3,4(r16)
    1764:	00bfff04 	movi	r2,-4
    1768:	1886703a 	and	r3,r3,r2
    176c:	1c45c83a 	sub	r2,r3,r17
    1770:	1c400236 	bltu	r3,r17,177c <_malloc_r+0x488>
    1774:	00c003c4 	movi	r3,15
    1778:	18800416 	blt	r3,r2,178c <_malloc_r+0x498>
    177c:	9009883a 	mov	r4,r18
    1780:	000dbac0 	call	dbac <__malloc_unlock>
    1784:	0005883a 	mov	r2,zero
    1788:	003f0706 	br	13a8 <_malloc_r+0xb4>
    178c:	88c00054 	ori	r3,r17,1
    1790:	80c00115 	stw	r3,4(r16)
    1794:	8463883a 	add	r17,r16,r17
    1798:	10800054 	ori	r2,r2,1
    179c:	9c400215 	stw	r17,8(r19)
    17a0:	88800115 	stw	r2,4(r17)
    17a4:	9009883a 	mov	r4,r18
    17a8:	000dbac0 	call	dbac <__malloc_unlock>
    17ac:	80800204 	addi	r2,r16,8
    17b0:	003efd06 	br	13a8 <_malloc_r+0xb4>
    17b4:	00800504 	movi	r2,20
    17b8:	10c0482e 	bgeu	r2,r3,18dc <_malloc_r+0x5e8>
    17bc:	00801504 	movi	r2,84
    17c0:	10c06836 	bltu	r2,r3,1964 <_malloc_r+0x670>
    17c4:	8806d33a 	srli	r3,r17,12
    17c8:	19c01b84 	addi	r7,r3,110
    17cc:	39cb883a 	add	r5,r7,r7
    17d0:	003f0c06 	br	1404 <_malloc_r+0x110>
    17d4:	3804d27a 	srli	r2,r7,9
    17d8:	01000104 	movi	r4,4
    17dc:	2080422e 	bgeu	r4,r2,18e8 <_malloc_r+0x5f4>
    17e0:	01000504 	movi	r4,20
    17e4:	20807c36 	bltu	r4,r2,19d8 <_malloc_r+0x6e4>
    17e8:	110016c4 	addi	r4,r2,91
    17ec:	210b883a 	add	r5,r4,r4
    17f0:	294b883a 	add	r5,r5,r5
    17f4:	294b883a 	add	r5,r5,r5
    17f8:	994b883a 	add	r5,r19,r5
    17fc:	28800217 	ldw	r2,8(r5)
    1800:	02000074 	movhi	r8,1
    1804:	42018804 	addi	r8,r8,1568
    1808:	11406326 	beq	r2,r5,1998 <_malloc_r+0x6a4>
    180c:	01bfff04 	movi	r6,-4
    1810:	11000117 	ldw	r4,4(r2)
    1814:	2188703a 	and	r4,r4,r6
    1818:	3900022e 	bgeu	r7,r4,1824 <_malloc_r+0x530>
    181c:	10800217 	ldw	r2,8(r2)
    1820:	28bffb1e 	bne	r5,r2,1810 <_malloc_r+0x51c>
    1824:	11800317 	ldw	r6,12(r2)
    1828:	99000117 	ldw	r4,4(r19)
    182c:	81800315 	stw	r6,12(r16)
    1830:	80800215 	stw	r2,8(r16)
    1834:	34000215 	stw	r16,8(r6)
    1838:	14000315 	stw	r16,12(r2)
    183c:	003f2706 	br	14dc <_malloc_r+0x1e8>
    1840:	88c00054 	ori	r3,r17,1
    1844:	80c00115 	stw	r3,4(r16)
    1848:	8463883a 	add	r17,r16,r17
    184c:	34400515 	stw	r17,20(r6)
    1850:	34400415 	stw	r17,16(r6)
    1854:	10c00054 	ori	r3,r2,1
    1858:	8a400315 	stw	r9,12(r17)
    185c:	8a400215 	stw	r9,8(r17)
    1860:	88c00115 	stw	r3,4(r17)
    1864:	88a3883a 	add	r17,r17,r2
    1868:	88800015 	stw	r2,0(r17)
    186c:	9009883a 	mov	r4,r18
    1870:	000dbac0 	call	dbac <__malloc_unlock>
    1874:	80800204 	addi	r2,r16,8
    1878:	003ecb06 	br	13a8 <_malloc_r+0xb4>
    187c:	31000117 	ldw	r4,4(r6)
    1880:	003f1606 	br	14dc <_malloc_r+0x1e8>
    1884:	63000044 	addi	r12,r12,1
    1888:	608000cc 	andi	r2,r12,3
    188c:	5ac00204 	addi	r11,r11,8
    1890:	103f2a1e 	bne	r2,zero,153c <_malloc_r+0x248>
    1894:	00002106 	br	191c <_malloc_r+0x628>
    1898:	80800204 	addi	r2,r16,8
    189c:	84000517 	ldw	r16,20(r16)
    18a0:	143eb31e 	bne	r2,r16,1370 <_malloc_r+0x7c>
    18a4:	18c00084 	addi	r3,r3,2
    18a8:	003eec06 	br	145c <_malloc_r+0x168>
    18ac:	8085883a 	add	r2,r16,r2
    18b0:	10c00117 	ldw	r3,4(r2)
    18b4:	81000317 	ldw	r4,12(r16)
    18b8:	81400217 	ldw	r5,8(r16)
    18bc:	18c00054 	ori	r3,r3,1
    18c0:	10c00115 	stw	r3,4(r2)
    18c4:	29000315 	stw	r4,12(r5)
    18c8:	21400215 	stw	r5,8(r4)
    18cc:	9009883a 	mov	r4,r18
    18d0:	000dbac0 	call	dbac <__malloc_unlock>
    18d4:	80800204 	addi	r2,r16,8
    18d8:	003eb306 	br	13a8 <_malloc_r+0xb4>
    18dc:	19c016c4 	addi	r7,r3,91
    18e0:	39cb883a 	add	r5,r7,r7
    18e4:	003ec706 	br	1404 <_malloc_r+0x110>
    18e8:	3804d1ba 	srli	r2,r7,6
    18ec:	11000e04 	addi	r4,r2,56
    18f0:	210b883a 	add	r5,r4,r4
    18f4:	003fbe06 	br	17f0 <_malloc_r+0x4fc>
    18f8:	84ff5d26 	beq	r16,r19,1670 <_malloc_r+0x37c>
    18fc:	9c000217 	ldw	r16,8(r19)
    1900:	00bfff04 	movi	r2,-4
    1904:	80c00117 	ldw	r3,4(r16)
    1908:	1886703a 	and	r3,r3,r2
    190c:	003f9706 	br	176c <_malloc_r+0x478>
    1910:	52800017 	ldw	r10,0(r10)
    1914:	18ffffc4 	addi	r3,r3,-1
    1918:	50805c1e 	bne	r10,r2,1a8c <_malloc_r+0x798>
    191c:	190000cc 	andi	r4,r3,3
    1920:	50bffe04 	addi	r2,r10,-8
    1924:	203ffa1e 	bne	r4,zero,1910 <_malloc_r+0x61c>
    1928:	98800117 	ldw	r2,4(r19)
    192c:	0146303a 	nor	r3,zero,r5
    1930:	1884703a 	and	r2,r3,r2
    1934:	98800115 	stw	r2,4(r19)
    1938:	294b883a 	add	r5,r5,r5
    193c:	117f2e36 	bltu	r2,r5,15f8 <_malloc_r+0x304>
    1940:	283f2d26 	beq	r5,zero,15f8 <_malloc_r+0x304>
    1944:	1146703a 	and	r3,r2,r5
    1948:	1800521e 	bne	r3,zero,1a94 <_malloc_r+0x7a0>
    194c:	6007883a 	mov	r3,r12
    1950:	294b883a 	add	r5,r5,r5
    1954:	1148703a 	and	r4,r2,r5
    1958:	18c00104 	addi	r3,r3,4
    195c:	203ffc26 	beq	r4,zero,1950 <_malloc_r+0x65c>
    1960:	003ef006 	br	1524 <_malloc_r+0x230>
    1964:	00805504 	movi	r2,340
    1968:	10c01336 	bltu	r2,r3,19b8 <_malloc_r+0x6c4>
    196c:	8806d3fa 	srli	r3,r17,15
    1970:	19c01dc4 	addi	r7,r3,119
    1974:	39cb883a 	add	r5,r7,r7
    1978:	003ea206 	br	1404 <_malloc_r+0x110>
    197c:	00c40004 	movi	r3,4096
    1980:	003f4d06 	br	16b8 <_malloc_r+0x3c4>
    1984:	00800044 	movi	r2,1
    1988:	a0800115 	stw	r2,4(r20)
    198c:	a021883a 	mov	r16,r20
    1990:	0007883a 	mov	r3,zero
    1994:	003f7506 	br	176c <_malloc_r+0x478>
    1998:	200bd0ba 	srai	r5,r4,2
    199c:	01800044 	movi	r6,1
    19a0:	41000117 	ldw	r4,4(r8)
    19a4:	314a983a 	sll	r5,r6,r5
    19a8:	100d883a 	mov	r6,r2
    19ac:	2908b03a 	or	r4,r5,r4
    19b0:	41000115 	stw	r4,4(r8)
    19b4:	003f9d06 	br	182c <_malloc_r+0x538>
    19b8:	00815504 	movi	r2,1364
    19bc:	10c01336 	bltu	r2,r3,1a0c <_malloc_r+0x718>
    19c0:	8806d4ba 	srli	r3,r17,18
    19c4:	19c01f04 	addi	r7,r3,124
    19c8:	39cb883a 	add	r5,r7,r7
    19cc:	003e8d06 	br	1404 <_malloc_r+0x110>
    19d0:	ad400404 	addi	r21,r21,16
    19d4:	003f1d06 	br	164c <_malloc_r+0x358>
    19d8:	01001504 	movi	r4,84
    19dc:	20801c36 	bltu	r4,r2,1a50 <_malloc_r+0x75c>
    19e0:	3804d33a 	srli	r2,r7,12
    19e4:	11001b84 	addi	r4,r2,110
    19e8:	210b883a 	add	r5,r4,r4
    19ec:	003f8006 	br	17f0 <_malloc_r+0x4fc>
    19f0:	3083ffcc 	andi	r2,r6,4095
    19f4:	103f241e 	bne	r2,zero,1688 <_malloc_r+0x394>
    19f8:	99000217 	ldw	r4,8(r19)
    19fc:	ad85883a 	add	r2,r21,r22
    1a00:	10800054 	ori	r2,r2,1
    1a04:	20800115 	stw	r2,4(r4)
    1a08:	003f4a06 	br	1734 <_malloc_r+0x440>
    1a0c:	01403f04 	movi	r5,252
    1a10:	01c01f84 	movi	r7,126
    1a14:	003e7b06 	br	1404 <_malloc_r+0x110>
    1a18:	00c00044 	movi	r3,1
    1a1c:	002b883a 	mov	r21,zero
    1a20:	003f3006 	br	16e4 <_malloc_r+0x3f0>
    1a24:	00800074 	movhi	r2,1
    1a28:	10872c04 	addi	r2,r2,7344
    1a2c:	15000015 	stw	r20,0(r2)
    1a30:	003f1b06 	br	16a0 <_malloc_r+0x3ac>
    1a34:	9009883a 	mov	r4,r18
    1a38:	81400204 	addi	r5,r16,8
    1a3c:	000624c0 	call	624c <_free_r>
    1a40:	00800074 	movhi	r2,1
    1a44:	108e0204 	addi	r2,r2,14344
    1a48:	10c00017 	ldw	r3,0(r2)
    1a4c:	003f3906 	br	1734 <_malloc_r+0x440>
    1a50:	01005504 	movi	r4,340
    1a54:	20800436 	bltu	r4,r2,1a68 <_malloc_r+0x774>
    1a58:	3804d3fa 	srli	r2,r7,15
    1a5c:	11001dc4 	addi	r4,r2,119
    1a60:	210b883a 	add	r5,r4,r4
    1a64:	003f6206 	br	17f0 <_malloc_r+0x4fc>
    1a68:	01015504 	movi	r4,1364
    1a6c:	20800436 	bltu	r4,r2,1a80 <_malloc_r+0x78c>
    1a70:	3804d4ba 	srli	r2,r7,18
    1a74:	11001f04 	addi	r4,r2,124
    1a78:	210b883a 	add	r5,r4,r4
    1a7c:	003f5c06 	br	17f0 <_malloc_r+0x4fc>
    1a80:	01403f04 	movi	r5,252
    1a84:	01001f84 	movi	r4,126
    1a88:	003f5906 	br	17f0 <_malloc_r+0x4fc>
    1a8c:	98800117 	ldw	r2,4(r19)
    1a90:	003fa906 	br	1938 <_malloc_r+0x644>
    1a94:	6007883a 	mov	r3,r12
    1a98:	003ea206 	br	1524 <_malloc_r+0x230>

00001a9c <memset>:
    1a9c:	20c000cc 	andi	r3,r4,3
    1aa0:	2005883a 	mov	r2,r4
    1aa4:	18004326 	beq	r3,zero,1bb4 <memset+0x118>
    1aa8:	31ffffc4 	addi	r7,r6,-1
    1aac:	30004026 	beq	r6,zero,1bb0 <memset+0x114>
    1ab0:	2813883a 	mov	r9,r5
    1ab4:	200d883a 	mov	r6,r4
    1ab8:	2007883a 	mov	r3,r4
    1abc:	00000406 	br	1ad0 <memset+0x34>
    1ac0:	3a3fffc4 	addi	r8,r7,-1
    1ac4:	31800044 	addi	r6,r6,1
    1ac8:	38003926 	beq	r7,zero,1bb0 <memset+0x114>
    1acc:	400f883a 	mov	r7,r8
    1ad0:	18c00044 	addi	r3,r3,1
    1ad4:	32400005 	stb	r9,0(r6)
    1ad8:	1a0000cc 	andi	r8,r3,3
    1adc:	403ff81e 	bne	r8,zero,1ac0 <memset+0x24>
    1ae0:	010000c4 	movi	r4,3
    1ae4:	21c02d2e 	bgeu	r4,r7,1b9c <memset+0x100>
    1ae8:	29803fcc 	andi	r6,r5,255
    1aec:	3008923a 	slli	r4,r6,8
    1af0:	218cb03a 	or	r6,r4,r6
    1af4:	3008943a 	slli	r4,r6,16
    1af8:	218cb03a 	or	r6,r4,r6
    1afc:	010003c4 	movi	r4,15
    1b00:	21c0182e 	bgeu	r4,r7,1b64 <memset+0xc8>
    1b04:	3b3ffc04 	addi	r12,r7,-16
    1b08:	6018d13a 	srli	r12,r12,4
    1b0c:	1a000104 	addi	r8,r3,4
    1b10:	1ac00204 	addi	r11,r3,8
    1b14:	6008913a 	slli	r4,r12,4
    1b18:	1a800304 	addi	r10,r3,12
    1b1c:	1813883a 	mov	r9,r3
    1b20:	21000504 	addi	r4,r4,20
    1b24:	1909883a 	add	r4,r3,r4
    1b28:	49800015 	stw	r6,0(r9)
    1b2c:	41800015 	stw	r6,0(r8)
    1b30:	59800015 	stw	r6,0(r11)
    1b34:	51800015 	stw	r6,0(r10)
    1b38:	42000404 	addi	r8,r8,16
    1b3c:	4a400404 	addi	r9,r9,16
    1b40:	5ac00404 	addi	r11,r11,16
    1b44:	52800404 	addi	r10,r10,16
    1b48:	413ff71e 	bne	r8,r4,1b28 <memset+0x8c>
    1b4c:	63000044 	addi	r12,r12,1
    1b50:	6018913a 	slli	r12,r12,4
    1b54:	39c003cc 	andi	r7,r7,15
    1b58:	010000c4 	movi	r4,3
    1b5c:	1b07883a 	add	r3,r3,r12
    1b60:	21c00e2e 	bgeu	r4,r7,1b9c <memset+0x100>
    1b64:	1813883a 	mov	r9,r3
    1b68:	3811883a 	mov	r8,r7
    1b6c:	010000c4 	movi	r4,3
    1b70:	49800015 	stw	r6,0(r9)
    1b74:	423fff04 	addi	r8,r8,-4
    1b78:	4a400104 	addi	r9,r9,4
    1b7c:	223ffc36 	bltu	r4,r8,1b70 <memset+0xd4>
    1b80:	393fff04 	addi	r4,r7,-4
    1b84:	2008d0ba 	srli	r4,r4,2
    1b88:	39c000cc 	andi	r7,r7,3
    1b8c:	21000044 	addi	r4,r4,1
    1b90:	2109883a 	add	r4,r4,r4
    1b94:	2109883a 	add	r4,r4,r4
    1b98:	1907883a 	add	r3,r3,r4
    1b9c:	38000426 	beq	r7,zero,1bb0 <memset+0x114>
    1ba0:	19cf883a 	add	r7,r3,r7
    1ba4:	19400005 	stb	r5,0(r3)
    1ba8:	18c00044 	addi	r3,r3,1
    1bac:	19fffd1e 	bne	r3,r7,1ba4 <memset+0x108>
    1bb0:	f800283a 	ret
    1bb4:	2007883a 	mov	r3,r4
    1bb8:	300f883a 	mov	r7,r6
    1bbc:	003fc806 	br	1ae0 <memset+0x44>

00001bc0 <_printf_r>:
    1bc0:	defffd04 	addi	sp,sp,-12
    1bc4:	dfc00015 	stw	ra,0(sp)
    1bc8:	d9800115 	stw	r6,4(sp)
    1bcc:	d9c00215 	stw	r7,8(sp)
    1bd0:	280d883a 	mov	r6,r5
    1bd4:	21400217 	ldw	r5,8(r4)
    1bd8:	d9c00104 	addi	r7,sp,4
    1bdc:	0001f480 	call	1f48 <___vfprintf_internal_r>
    1be0:	dfc00017 	ldw	ra,0(sp)
    1be4:	dec00304 	addi	sp,sp,12
    1be8:	f800283a 	ret

00001bec <printf>:
    1bec:	defffc04 	addi	sp,sp,-16
    1bf0:	dfc00015 	stw	ra,0(sp)
    1bf4:	d9400115 	stw	r5,4(sp)
    1bf8:	d9800215 	stw	r6,8(sp)
    1bfc:	d9c00315 	stw	r7,12(sp)
    1c00:	00800074 	movhi	r2,1
    1c04:	10872b04 	addi	r2,r2,7340
    1c08:	10800017 	ldw	r2,0(r2)
    1c0c:	200b883a 	mov	r5,r4
    1c10:	d9800104 	addi	r6,sp,4
    1c14:	11000217 	ldw	r4,8(r2)
    1c18:	0003f440 	call	3f44 <__vfprintf_internal>
    1c1c:	dfc00017 	ldw	ra,0(sp)
    1c20:	dec00404 	addi	sp,sp,16
    1c24:	f800283a 	ret

00001c28 <_putc_r>:
    1c28:	defffc04 	addi	sp,sp,-16
    1c2c:	dc000215 	stw	r16,8(sp)
    1c30:	dfc00315 	stw	ra,12(sp)
    1c34:	2021883a 	mov	r16,r4
    1c38:	20000226 	beq	r4,zero,1c44 <_putc_r+0x1c>
    1c3c:	20800e17 	ldw	r2,56(r4)
    1c40:	10001b26 	beq	r2,zero,1cb0 <_putc_r+0x88>
    1c44:	30800217 	ldw	r2,8(r6)
    1c48:	10bfffc4 	addi	r2,r2,-1
    1c4c:	30800215 	stw	r2,8(r6)
    1c50:	10000a16 	blt	r2,zero,1c7c <_putc_r+0x54>
    1c54:	30800017 	ldw	r2,0(r6)
    1c58:	11400005 	stb	r5,0(r2)
    1c5c:	30800017 	ldw	r2,0(r6)
    1c60:	10c00044 	addi	r3,r2,1
    1c64:	30c00015 	stw	r3,0(r6)
    1c68:	10800003 	ldbu	r2,0(r2)
    1c6c:	dfc00317 	ldw	ra,12(sp)
    1c70:	dc000217 	ldw	r16,8(sp)
    1c74:	dec00404 	addi	sp,sp,16
    1c78:	f800283a 	ret
    1c7c:	30c00617 	ldw	r3,24(r6)
    1c80:	10c00616 	blt	r2,r3,1c9c <_putc_r+0x74>
    1c84:	30800017 	ldw	r2,0(r6)
    1c88:	00c00284 	movi	r3,10
    1c8c:	11400005 	stb	r5,0(r2)
    1c90:	30800017 	ldw	r2,0(r6)
    1c94:	11400003 	ldbu	r5,0(r2)
    1c98:	28fff11e 	bne	r5,r3,1c60 <_putc_r+0x38>
    1c9c:	8009883a 	mov	r4,r16
    1ca0:	dfc00317 	ldw	ra,12(sp)
    1ca4:	dc000217 	ldw	r16,8(sp)
    1ca8:	dec00404 	addi	sp,sp,16
    1cac:	0003f681 	jmpi	3f68 <__swbuf_r>
    1cb0:	d9400015 	stw	r5,0(sp)
    1cb4:	d9800115 	stw	r6,4(sp)
    1cb8:	00060d80 	call	60d8 <__sinit>
    1cbc:	d9800117 	ldw	r6,4(sp)
    1cc0:	d9400017 	ldw	r5,0(sp)
    1cc4:	003fdf06 	br	1c44 <_putc_r+0x1c>

00001cc8 <putc>:
    1cc8:	defffc04 	addi	sp,sp,-16
    1ccc:	dc400115 	stw	r17,4(sp)
    1cd0:	04400074 	movhi	r17,1
    1cd4:	8c472b04 	addi	r17,r17,7340
    1cd8:	dc800215 	stw	r18,8(sp)
    1cdc:	2025883a 	mov	r18,r4
    1ce0:	89000017 	ldw	r4,0(r17)
    1ce4:	dc000015 	stw	r16,0(sp)
    1ce8:	dfc00315 	stw	ra,12(sp)
    1cec:	2821883a 	mov	r16,r5
    1cf0:	20000226 	beq	r4,zero,1cfc <putc+0x34>
    1cf4:	20c00e17 	ldw	r3,56(r4)
    1cf8:	18001a26 	beq	r3,zero,1d64 <putc+0x9c>
    1cfc:	80800217 	ldw	r2,8(r16)
    1d00:	10bfffc4 	addi	r2,r2,-1
    1d04:	80800215 	stw	r2,8(r16)
    1d08:	10000c16 	blt	r2,zero,1d3c <putc+0x74>
    1d0c:	80800017 	ldw	r2,0(r16)
    1d10:	14800005 	stb	r18,0(r2)
    1d14:	80800017 	ldw	r2,0(r16)
    1d18:	10c00044 	addi	r3,r2,1
    1d1c:	80c00015 	stw	r3,0(r16)
    1d20:	10800003 	ldbu	r2,0(r2)
    1d24:	dfc00317 	ldw	ra,12(sp)
    1d28:	dc800217 	ldw	r18,8(sp)
    1d2c:	dc400117 	ldw	r17,4(sp)
    1d30:	dc000017 	ldw	r16,0(sp)
    1d34:	dec00404 	addi	sp,sp,16
    1d38:	f800283a 	ret
    1d3c:	80c00617 	ldw	r3,24(r16)
    1d40:	10c00a16 	blt	r2,r3,1d6c <putc+0xa4>
    1d44:	80800017 	ldw	r2,0(r16)
    1d48:	00c00284 	movi	r3,10
    1d4c:	14800005 	stb	r18,0(r2)
    1d50:	80800017 	ldw	r2,0(r16)
    1d54:	11400003 	ldbu	r5,0(r2)
    1d58:	28ffef1e 	bne	r5,r3,1d18 <putc+0x50>
    1d5c:	89000017 	ldw	r4,0(r17)
    1d60:	00000406 	br	1d74 <putc+0xac>
    1d64:	00060d80 	call	60d8 <__sinit>
    1d68:	003fe406 	br	1cfc <putc+0x34>
    1d6c:	89000017 	ldw	r4,0(r17)
    1d70:	900b883a 	mov	r5,r18
    1d74:	800d883a 	mov	r6,r16
    1d78:	dfc00317 	ldw	ra,12(sp)
    1d7c:	dc800217 	ldw	r18,8(sp)
    1d80:	dc400117 	ldw	r17,4(sp)
    1d84:	dc000017 	ldw	r16,0(sp)
    1d88:	dec00404 	addi	sp,sp,16
    1d8c:	0003f681 	jmpi	3f68 <__swbuf_r>

00001d90 <_puts_r>:
    1d90:	defff604 	addi	sp,sp,-40
    1d94:	dc000715 	stw	r16,28(sp)
    1d98:	2021883a 	mov	r16,r4
    1d9c:	2809883a 	mov	r4,r5
    1da0:	dc400815 	stw	r17,32(sp)
    1da4:	dfc00915 	stw	ra,36(sp)
    1da8:	2823883a 	mov	r17,r5
    1dac:	0001eb00 	call	1eb0 <strlen>
    1db0:	00c00074 	movhi	r3,1
    1db4:	18c72b04 	addi	r3,r3,7340
    1db8:	18c00017 	ldw	r3,0(r3)
    1dbc:	11000044 	addi	r4,r2,1
    1dc0:	d8800115 	stw	r2,4(sp)
    1dc4:	18c00217 	ldw	r3,8(r3)
    1dc8:	01400074 	movhi	r5,1
    1dcc:	297fc204 	addi	r5,r5,-248
    1dd0:	1880030b 	ldhu	r2,12(r3)
    1dd4:	d9400215 	stw	r5,8(sp)
    1dd8:	d9000615 	stw	r4,24(sp)
    1ddc:	01400044 	movi	r5,1
    1de0:	01000084 	movi	r4,2
    1de4:	d9000515 	stw	r4,20(sp)
    1de8:	dc400015 	stw	r17,0(sp)
    1dec:	d9400315 	stw	r5,12(sp)
    1df0:	dec00415 	stw	sp,16(sp)
    1df4:	1108000c 	andi	r4,r2,8192
    1df8:	2000061e 	bne	r4,zero,1e14 <_puts_r+0x84>
    1dfc:	19401917 	ldw	r5,100(r3)
    1e00:	0137ffc4 	movi	r4,-8193
    1e04:	10880014 	ori	r2,r2,8192
    1e08:	2908703a 	and	r4,r5,r4
    1e0c:	1880030d 	sth	r2,12(r3)
    1e10:	19001915 	stw	r4,100(r3)
    1e14:	81400217 	ldw	r5,8(r16)
    1e18:	8009883a 	mov	r4,r16
    1e1c:	d9800404 	addi	r6,sp,16
    1e20:	000653c0 	call	653c <__sfvwrite_r>
    1e24:	1000061e 	bne	r2,zero,1e40 <_puts_r+0xb0>
    1e28:	00800284 	movi	r2,10
    1e2c:	dfc00917 	ldw	ra,36(sp)
    1e30:	dc400817 	ldw	r17,32(sp)
    1e34:	dc000717 	ldw	r16,28(sp)
    1e38:	dec00a04 	addi	sp,sp,40
    1e3c:	f800283a 	ret
    1e40:	00bfffc4 	movi	r2,-1
    1e44:	003ff906 	br	1e2c <_puts_r+0x9c>

00001e48 <puts>:
    1e48:	00800074 	movhi	r2,1
    1e4c:	10872b04 	addi	r2,r2,7340
    1e50:	200b883a 	mov	r5,r4
    1e54:	11000017 	ldw	r4,0(r2)
    1e58:	0001d901 	jmpi	1d90 <_puts_r>

00001e5c <_sbrk_r>:
    1e5c:	defffd04 	addi	sp,sp,-12
    1e60:	dc000015 	stw	r16,0(sp)
    1e64:	04000074 	movhi	r16,1
    1e68:	dc400115 	stw	r17,4(sp)
    1e6c:	840df804 	addi	r16,r16,14304
    1e70:	2023883a 	mov	r17,r4
    1e74:	2809883a 	mov	r4,r5
    1e78:	dfc00215 	stw	ra,8(sp)
    1e7c:	80000015 	stw	zero,0(r16)
    1e80:	000dd780 	call	dd78 <sbrk>
    1e84:	00ffffc4 	movi	r3,-1
    1e88:	10c00526 	beq	r2,r3,1ea0 <_sbrk_r+0x44>
    1e8c:	dfc00217 	ldw	ra,8(sp)
    1e90:	dc400117 	ldw	r17,4(sp)
    1e94:	dc000017 	ldw	r16,0(sp)
    1e98:	dec00304 	addi	sp,sp,12
    1e9c:	f800283a 	ret
    1ea0:	80c00017 	ldw	r3,0(r16)
    1ea4:	183ff926 	beq	r3,zero,1e8c <_sbrk_r+0x30>
    1ea8:	88c00015 	stw	r3,0(r17)
    1eac:	003ff706 	br	1e8c <_sbrk_r+0x30>

00001eb0 <strlen>:
    1eb0:	208000cc 	andi	r2,r4,3
    1eb4:	10002026 	beq	r2,zero,1f38 <strlen+0x88>
    1eb8:	20800007 	ldb	r2,0(r4)
    1ebc:	10002026 	beq	r2,zero,1f40 <strlen+0x90>
    1ec0:	2005883a 	mov	r2,r4
    1ec4:	00000206 	br	1ed0 <strlen+0x20>
    1ec8:	10c00007 	ldb	r3,0(r2)
    1ecc:	18001826 	beq	r3,zero,1f30 <strlen+0x80>
    1ed0:	10800044 	addi	r2,r2,1
    1ed4:	10c000cc 	andi	r3,r2,3
    1ed8:	183ffb1e 	bne	r3,zero,1ec8 <strlen+0x18>
    1edc:	10c00017 	ldw	r3,0(r2)
    1ee0:	01ffbff4 	movhi	r7,65279
    1ee4:	39ffbfc4 	addi	r7,r7,-257
    1ee8:	00ca303a 	nor	r5,zero,r3
    1eec:	01a02074 	movhi	r6,32897
    1ef0:	19c7883a 	add	r3,r3,r7
    1ef4:	31a02004 	addi	r6,r6,-32640
    1ef8:	1946703a 	and	r3,r3,r5
    1efc:	1986703a 	and	r3,r3,r6
    1f00:	1800091e 	bne	r3,zero,1f28 <strlen+0x78>
    1f04:	10800104 	addi	r2,r2,4
    1f08:	10c00017 	ldw	r3,0(r2)
    1f0c:	19cb883a 	add	r5,r3,r7
    1f10:	00c6303a 	nor	r3,zero,r3
    1f14:	28c6703a 	and	r3,r5,r3
    1f18:	1986703a 	and	r3,r3,r6
    1f1c:	183ff926 	beq	r3,zero,1f04 <strlen+0x54>
    1f20:	00000106 	br	1f28 <strlen+0x78>
    1f24:	10800044 	addi	r2,r2,1
    1f28:	10c00007 	ldb	r3,0(r2)
    1f2c:	183ffd1e 	bne	r3,zero,1f24 <strlen+0x74>
    1f30:	1105c83a 	sub	r2,r2,r4
    1f34:	f800283a 	ret
    1f38:	2005883a 	mov	r2,r4
    1f3c:	003fe706 	br	1edc <strlen+0x2c>
    1f40:	0005883a 	mov	r2,zero
    1f44:	f800283a 	ret

00001f48 <___vfprintf_internal_r>:
    1f48:	defeb604 	addi	sp,sp,-1320
    1f4c:	dfc14915 	stw	ra,1316(sp)
    1f50:	ddc14715 	stw	r23,1308(sp)
    1f54:	dd814615 	stw	r22,1304(sp)
    1f58:	282f883a 	mov	r23,r5
    1f5c:	202d883a 	mov	r22,r4
    1f60:	d9812a15 	stw	r6,1192(sp)
    1f64:	d9c12d15 	stw	r7,1204(sp)
    1f68:	df014815 	stw	fp,1312(sp)
    1f6c:	dd414515 	stw	r21,1300(sp)
    1f70:	dd014415 	stw	r20,1296(sp)
    1f74:	dcc14315 	stw	r19,1292(sp)
    1f78:	dc814215 	stw	r18,1288(sp)
    1f7c:	dc414115 	stw	r17,1284(sp)
    1f80:	dc014015 	stw	r16,1280(sp)
    1f84:	0006bfc0 	call	6bfc <_localeconv_r>
    1f88:	10800017 	ldw	r2,0(r2)
    1f8c:	1009883a 	mov	r4,r2
    1f90:	d8813515 	stw	r2,1236(sp)
    1f94:	0001eb00 	call	1eb0 <strlen>
    1f98:	d8813815 	stw	r2,1248(sp)
    1f9c:	b0000226 	beq	r22,zero,1fa8 <___vfprintf_internal_r+0x60>
    1fa0:	b0800e17 	ldw	r2,56(r22)
    1fa4:	10010426 	beq	r2,zero,23b8 <___vfprintf_internal_r+0x470>
    1fa8:	b8c0030b 	ldhu	r3,12(r23)
    1fac:	1908000c 	andi	r4,r3,8192
    1fb0:	1805883a 	mov	r2,r3
    1fb4:	2000071e 	bne	r4,zero,1fd4 <___vfprintf_internal_r+0x8c>
    1fb8:	b9001917 	ldw	r4,100(r23)
    1fbc:	18880014 	ori	r2,r3,8192
    1fc0:	00f7ffc4 	movi	r3,-8193
    1fc4:	20c8703a 	and	r4,r4,r3
    1fc8:	b880030d 	sth	r2,12(r23)
    1fcc:	1007883a 	mov	r3,r2
    1fd0:	b9001915 	stw	r4,100(r23)
    1fd4:	1100020c 	andi	r4,r2,8
    1fd8:	2000a726 	beq	r4,zero,2278 <___vfprintf_internal_r+0x330>
    1fdc:	b9000417 	ldw	r4,16(r23)
    1fe0:	2000a526 	beq	r4,zero,2278 <___vfprintf_internal_r+0x330>
    1fe4:	1080068c 	andi	r2,r2,26
    1fe8:	01000284 	movi	r4,10
    1fec:	1100ab26 	beq	r2,r4,229c <___vfprintf_internal_r+0x354>
    1ff0:	dac10e04 	addi	r11,sp,1080
    1ff4:	db010dc4 	addi	r12,sp,1079
    1ff8:	d8800404 	addi	r2,sp,16
    1ffc:	05000074 	movhi	r20,1
    2000:	dac12815 	stw	r11,1184(sp)
    2004:	5b17c83a 	sub	r11,r11,r12
    2008:	a53fd384 	addi	r20,r20,-178
    200c:	db012915 	stw	r12,1188(sp)
    2010:	d8811e15 	stw	r2,1144(sp)
    2014:	d8012015 	stw	zero,1152(sp)
    2018:	d8011f15 	stw	zero,1148(sp)
    201c:	d8013315 	stw	zero,1228(sp)
    2020:	d8013715 	stw	zero,1244(sp)
    2024:	d8013915 	stw	zero,1252(sp)
    2028:	d8013b15 	stw	zero,1260(sp)
    202c:	d8013a15 	stw	zero,1256(sp)
    2030:	d8012f15 	stw	zero,1212(sp)
    2034:	1011883a 	mov	r8,r2
    2038:	dac13c15 	stw	r11,1264(sp)
    203c:	db012a17 	ldw	r12,1192(sp)
    2040:	60800007 	ldb	r2,0(r12)
    2044:	1000df26 	beq	r2,zero,23c4 <___vfprintf_internal_r+0x47c>
    2048:	00c00944 	movi	r3,37
    204c:	10c0dd26 	beq	r2,r3,23c4 <___vfprintf_internal_r+0x47c>
    2050:	6021883a 	mov	r16,r12
    2054:	00000106 	br	205c <___vfprintf_internal_r+0x114>
    2058:	10c08426 	beq	r2,r3,226c <___vfprintf_internal_r+0x324>
    205c:	84000044 	addi	r16,r16,1
    2060:	80800007 	ldb	r2,0(r16)
    2064:	103ffc1e 	bne	r2,zero,2058 <___vfprintf_internal_r+0x110>
    2068:	dac12a17 	ldw	r11,1192(sp)
    206c:	82e3c83a 	sub	r17,r16,r11
    2070:	88000f26 	beq	r17,zero,20b0 <___vfprintf_internal_r+0x168>
    2074:	d8c12017 	ldw	r3,1152(sp)
    2078:	d8811f17 	ldw	r2,1148(sp)
    207c:	dac12a17 	ldw	r11,1192(sp)
    2080:	1c47883a 	add	r3,r3,r17
    2084:	10800044 	addi	r2,r2,1
    2088:	d8c12015 	stw	r3,1152(sp)
    208c:	42c00015 	stw	r11,0(r8)
    2090:	44400115 	stw	r17,4(r8)
    2094:	d8811f15 	stw	r2,1148(sp)
    2098:	00c001c4 	movi	r3,7
    209c:	1880b416 	blt	r3,r2,2370 <___vfprintf_internal_r+0x428>
    20a0:	42000204 	addi	r8,r8,8
    20a4:	db012f17 	ldw	r12,1212(sp)
    20a8:	6459883a 	add	r12,r12,r17
    20ac:	db012f15 	stw	r12,1212(sp)
    20b0:	80800007 	ldb	r2,0(r16)
    20b4:	1000b526 	beq	r2,zero,238c <___vfprintf_internal_r+0x444>
    20b8:	80800044 	addi	r2,r16,1
    20bc:	84000047 	ldb	r16,1(r16)
    20c0:	d8012785 	stb	zero,1182(sp)
    20c4:	000d883a 	mov	r6,zero
    20c8:	027fffc4 	movi	r9,-1
    20cc:	d8012e15 	stw	zero,1208(sp)
    20d0:	0023883a 	mov	r17,zero
    20d4:	01001604 	movi	r4,88
    20d8:	01400244 	movi	r5,9
    20dc:	02800a84 	movi	r10,42
    20e0:	01c01b04 	movi	r7,108
    20e4:	10c00044 	addi	r3,r2,1
    20e8:	80bff804 	addi	r2,r16,-32
    20ec:	2082f236 	bltu	r4,r2,2cb8 <___vfprintf_internal_r+0xd70>
    20f0:	100490ba 	slli	r2,r2,2
    20f4:	02c00034 	movhi	r11,0
    20f8:	5ac84204 	addi	r11,r11,8456
    20fc:	12c5883a 	add	r2,r2,r11
    2100:	10800017 	ldw	r2,0(r2)
    2104:	1000683a 	jmp	r2
    2108:	00002b00 	call	2b0 <sleep_ms+0x28>
    210c:	00002cb8 	rdprs	zero,zero,178
    2110:	00002cb8 	rdprs	zero,zero,178
    2114:	00002b20 	cmpeqi	zero,zero,172
    2118:	00002cb8 	rdprs	zero,zero,178
    211c:	00002cb8 	rdprs	zero,zero,178
    2120:	00002cb8 	rdprs	zero,zero,178
    2124:	00002cb8 	rdprs	zero,zero,178
    2128:	00002cb8 	rdprs	zero,zero,178
    212c:	00002cb8 	rdprs	zero,zero,178
    2130:	00002c7c 	xorhi	zero,zero,177
    2134:	00002ca8 	cmpgeui	zero,zero,178
    2138:	00002cb8 	rdprs	zero,zero,178
    213c:	000023cc 	andi	zero,zero,143
    2140:	000023dc 	xori	zero,zero,143
    2144:	00002cb8 	rdprs	zero,zero,178
    2148:	0000241c 	xori	zero,zero,144
    214c:	00002910 	cmplti	zero,zero,164
    2150:	00002910 	cmplti	zero,zero,164
    2154:	00002910 	cmplti	zero,zero,164
    2158:	00002910 	cmplti	zero,zero,164
    215c:	00002910 	cmplti	zero,zero,164
    2160:	00002910 	cmplti	zero,zero,164
    2164:	00002910 	cmplti	zero,zero,164
    2168:	00002910 	cmplti	zero,zero,164
    216c:	00002910 	cmplti	zero,zero,164
    2170:	00002cb8 	rdprs	zero,zero,178
    2174:	00002cb8 	rdprs	zero,zero,178
    2178:	00002cb8 	rdprs	zero,zero,178
    217c:	00002cb8 	rdprs	zero,zero,178
    2180:	00002cb8 	rdprs	zero,zero,178
    2184:	00002cb8 	rdprs	zero,zero,178
    2188:	00002cb8 	rdprs	zero,zero,178
    218c:	00002cb8 	rdprs	zero,zero,178
    2190:	00002cb8 	rdprs	zero,zero,178
    2194:	00002cb8 	rdprs	zero,zero,178
    2198:	00002944 	movi	zero,165
    219c:	0000242c 	andhi	zero,zero,144
    21a0:	00002cb8 	rdprs	zero,zero,178
    21a4:	0000242c 	andhi	zero,zero,144
    21a8:	00002cb8 	rdprs	zero,zero,178
    21ac:	00002cb8 	rdprs	zero,zero,178
    21b0:	00002cb8 	rdprs	zero,zero,178
    21b4:	00002cb8 	rdprs	zero,zero,178
    21b8:	000024d0 	cmplti	zero,zero,147
    21bc:	00002cb8 	rdprs	zero,zero,178
    21c0:	00002cb8 	rdprs	zero,zero,178
    21c4:	000024e0 	cmpeqi	zero,zero,147
    21c8:	00002cb8 	rdprs	zero,zero,178
    21cc:	00002cb8 	rdprs	zero,zero,178
    21d0:	00002cb8 	rdprs	zero,zero,178
    21d4:	00002cb8 	rdprs	zero,zero,178
    21d8:	00002cb8 	rdprs	zero,zero,178
    21dc:	000028dc 	xori	zero,zero,163
    21e0:	00002cb8 	rdprs	zero,zero,178
    21e4:	00002cb8 	rdprs	zero,zero,178
    21e8:	0000298c 	andi	zero,zero,166
    21ec:	00002cb8 	rdprs	zero,zero,178
    21f0:	00002cb8 	rdprs	zero,zero,178
    21f4:	00002cb8 	rdprs	zero,zero,178
    21f8:	00002cb8 	rdprs	zero,zero,178
    21fc:	00002cb8 	rdprs	zero,zero,178
    2200:	00002cb8 	rdprs	zero,zero,178
    2204:	00002cb8 	rdprs	zero,zero,178
    2208:	00002cb8 	rdprs	zero,zero,178
    220c:	00002cb8 	rdprs	zero,zero,178
    2210:	00002cb8 	rdprs	zero,zero,178
    2214:	00002b80 	call	2b8 <sleep_ms+0x30>
    2218:	00002b30 	cmpltui	zero,zero,172
    221c:	0000242c 	andhi	zero,zero,144
    2220:	0000242c 	andhi	zero,zero,144
    2224:	0000242c 	andhi	zero,zero,144
    2228:	00002b70 	cmpltui	zero,zero,173
    222c:	00002b30 	cmpltui	zero,zero,172
    2230:	00002cb8 	rdprs	zero,zero,178
    2234:	00002cb8 	rdprs	zero,zero,178
    2238:	00002a78 	rdprs	zero,zero,169
    223c:	00002cb8 	rdprs	zero,zero,178
    2240:	00002a8c 	andi	zero,zero,170
    2244:	00002ac0 	call	2ac <sleep_ms+0x24>
    2248:	00002bc0 	call	2bc <sleep_ms+0x34>
    224c:	000029e8 	cmpgeui	zero,zero,167
    2250:	00002cb8 	rdprs	zero,zero,178
    2254:	00002c08 	cmpgei	zero,zero,176
    2258:	00002cb8 	rdprs	zero,zero,178
    225c:	000029f8 	rdprs	zero,zero,167
    2260:	00002cb8 	rdprs	zero,zero,178
    2264:	00002cb8 	rdprs	zero,zero,178
    2268:	00002a38 	rdprs	zero,zero,168
    226c:	db012a17 	ldw	r12,1192(sp)
    2270:	8323c83a 	sub	r17,r16,r12
    2274:	003f7e06 	br	2070 <___vfprintf_internal_r+0x128>
    2278:	b009883a 	mov	r4,r22
    227c:	b80b883a 	mov	r5,r23
    2280:	00040d80 	call	40d8 <__swsetup_r>
    2284:	10002d1e 	bne	r2,zero,233c <___vfprintf_internal_r+0x3f4>
    2288:	b8c0030b 	ldhu	r3,12(r23)
    228c:	01000284 	movi	r4,10
    2290:	1805883a 	mov	r2,r3
    2294:	1080068c 	andi	r2,r2,26
    2298:	113f551e 	bne	r2,r4,1ff0 <___vfprintf_internal_r+0xa8>
    229c:	b880038b 	ldhu	r2,14(r23)
    22a0:	113fffcc 	andi	r4,r2,65535
    22a4:	2120001c 	xori	r4,r4,32768
    22a8:	21200004 	addi	r4,r4,-32768
    22ac:	203f5016 	blt	r4,zero,1ff0 <___vfprintf_internal_r+0xa8>
    22b0:	bac01917 	ldw	r11,100(r23)
    22b4:	ba800717 	ldw	r10,28(r23)
    22b8:	ba400917 	ldw	r9,36(r23)
    22bc:	d9812a17 	ldw	r6,1192(sp)
    22c0:	d9c12d17 	ldw	r7,1204(sp)
    22c4:	02010004 	movi	r8,1024
    22c8:	18ffff4c 	andi	r3,r3,65533
    22cc:	d881078d 	sth	r2,1054(sp)
    22d0:	b009883a 	mov	r4,r22
    22d4:	d8800404 	addi	r2,sp,16
    22d8:	d9410404 	addi	r5,sp,1040
    22dc:	d8c1070d 	sth	r3,1052(sp)
    22e0:	dac11d15 	stw	r11,1140(sp)
    22e4:	da810b15 	stw	r10,1068(sp)
    22e8:	da410d15 	stw	r9,1076(sp)
    22ec:	d8810415 	stw	r2,1040(sp)
    22f0:	d8810815 	stw	r2,1056(sp)
    22f4:	da010615 	stw	r8,1048(sp)
    22f8:	da010915 	stw	r8,1060(sp)
    22fc:	d8010a15 	stw	zero,1064(sp)
    2300:	0001f480 	call	1f48 <___vfprintf_internal_r>
    2304:	1021883a 	mov	r16,r2
    2308:	10000416 	blt	r2,zero,231c <___vfprintf_internal_r+0x3d4>
    230c:	b009883a 	mov	r4,r22
    2310:	d9410404 	addi	r5,sp,1040
    2314:	0005b300 	call	5b30 <_fflush_r>
    2318:	1006ee1e 	bne	r2,zero,3ed4 <___vfprintf_internal_r+0x1f8c>
    231c:	d881070b 	ldhu	r2,1052(sp)
    2320:	1080100c 	andi	r2,r2,64
    2324:	10000326 	beq	r2,zero,2334 <___vfprintf_internal_r+0x3ec>
    2328:	b880030b 	ldhu	r2,12(r23)
    232c:	10801014 	ori	r2,r2,64
    2330:	b880030d 	sth	r2,12(r23)
    2334:	8005883a 	mov	r2,r16
    2338:	00000106 	br	2340 <___vfprintf_internal_r+0x3f8>
    233c:	00bfffc4 	movi	r2,-1
    2340:	dfc14917 	ldw	ra,1316(sp)
    2344:	df014817 	ldw	fp,1312(sp)
    2348:	ddc14717 	ldw	r23,1308(sp)
    234c:	dd814617 	ldw	r22,1304(sp)
    2350:	dd414517 	ldw	r21,1300(sp)
    2354:	dd014417 	ldw	r20,1296(sp)
    2358:	dcc14317 	ldw	r19,1292(sp)
    235c:	dc814217 	ldw	r18,1288(sp)
    2360:	dc414117 	ldw	r17,1284(sp)
    2364:	dc014017 	ldw	r16,1280(sp)
    2368:	dec14a04 	addi	sp,sp,1320
    236c:	f800283a 	ret
    2370:	b009883a 	mov	r4,r22
    2374:	b80b883a 	mov	r5,r23
    2378:	d9811e04 	addi	r6,sp,1144
    237c:	00089e00 	call	89e0 <__sprint_r>
    2380:	1000081e 	bne	r2,zero,23a4 <___vfprintf_internal_r+0x45c>
    2384:	da000404 	addi	r8,sp,16
    2388:	003f4606 	br	20a4 <___vfprintf_internal_r+0x15c>
    238c:	d8812017 	ldw	r2,1152(sp)
    2390:	10000426 	beq	r2,zero,23a4 <___vfprintf_internal_r+0x45c>
    2394:	b009883a 	mov	r4,r22
    2398:	b80b883a 	mov	r5,r23
    239c:	d9811e04 	addi	r6,sp,1144
    23a0:	00089e00 	call	89e0 <__sprint_r>
    23a4:	b880030b 	ldhu	r2,12(r23)
    23a8:	1080100c 	andi	r2,r2,64
    23ac:	103fe31e 	bne	r2,zero,233c <___vfprintf_internal_r+0x3f4>
    23b0:	d8812f17 	ldw	r2,1212(sp)
    23b4:	003fe206 	br	2340 <___vfprintf_internal_r+0x3f8>
    23b8:	b009883a 	mov	r4,r22
    23bc:	00060d80 	call	60d8 <__sinit>
    23c0:	003ef906 	br	1fa8 <___vfprintf_internal_r+0x60>
    23c4:	dc012a17 	ldw	r16,1192(sp)
    23c8:	003f3906 	br	20b0 <___vfprintf_internal_r+0x168>
    23cc:	1805883a 	mov	r2,r3
    23d0:	8c400114 	ori	r17,r17,4
    23d4:	1c000007 	ldb	r16,0(r3)
    23d8:	003f4206 	br	20e4 <___vfprintf_internal_r+0x19c>
    23dc:	1c000007 	ldb	r16,0(r3)
    23e0:	18800044 	addi	r2,r3,1
    23e4:	8286b326 	beq	r16,r10,3eb4 <___vfprintf_internal_r+0x1f6c>
    23e8:	82fff404 	addi	r11,r16,-48
    23ec:	1007883a 	mov	r3,r2
    23f0:	0013883a 	mov	r9,zero
    23f4:	2aff3c36 	bltu	r5,r11,20e8 <___vfprintf_internal_r+0x1a0>
    23f8:	1c000007 	ldb	r16,0(r3)
    23fc:	4a4002a4 	muli	r9,r9,10
    2400:	18c00044 	addi	r3,r3,1
    2404:	5a53883a 	add	r9,r11,r9
    2408:	82fff404 	addi	r11,r16,-48
    240c:	2afffa2e 	bgeu	r5,r11,23f8 <___vfprintf_internal_r+0x4b0>
    2410:	483f350e 	bge	r9,zero,20e8 <___vfprintf_internal_r+0x1a0>
    2414:	027fffc4 	movi	r9,-1
    2418:	003f3306 	br	20e8 <___vfprintf_internal_r+0x1a0>
    241c:	8c402014 	ori	r17,r17,128
    2420:	1805883a 	mov	r2,r3
    2424:	1c000007 	ldb	r16,0(r3)
    2428:	003f2e06 	br	20e4 <___vfprintf_internal_r+0x19c>
    242c:	db012d17 	ldw	r12,1204(sp)
    2430:	dac12d17 	ldw	r11,1204(sp)
    2434:	d8c12a15 	stw	r3,1192(sp)
    2438:	63000017 	ldw	r12,0(r12)
    243c:	5ac00117 	ldw	r11,4(r11)
    2440:	d9812785 	stb	r6,1182(sp)
    2444:	6009883a 	mov	r4,r12
    2448:	580b883a 	mov	r5,r11
    244c:	db013715 	stw	r12,1244(sp)
    2450:	da013f15 	stw	r8,1276(sp)
    2454:	da413e15 	stw	r9,1272(sp)
    2458:	dac13915 	stw	r11,1252(sp)
    245c:	00086900 	call	8690 <__fpclassifyd>
    2460:	db012d17 	ldw	r12,1204(sp)
    2464:	04800044 	movi	r18,1
    2468:	da013f17 	ldw	r8,1276(sp)
    246c:	64c00204 	addi	r19,r12,8
    2470:	da413e17 	ldw	r9,1272(sp)
    2474:	d9013717 	ldw	r4,1244(sp)
    2478:	d9413917 	ldw	r5,1252(sp)
    247c:	1484581e 	bne	r2,r18,35e0 <___vfprintf_internal_r+0x1698>
    2480:	000d883a 	mov	r6,zero
    2484:	000f883a 	mov	r7,zero
    2488:	000c2980 	call	c298 <__ledf2>
    248c:	da013f17 	ldw	r8,1276(sp)
    2490:	1005ef16 	blt	r2,zero,3c50 <___vfprintf_internal_r+0x1d08>
    2494:	dd412783 	ldbu	r21,1182(sp)
    2498:	008011c4 	movi	r2,71
    249c:	14053b0e 	bge	r2,r16,398c <___vfprintf_internal_r+0x1a44>
    24a0:	00c00074 	movhi	r3,1
    24a4:	18ffc404 	addi	r3,r3,-240
    24a8:	d8c13115 	stw	r3,1220(sp)
    24ac:	02c000c4 	movi	r11,3
    24b0:	00bfdfc4 	movi	r2,-129
    24b4:	dac12b15 	stw	r11,1196(sp)
    24b8:	88a2703a 	and	r17,r17,r2
    24bc:	dcc12d15 	stw	r19,1204(sp)
    24c0:	5825883a 	mov	r18,r11
    24c4:	d8013215 	stw	zero,1224(sp)
    24c8:	d8013415 	stw	zero,1232(sp)
    24cc:	00003206 	br	2598 <___vfprintf_internal_r+0x650>
    24d0:	8c400214 	ori	r17,r17,8
    24d4:	1805883a 	mov	r2,r3
    24d8:	1c000007 	ldb	r16,0(r3)
    24dc:	003f0106 	br	20e4 <___vfprintf_internal_r+0x19c>
    24e0:	8c400414 	ori	r17,r17,16
    24e4:	d8c12a15 	stw	r3,1192(sp)
    24e8:	88c0080c 	andi	r3,r17,32
    24ec:	d8812d17 	ldw	r2,1204(sp)
    24f0:	18017726 	beq	r3,zero,2ad0 <___vfprintf_internal_r+0xb88>
    24f4:	db012d17 	ldw	r12,1204(sp)
    24f8:	14c00017 	ldw	r19,0(r2)
    24fc:	17000117 	ldw	fp,4(r2)
    2500:	63000204 	addi	r12,r12,8
    2504:	db012d15 	stw	r12,1204(sp)
    2508:	0005883a 	mov	r2,zero
    250c:	9f06b03a 	or	r3,r19,fp
    2510:	d8012785 	stb	zero,1182(sp)
    2514:	da413215 	stw	r9,1224(sp)
    2518:	002b883a 	mov	r21,zero
    251c:	48000216 	blt	r9,zero,2528 <___vfprintf_internal_r+0x5e0>
    2520:	013fdfc4 	movi	r4,-129
    2524:	8922703a 	and	r17,r17,r4
    2528:	1801ed1e 	bne	r3,zero,2ce0 <___vfprintf_internal_r+0xd98>
    252c:	4802e026 	beq	r9,zero,30b0 <___vfprintf_internal_r+0x1168>
    2530:	10803fcc 	andi	r2,r2,255
    2534:	00c00044 	movi	r3,1
    2538:	10c20f26 	beq	r2,r3,2d78 <___vfprintf_internal_r+0xe30>
    253c:	00c00084 	movi	r3,2
    2540:	10c2fd26 	beq	r2,r3,3138 <___vfprintf_internal_r+0x11f0>
    2544:	d8c10e04 	addi	r3,sp,1080
    2548:	9808d0fa 	srli	r4,r19,3
    254c:	e00a977a 	slli	r5,fp,29
    2550:	e038d0fa 	srli	fp,fp,3
    2554:	9cc001cc 	andi	r19,r19,7
    2558:	98800c04 	addi	r2,r19,48
    255c:	18ffffc4 	addi	r3,r3,-1
    2560:	2926b03a 	or	r19,r5,r4
    2564:	18800005 	stb	r2,0(r3)
    2568:	9f08b03a 	or	r4,r19,fp
    256c:	203ff61e 	bne	r4,zero,2548 <___vfprintf_internal_r+0x600>
    2570:	8900004c 	andi	r4,r17,1
    2574:	d8c13115 	stw	r3,1220(sp)
    2578:	2003791e 	bne	r4,zero,3360 <___vfprintf_internal_r+0x1418>
    257c:	dac12817 	ldw	r11,1184(sp)
    2580:	58e5c83a 	sub	r18,r11,r3
    2584:	9005883a 	mov	r2,r18
    2588:	9240010e 	bge	r18,r9,2590 <___vfprintf_internal_r+0x648>
    258c:	4805883a 	mov	r2,r9
    2590:	d8812b15 	stw	r2,1196(sp)
    2594:	d8013415 	stw	zero,1232(sp)
    2598:	a8803fcc 	andi	r2,r21,255
    259c:	1080201c 	xori	r2,r2,128
    25a0:	10bfe004 	addi	r2,r2,-128
    25a4:	10000326 	beq	r2,zero,25b4 <___vfprintf_internal_r+0x66c>
    25a8:	db012b17 	ldw	r12,1196(sp)
    25ac:	63000044 	addi	r12,r12,1
    25b0:	db012b15 	stw	r12,1196(sp)
    25b4:	88c0008c 	andi	r3,r17,2
    25b8:	d8c12c15 	stw	r3,1200(sp)
    25bc:	18000326 	beq	r3,zero,25cc <___vfprintf_internal_r+0x684>
    25c0:	dac12b17 	ldw	r11,1196(sp)
    25c4:	5ac00084 	addi	r11,r11,2
    25c8:	dac12b15 	stw	r11,1196(sp)
    25cc:	8b00210c 	andi	r12,r17,132
    25d0:	db013015 	stw	r12,1216(sp)
    25d4:	6001c01e 	bne	r12,zero,2cd8 <___vfprintf_internal_r+0xd90>
    25d8:	dac12e17 	ldw	r11,1208(sp)
    25dc:	db012b17 	ldw	r12,1196(sp)
    25e0:	5b39c83a 	sub	fp,r11,r12
    25e4:	0701bc0e 	bge	zero,fp,2cd8 <___vfprintf_internal_r+0xd90>
    25e8:	02400404 	movi	r9,16
    25ec:	d8c12017 	ldw	r3,1152(sp)
    25f0:	d8811f17 	ldw	r2,1148(sp)
    25f4:	4f05220e 	bge	r9,fp,3a80 <___vfprintf_internal_r+0x1b38>
    25f8:	01400074 	movhi	r5,1
    25fc:	297fd784 	addi	r5,r5,-162
    2600:	d9413615 	stw	r5,1240(sp)
    2604:	482b883a 	mov	r21,r9
    2608:	04c001c4 	movi	r19,7
    260c:	00000306 	br	261c <___vfprintf_internal_r+0x6d4>
    2610:	e73ffc04 	addi	fp,fp,-16
    2614:	42000204 	addi	r8,r8,8
    2618:	af00130e 	bge	r21,fp,2668 <___vfprintf_internal_r+0x720>
    261c:	02c00074 	movhi	r11,1
    2620:	18c00404 	addi	r3,r3,16
    2624:	10800044 	addi	r2,r2,1
    2628:	5affd784 	addi	r11,r11,-162
    262c:	42c00015 	stw	r11,0(r8)
    2630:	45400115 	stw	r21,4(r8)
    2634:	d8c12015 	stw	r3,1152(sp)
    2638:	d8811f15 	stw	r2,1148(sp)
    263c:	98bff40e 	bge	r19,r2,2610 <___vfprintf_internal_r+0x6c8>
    2640:	b009883a 	mov	r4,r22
    2644:	b80b883a 	mov	r5,r23
    2648:	d9811e04 	addi	r6,sp,1144
    264c:	00089e00 	call	89e0 <__sprint_r>
    2650:	103f541e 	bne	r2,zero,23a4 <___vfprintf_internal_r+0x45c>
    2654:	e73ffc04 	addi	fp,fp,-16
    2658:	d8c12017 	ldw	r3,1152(sp)
    265c:	d8811f17 	ldw	r2,1148(sp)
    2660:	da000404 	addi	r8,sp,16
    2664:	af3fed16 	blt	r21,fp,261c <___vfprintf_internal_r+0x6d4>
    2668:	db013617 	ldw	r12,1240(sp)
    266c:	e0c7883a 	add	r3,fp,r3
    2670:	10800044 	addi	r2,r2,1
    2674:	43000015 	stw	r12,0(r8)
    2678:	47000115 	stw	fp,4(r8)
    267c:	d8c12015 	stw	r3,1152(sp)
    2680:	d8811f15 	stw	r2,1148(sp)
    2684:	010001c4 	movi	r4,7
    2688:	2082f416 	blt	r4,r2,325c <___vfprintf_internal_r+0x1314>
    268c:	d8812787 	ldb	r2,1182(sp)
    2690:	42000204 	addi	r8,r8,8
    2694:	10000c26 	beq	r2,zero,26c8 <___vfprintf_internal_r+0x780>
    2698:	d8811f17 	ldw	r2,1148(sp)
    269c:	d9012784 	addi	r4,sp,1182
    26a0:	18c00044 	addi	r3,r3,1
    26a4:	10800044 	addi	r2,r2,1
    26a8:	41000015 	stw	r4,0(r8)
    26ac:	01000044 	movi	r4,1
    26b0:	41000115 	stw	r4,4(r8)
    26b4:	d8c12015 	stw	r3,1152(sp)
    26b8:	d8811f15 	stw	r2,1148(sp)
    26bc:	010001c4 	movi	r4,7
    26c0:	20828d16 	blt	r4,r2,30f8 <___vfprintf_internal_r+0x11b0>
    26c4:	42000204 	addi	r8,r8,8
    26c8:	dac12c17 	ldw	r11,1200(sp)
    26cc:	58000c26 	beq	r11,zero,2700 <___vfprintf_internal_r+0x7b8>
    26d0:	d8811f17 	ldw	r2,1148(sp)
    26d4:	d9012704 	addi	r4,sp,1180
    26d8:	18c00084 	addi	r3,r3,2
    26dc:	10800044 	addi	r2,r2,1
    26e0:	41000015 	stw	r4,0(r8)
    26e4:	01000084 	movi	r4,2
    26e8:	41000115 	stw	r4,4(r8)
    26ec:	d8c12015 	stw	r3,1152(sp)
    26f0:	d8811f15 	stw	r2,1148(sp)
    26f4:	010001c4 	movi	r4,7
    26f8:	20828716 	blt	r4,r2,3118 <___vfprintf_internal_r+0x11d0>
    26fc:	42000204 	addi	r8,r8,8
    2700:	db013017 	ldw	r12,1216(sp)
    2704:	00802004 	movi	r2,128
    2708:	6081e926 	beq	r12,r2,2eb0 <___vfprintf_internal_r+0xf68>
    270c:	db013217 	ldw	r12,1224(sp)
    2710:	64abc83a 	sub	r21,r12,r18
    2714:	0540260e 	bge	zero,r21,27b0 <___vfprintf_internal_r+0x868>
    2718:	07000404 	movi	fp,16
    271c:	d8811f17 	ldw	r2,1148(sp)
    2720:	e5443d0e 	bge	fp,r21,3818 <___vfprintf_internal_r+0x18d0>
    2724:	01400074 	movhi	r5,1
    2728:	297fd384 	addi	r5,r5,-178
    272c:	d9412c15 	stw	r5,1200(sp)
    2730:	04c001c4 	movi	r19,7
    2734:	00000306 	br	2744 <___vfprintf_internal_r+0x7fc>
    2738:	ad7ffc04 	addi	r21,r21,-16
    273c:	42000204 	addi	r8,r8,8
    2740:	e540110e 	bge	fp,r21,2788 <___vfprintf_internal_r+0x840>
    2744:	18c00404 	addi	r3,r3,16
    2748:	10800044 	addi	r2,r2,1
    274c:	45000015 	stw	r20,0(r8)
    2750:	47000115 	stw	fp,4(r8)
    2754:	d8c12015 	stw	r3,1152(sp)
    2758:	d8811f15 	stw	r2,1148(sp)
    275c:	98bff60e 	bge	r19,r2,2738 <___vfprintf_internal_r+0x7f0>
    2760:	b009883a 	mov	r4,r22
    2764:	b80b883a 	mov	r5,r23
    2768:	d9811e04 	addi	r6,sp,1144
    276c:	00089e00 	call	89e0 <__sprint_r>
    2770:	103f0c1e 	bne	r2,zero,23a4 <___vfprintf_internal_r+0x45c>
    2774:	ad7ffc04 	addi	r21,r21,-16
    2778:	d8c12017 	ldw	r3,1152(sp)
    277c:	d8811f17 	ldw	r2,1148(sp)
    2780:	da000404 	addi	r8,sp,16
    2784:	e57fef16 	blt	fp,r21,2744 <___vfprintf_internal_r+0x7fc>
    2788:	dac12c17 	ldw	r11,1200(sp)
    278c:	1d47883a 	add	r3,r3,r21
    2790:	10800044 	addi	r2,r2,1
    2794:	42c00015 	stw	r11,0(r8)
    2798:	45400115 	stw	r21,4(r8)
    279c:	d8c12015 	stw	r3,1152(sp)
    27a0:	d8811f15 	stw	r2,1148(sp)
    27a4:	010001c4 	movi	r4,7
    27a8:	20824b16 	blt	r4,r2,30d8 <___vfprintf_internal_r+0x1190>
    27ac:	42000204 	addi	r8,r8,8
    27b0:	8880400c 	andi	r2,r17,256
    27b4:	1001761e 	bne	r2,zero,2d90 <___vfprintf_internal_r+0xe48>
    27b8:	d8811f17 	ldw	r2,1148(sp)
    27bc:	db013117 	ldw	r12,1220(sp)
    27c0:	1c87883a 	add	r3,r3,r18
    27c4:	10800044 	addi	r2,r2,1
    27c8:	43000015 	stw	r12,0(r8)
    27cc:	44800115 	stw	r18,4(r8)
    27d0:	d8c12015 	stw	r3,1152(sp)
    27d4:	d8811f15 	stw	r2,1148(sp)
    27d8:	010001c4 	movi	r4,7
    27dc:	20822616 	blt	r4,r2,3078 <___vfprintf_internal_r+0x1130>
    27e0:	42000204 	addi	r8,r8,8
    27e4:	8c40010c 	andi	r17,r17,4
    27e8:	88003126 	beq	r17,zero,28b0 <___vfprintf_internal_r+0x968>
    27ec:	db012e17 	ldw	r12,1208(sp)
    27f0:	dac12b17 	ldw	r11,1196(sp)
    27f4:	62e1c83a 	sub	r16,r12,r11
    27f8:	04002d0e 	bge	zero,r16,28b0 <___vfprintf_internal_r+0x968>
    27fc:	04400404 	movi	r17,16
    2800:	d8811f17 	ldw	r2,1148(sp)
    2804:	8c04df0e 	bge	r17,r16,3b84 <___vfprintf_internal_r+0x1c3c>
    2808:	01000074 	movhi	r4,1
    280c:	213fd784 	addi	r4,r4,-162
    2810:	d9013615 	stw	r4,1240(sp)
    2814:	048001c4 	movi	r18,7
    2818:	00000306 	br	2828 <___vfprintf_internal_r+0x8e0>
    281c:	843ffc04 	addi	r16,r16,-16
    2820:	42000204 	addi	r8,r8,8
    2824:	8c00130e 	bge	r17,r16,2874 <___vfprintf_internal_r+0x92c>
    2828:	01400074 	movhi	r5,1
    282c:	18c00404 	addi	r3,r3,16
    2830:	10800044 	addi	r2,r2,1
    2834:	297fd784 	addi	r5,r5,-162
    2838:	41400015 	stw	r5,0(r8)
    283c:	44400115 	stw	r17,4(r8)
    2840:	d8c12015 	stw	r3,1152(sp)
    2844:	d8811f15 	stw	r2,1148(sp)
    2848:	90bff40e 	bge	r18,r2,281c <___vfprintf_internal_r+0x8d4>
    284c:	b009883a 	mov	r4,r22
    2850:	b80b883a 	mov	r5,r23
    2854:	d9811e04 	addi	r6,sp,1144
    2858:	00089e00 	call	89e0 <__sprint_r>
    285c:	103ed11e 	bne	r2,zero,23a4 <___vfprintf_internal_r+0x45c>
    2860:	843ffc04 	addi	r16,r16,-16
    2864:	d8c12017 	ldw	r3,1152(sp)
    2868:	d8811f17 	ldw	r2,1148(sp)
    286c:	da000404 	addi	r8,sp,16
    2870:	8c3fed16 	blt	r17,r16,2828 <___vfprintf_internal_r+0x8e0>
    2874:	dac13617 	ldw	r11,1240(sp)
    2878:	1c07883a 	add	r3,r3,r16
    287c:	10800044 	addi	r2,r2,1
    2880:	42c00015 	stw	r11,0(r8)
    2884:	44000115 	stw	r16,4(r8)
    2888:	d8c12015 	stw	r3,1152(sp)
    288c:	d8811f15 	stw	r2,1148(sp)
    2890:	010001c4 	movi	r4,7
    2894:	2080060e 	bge	r4,r2,28b0 <___vfprintf_internal_r+0x968>
    2898:	b009883a 	mov	r4,r22
    289c:	b80b883a 	mov	r5,r23
    28a0:	d9811e04 	addi	r6,sp,1144
    28a4:	00089e00 	call	89e0 <__sprint_r>
    28a8:	103ebe1e 	bne	r2,zero,23a4 <___vfprintf_internal_r+0x45c>
    28ac:	d8c12017 	ldw	r3,1152(sp)
    28b0:	d8812b17 	ldw	r2,1196(sp)
    28b4:	db012e17 	ldw	r12,1208(sp)
    28b8:	1300010e 	bge	r2,r12,28c0 <___vfprintf_internal_r+0x978>
    28bc:	6005883a 	mov	r2,r12
    28c0:	dac12f17 	ldw	r11,1212(sp)
    28c4:	5897883a 	add	r11,r11,r2
    28c8:	dac12f15 	stw	r11,1212(sp)
    28cc:	1801f21e 	bne	r3,zero,3098 <___vfprintf_internal_r+0x1150>
    28d0:	d8011f15 	stw	zero,1148(sp)
    28d4:	da000404 	addi	r8,sp,16
    28d8:	003dd806 	br	203c <___vfprintf_internal_r+0xf4>
    28dc:	8c400414 	ori	r17,r17,16
    28e0:	d8c12a15 	stw	r3,1192(sp)
    28e4:	88c0080c 	andi	r3,r17,32
    28e8:	d8812d17 	ldw	r2,1204(sp)
    28ec:	18004626 	beq	r3,zero,2a08 <___vfprintf_internal_r+0xac0>
    28f0:	dac12d17 	ldw	r11,1204(sp)
    28f4:	14c00017 	ldw	r19,0(r2)
    28f8:	17000117 	ldw	fp,4(r2)
    28fc:	5ac00204 	addi	r11,r11,8
    2900:	dac12d15 	stw	r11,1204(sp)
    2904:	00800044 	movi	r2,1
    2908:	9f06b03a 	or	r3,r19,fp
    290c:	003f0006 	br	2510 <___vfprintf_internal_r+0x5c8>
    2910:	1805883a 	mov	r2,r3
    2914:	d8012e15 	stw	zero,1208(sp)
    2918:	82fff404 	addi	r11,r16,-48
    291c:	0019883a 	mov	r12,zero
    2920:	14000007 	ldb	r16,0(r2)
    2924:	630002a4 	muli	r12,r12,10
    2928:	18c00044 	addi	r3,r3,1
    292c:	1805883a 	mov	r2,r3
    2930:	62d9883a 	add	r12,r12,r11
    2934:	82fff404 	addi	r11,r16,-48
    2938:	2afff92e 	bgeu	r5,r11,2920 <___vfprintf_internal_r+0x9d8>
    293c:	db012e15 	stw	r12,1208(sp)
    2940:	003de906 	br	20e8 <___vfprintf_internal_r+0x1a0>
    2944:	8c400414 	ori	r17,r17,16
    2948:	d8c12a15 	stw	r3,1192(sp)
    294c:	d9812785 	stb	r6,1182(sp)
    2950:	8880080c 	andi	r2,r17,32
    2954:	d8c12d17 	ldw	r3,1204(sp)
    2958:	10007a26 	beq	r2,zero,2b44 <___vfprintf_internal_r+0xbfc>
    295c:	db012d17 	ldw	r12,1204(sp)
    2960:	18800117 	ldw	r2,4(r3)
    2964:	1cc00017 	ldw	r19,0(r3)
    2968:	63000204 	addi	r12,r12,8
    296c:	db012d15 	stw	r12,1204(sp)
    2970:	1039883a 	mov	fp,r2
    2974:	10031016 	blt	r2,zero,35b8 <___vfprintf_internal_r+0x1670>
    2978:	dd412783 	ldbu	r21,1182(sp)
    297c:	da413215 	stw	r9,1224(sp)
    2980:	00800044 	movi	r2,1
    2984:	9f06b03a 	or	r3,r19,fp
    2988:	003ee406 	br	251c <___vfprintf_internal_r+0x5d4>
    298c:	03000074 	movhi	r12,1
    2990:	633fc704 	addi	r12,r12,-228
    2994:	d8c12a15 	stw	r3,1192(sp)
    2998:	d9812785 	stb	r6,1182(sp)
    299c:	db013b15 	stw	r12,1260(sp)
    29a0:	88c0080c 	andi	r3,r17,32
    29a4:	d8812d17 	ldw	r2,1204(sp)
    29a8:	18002b26 	beq	r3,zero,2a58 <___vfprintf_internal_r+0xb10>
    29ac:	dac12d17 	ldw	r11,1204(sp)
    29b0:	14c00017 	ldw	r19,0(r2)
    29b4:	17000117 	ldw	fp,4(r2)
    29b8:	5ac00204 	addi	r11,r11,8
    29bc:	dac12d15 	stw	r11,1204(sp)
    29c0:	8880004c 	andi	r2,r17,1
    29c4:	10025b26 	beq	r2,zero,3334 <___vfprintf_internal_r+0x13ec>
    29c8:	9f06b03a 	or	r3,r19,fp
    29cc:	18037026 	beq	r3,zero,3790 <___vfprintf_internal_r+0x1848>
    29d0:	00800c04 	movi	r2,48
    29d4:	d8812705 	stb	r2,1180(sp)
    29d8:	dc012745 	stb	r16,1181(sp)
    29dc:	8c400094 	ori	r17,r17,2
    29e0:	00800084 	movi	r2,2
    29e4:	003eca06 	br	2510 <___vfprintf_internal_r+0x5c8>
    29e8:	8c400814 	ori	r17,r17,32
    29ec:	1805883a 	mov	r2,r3
    29f0:	1c000007 	ldb	r16,0(r3)
    29f4:	003dbb06 	br	20e4 <___vfprintf_internal_r+0x19c>
    29f8:	d8c12a15 	stw	r3,1192(sp)
    29fc:	88c0080c 	andi	r3,r17,32
    2a00:	d8812d17 	ldw	r2,1204(sp)
    2a04:	183fba1e 	bne	r3,zero,28f0 <___vfprintf_internal_r+0x9a8>
    2a08:	88c0040c 	andi	r3,r17,16
    2a0c:	18024c1e 	bne	r3,zero,3340 <___vfprintf_internal_r+0x13f8>
    2a10:	88c0100c 	andi	r3,r17,64
    2a14:	18024a26 	beq	r3,zero,3340 <___vfprintf_internal_r+0x13f8>
    2a18:	dac12d17 	ldw	r11,1204(sp)
    2a1c:	14c0000b 	ldhu	r19,0(r2)
    2a20:	0039883a 	mov	fp,zero
    2a24:	5ac00104 	addi	r11,r11,4
    2a28:	dac12d15 	stw	r11,1204(sp)
    2a2c:	00800044 	movi	r2,1
    2a30:	9807883a 	mov	r3,r19
    2a34:	003eb606 	br	2510 <___vfprintf_internal_r+0x5c8>
    2a38:	00800074 	movhi	r2,1
    2a3c:	10bfcc04 	addi	r2,r2,-208
    2a40:	d8c12a15 	stw	r3,1192(sp)
    2a44:	d8813b15 	stw	r2,1260(sp)
    2a48:	d9812785 	stb	r6,1182(sp)
    2a4c:	88c0080c 	andi	r3,r17,32
    2a50:	d8812d17 	ldw	r2,1204(sp)
    2a54:	183fd51e 	bne	r3,zero,29ac <___vfprintf_internal_r+0xa64>
    2a58:	88c0040c 	andi	r3,r17,16
    2a5c:	18034126 	beq	r3,zero,3764 <___vfprintf_internal_r+0x181c>
    2a60:	db012d17 	ldw	r12,1204(sp)
    2a64:	14c00017 	ldw	r19,0(r2)
    2a68:	0039883a 	mov	fp,zero
    2a6c:	63000104 	addi	r12,r12,4
    2a70:	db012d15 	stw	r12,1204(sp)
    2a74:	003fd206 	br	29c0 <___vfprintf_internal_r+0xa78>
    2a78:	1c000007 	ldb	r16,0(r3)
    2a7c:	81c3d626 	beq	r16,r7,39d8 <___vfprintf_internal_r+0x1a90>
    2a80:	8c400414 	ori	r17,r17,16
    2a84:	1805883a 	mov	r2,r3
    2a88:	003d9606 	br	20e4 <___vfprintf_internal_r+0x19c>
    2a8c:	d8c12a15 	stw	r3,1192(sp)
    2a90:	d9812785 	stb	r6,1182(sp)
    2a94:	8880080c 	andi	r2,r17,32
    2a98:	10033f26 	beq	r2,zero,3798 <___vfprintf_internal_r+0x1850>
    2a9c:	db012d17 	ldw	r12,1204(sp)
    2aa0:	dac12f17 	ldw	r11,1212(sp)
    2aa4:	60800017 	ldw	r2,0(r12)
    2aa8:	5807d7fa 	srai	r3,r11,31
    2aac:	63000104 	addi	r12,r12,4
    2ab0:	db012d15 	stw	r12,1204(sp)
    2ab4:	12c00015 	stw	r11,0(r2)
    2ab8:	10c00115 	stw	r3,4(r2)
    2abc:	003d5f06 	br	203c <___vfprintf_internal_r+0xf4>
    2ac0:	d8c12a15 	stw	r3,1192(sp)
    2ac4:	88c0080c 	andi	r3,r17,32
    2ac8:	d8812d17 	ldw	r2,1204(sp)
    2acc:	183e891e 	bne	r3,zero,24f4 <___vfprintf_internal_r+0x5ac>
    2ad0:	88c0040c 	andi	r3,r17,16
    2ad4:	1801ea1e 	bne	r3,zero,3280 <___vfprintf_internal_r+0x1338>
    2ad8:	88c0100c 	andi	r3,r17,64
    2adc:	1801e826 	beq	r3,zero,3280 <___vfprintf_internal_r+0x1338>
    2ae0:	db012d17 	ldw	r12,1204(sp)
    2ae4:	14c0000b 	ldhu	r19,0(r2)
    2ae8:	0039883a 	mov	fp,zero
    2aec:	63000104 	addi	r12,r12,4
    2af0:	db012d15 	stw	r12,1204(sp)
    2af4:	0005883a 	mov	r2,zero
    2af8:	9807883a 	mov	r3,r19
    2afc:	003e8406 	br	2510 <___vfprintf_internal_r+0x5c8>
    2b00:	30803fcc 	andi	r2,r6,255
    2b04:	1080201c 	xori	r2,r2,128
    2b08:	10bfe004 	addi	r2,r2,-128
    2b0c:	10031d1e 	bne	r2,zero,3784 <___vfprintf_internal_r+0x183c>
    2b10:	1805883a 	mov	r2,r3
    2b14:	01800804 	movi	r6,32
    2b18:	1c000007 	ldb	r16,0(r3)
    2b1c:	003d7106 	br	20e4 <___vfprintf_internal_r+0x19c>
    2b20:	8c400054 	ori	r17,r17,1
    2b24:	1805883a 	mov	r2,r3
    2b28:	1c000007 	ldb	r16,0(r3)
    2b2c:	003d6d06 	br	20e4 <___vfprintf_internal_r+0x19c>
    2b30:	d8c12a15 	stw	r3,1192(sp)
    2b34:	d9812785 	stb	r6,1182(sp)
    2b38:	8880080c 	andi	r2,r17,32
    2b3c:	d8c12d17 	ldw	r3,1204(sp)
    2b40:	103f861e 	bne	r2,zero,295c <___vfprintf_internal_r+0xa14>
    2b44:	8880040c 	andi	r2,r17,16
    2b48:	1001f31e 	bne	r2,zero,3318 <___vfprintf_internal_r+0x13d0>
    2b4c:	8880100c 	andi	r2,r17,64
    2b50:	1001f126 	beq	r2,zero,3318 <___vfprintf_internal_r+0x13d0>
    2b54:	1cc0000f 	ldh	r19,0(r3)
    2b58:	db012d17 	ldw	r12,1204(sp)
    2b5c:	9839d7fa 	srai	fp,r19,31
    2b60:	63000104 	addi	r12,r12,4
    2b64:	db012d15 	stw	r12,1204(sp)
    2b68:	e005883a 	mov	r2,fp
    2b6c:	003f8106 	br	2974 <___vfprintf_internal_r+0xa2c>
    2b70:	8c401014 	ori	r17,r17,64
    2b74:	1805883a 	mov	r2,r3
    2b78:	1c000007 	ldb	r16,0(r3)
    2b7c:	003d5906 	br	20e4 <___vfprintf_internal_r+0x19c>
    2b80:	db012d17 	ldw	r12,1204(sp)
    2b84:	d8c12a15 	stw	r3,1192(sp)
    2b88:	00c00044 	movi	r3,1
    2b8c:	60800017 	ldw	r2,0(r12)
    2b90:	63000104 	addi	r12,r12,4
    2b94:	d8c12b15 	stw	r3,1196(sp)
    2b98:	d8012785 	stb	zero,1182(sp)
    2b9c:	d8810405 	stb	r2,1040(sp)
    2ba0:	db012d15 	stw	r12,1204(sp)
    2ba4:	dac10404 	addi	r11,sp,1040
    2ba8:	1825883a 	mov	r18,r3
    2bac:	d8013215 	stw	zero,1224(sp)
    2bb0:	d8013415 	stw	zero,1232(sp)
    2bb4:	dac13115 	stw	r11,1220(sp)
    2bb8:	0005883a 	mov	r2,zero
    2bbc:	003e7d06 	br	25b4 <___vfprintf_internal_r+0x66c>
    2bc0:	db012d17 	ldw	r12,1204(sp)
    2bc4:	00800c04 	movi	r2,48
    2bc8:	d8812705 	stb	r2,1180(sp)
    2bcc:	64c00017 	ldw	r19,0(r12)
    2bd0:	00801e04 	movi	r2,120
    2bd4:	d8812745 	stb	r2,1181(sp)
    2bd8:	00800074 	movhi	r2,1
    2bdc:	10bfcc04 	addi	r2,r2,-208
    2be0:	63000104 	addi	r12,r12,4
    2be4:	d8c12a15 	stw	r3,1192(sp)
    2be8:	d8813b15 	stw	r2,1260(sp)
    2bec:	0039883a 	mov	fp,zero
    2bf0:	8c400094 	ori	r17,r17,2
    2bf4:	db012d15 	stw	r12,1204(sp)
    2bf8:	00800084 	movi	r2,2
    2bfc:	04001e04 	movi	r16,120
    2c00:	9807883a 	mov	r3,r19
    2c04:	003e4206 	br	2510 <___vfprintf_internal_r+0x5c8>
    2c08:	dac12d17 	ldw	r11,1204(sp)
    2c0c:	db012d17 	ldw	r12,1204(sp)
    2c10:	d8c12a15 	stw	r3,1192(sp)
    2c14:	5ac00017 	ldw	r11,0(r11)
    2c18:	d8012785 	stb	zero,1182(sp)
    2c1c:	64c00104 	addi	r19,r12,4
    2c20:	dac13115 	stw	r11,1220(sp)
    2c24:	5803e826 	beq	r11,zero,3bc8 <___vfprintf_internal_r+0x1c80>
    2c28:	d9013117 	ldw	r4,1220(sp)
    2c2c:	48037a16 	blt	r9,zero,3a18 <___vfprintf_internal_r+0x1ad0>
    2c30:	480d883a 	mov	r6,r9
    2c34:	000b883a 	mov	r5,zero
    2c38:	da013f15 	stw	r8,1276(sp)
    2c3c:	da413e15 	stw	r9,1272(sp)
    2c40:	0006de80 	call	6de8 <memchr>
    2c44:	da013f17 	ldw	r8,1276(sp)
    2c48:	da413e17 	ldw	r9,1272(sp)
    2c4c:	10044426 	beq	r2,zero,3d60 <___vfprintf_internal_r+0x1e18>
    2c50:	d8c13117 	ldw	r3,1220(sp)
    2c54:	10e5c83a 	sub	r18,r2,r3
    2c58:	4c834416 	blt	r9,r18,396c <___vfprintf_internal_r+0x1a24>
    2c5c:	9005883a 	mov	r2,r18
    2c60:	90037216 	blt	r18,zero,3a2c <___vfprintf_internal_r+0x1ae4>
    2c64:	dd412783 	ldbu	r21,1182(sp)
    2c68:	d8812b15 	stw	r2,1196(sp)
    2c6c:	dcc12d15 	stw	r19,1204(sp)
    2c70:	d8013215 	stw	zero,1224(sp)
    2c74:	d8013415 	stw	zero,1232(sp)
    2c78:	003e4706 	br	2598 <___vfprintf_internal_r+0x650>
    2c7c:	dac12d17 	ldw	r11,1204(sp)
    2c80:	db012d17 	ldw	r12,1204(sp)
    2c84:	5ac00017 	ldw	r11,0(r11)
    2c88:	dac12e15 	stw	r11,1208(sp)
    2c8c:	62c00104 	addi	r11,r12,4
    2c90:	db012e17 	ldw	r12,1208(sp)
    2c94:	60034a16 	blt	r12,zero,39c0 <___vfprintf_internal_r+0x1a78>
    2c98:	dac12d15 	stw	r11,1204(sp)
    2c9c:	1805883a 	mov	r2,r3
    2ca0:	1c000007 	ldb	r16,0(r3)
    2ca4:	003d0f06 	br	20e4 <___vfprintf_internal_r+0x19c>
    2ca8:	1805883a 	mov	r2,r3
    2cac:	01800ac4 	movi	r6,43
    2cb0:	1c000007 	ldb	r16,0(r3)
    2cb4:	003d0b06 	br	20e4 <___vfprintf_internal_r+0x19c>
    2cb8:	d8c12a15 	stw	r3,1192(sp)
    2cbc:	d9812785 	stb	r6,1182(sp)
    2cc0:	803db226 	beq	r16,zero,238c <___vfprintf_internal_r+0x444>
    2cc4:	00c00044 	movi	r3,1
    2cc8:	d8c12b15 	stw	r3,1196(sp)
    2ccc:	dc010405 	stb	r16,1040(sp)
    2cd0:	d8012785 	stb	zero,1182(sp)
    2cd4:	003fb306 	br	2ba4 <___vfprintf_internal_r+0xc5c>
    2cd8:	d8c12017 	ldw	r3,1152(sp)
    2cdc:	003e6d06 	br	2694 <___vfprintf_internal_r+0x74c>
    2ce0:	10803fcc 	andi	r2,r2,255
    2ce4:	00c00044 	movi	r3,1
    2ce8:	10fe141e 	bne	r2,r3,253c <___vfprintf_internal_r+0x5f4>
    2cec:	e000021e 	bne	fp,zero,2cf8 <___vfprintf_internal_r+0xdb0>
    2cf0:	00800244 	movi	r2,9
    2cf4:	14c0202e 	bgeu	r2,r19,2d78 <___vfprintf_internal_r+0xe30>
    2cf8:	dc012b15 	stw	r16,1196(sp)
    2cfc:	dc412c15 	stw	r17,1200(sp)
    2d00:	9821883a 	mov	r16,r19
    2d04:	e023883a 	mov	r17,fp
    2d08:	dc810e04 	addi	r18,sp,1080
    2d0c:	4027883a 	mov	r19,r8
    2d10:	4839883a 	mov	fp,r9
    2d14:	8009883a 	mov	r4,r16
    2d18:	880b883a 	mov	r5,r17
    2d1c:	01800284 	movi	r6,10
    2d20:	000f883a 	mov	r7,zero
    2d24:	000aa3c0 	call	aa3c <__umoddi3>
    2d28:	10800c04 	addi	r2,r2,48
    2d2c:	94bfffc4 	addi	r18,r18,-1
    2d30:	8009883a 	mov	r4,r16
    2d34:	880b883a 	mov	r5,r17
    2d38:	01800284 	movi	r6,10
    2d3c:	000f883a 	mov	r7,zero
    2d40:	90800005 	stb	r2,0(r18)
    2d44:	000a47c0 	call	a47c <__udivdi3>
    2d48:	1021883a 	mov	r16,r2
    2d4c:	10c4b03a 	or	r2,r2,r3
    2d50:	1823883a 	mov	r17,r3
    2d54:	103fef1e 	bne	r2,zero,2d14 <___vfprintf_internal_r+0xdcc>
    2d58:	dac12817 	ldw	r11,1184(sp)
    2d5c:	dc813115 	stw	r18,1220(sp)
    2d60:	dc012b17 	ldw	r16,1196(sp)
    2d64:	9811883a 	mov	r8,r19
    2d68:	dc412c17 	ldw	r17,1200(sp)
    2d6c:	e013883a 	mov	r9,fp
    2d70:	5ca5c83a 	sub	r18,r11,r18
    2d74:	003e0306 	br	2584 <___vfprintf_internal_r+0x63c>
    2d78:	9cc00c04 	addi	r19,r19,48
    2d7c:	d8c10dc4 	addi	r3,sp,1079
    2d80:	dcc10dc5 	stb	r19,1079(sp)
    2d84:	dc813c17 	ldw	r18,1264(sp)
    2d88:	d8c13115 	stw	r3,1220(sp)
    2d8c:	003dfd06 	br	2584 <___vfprintf_internal_r+0x63c>
    2d90:	00801944 	movi	r2,101
    2d94:	1400710e 	bge	r2,r16,2f5c <___vfprintf_internal_r+0x1014>
    2d98:	d9013717 	ldw	r4,1244(sp)
    2d9c:	d9413917 	ldw	r5,1252(sp)
    2da0:	000d883a 	mov	r6,zero
    2da4:	000f883a 	mov	r7,zero
    2da8:	d8c13d15 	stw	r3,1268(sp)
    2dac:	da013f15 	stw	r8,1276(sp)
    2db0:	000c1340 	call	c134 <__eqdf2>
    2db4:	d8c13d17 	ldw	r3,1268(sp)
    2db8:	da013f17 	ldw	r8,1276(sp)
    2dbc:	1000ef1e 	bne	r2,zero,317c <___vfprintf_internal_r+0x1234>
    2dc0:	d8811f17 	ldw	r2,1148(sp)
    2dc4:	01000074 	movhi	r4,1
    2dc8:	213fd304 	addi	r4,r4,-180
    2dcc:	18c00044 	addi	r3,r3,1
    2dd0:	10800044 	addi	r2,r2,1
    2dd4:	41000015 	stw	r4,0(r8)
    2dd8:	01000044 	movi	r4,1
    2ddc:	41000115 	stw	r4,4(r8)
    2de0:	d8c12015 	stw	r3,1152(sp)
    2de4:	d8811f15 	stw	r2,1148(sp)
    2de8:	010001c4 	movi	r4,7
    2dec:	20828e16 	blt	r4,r2,3828 <___vfprintf_internal_r+0x18e0>
    2df0:	42000204 	addi	r8,r8,8
    2df4:	d8812617 	ldw	r2,1176(sp)
    2df8:	dac13317 	ldw	r11,1228(sp)
    2dfc:	12c00216 	blt	r2,r11,2e08 <___vfprintf_internal_r+0xec0>
    2e00:	8880004c 	andi	r2,r17,1
    2e04:	103e7726 	beq	r2,zero,27e4 <___vfprintf_internal_r+0x89c>
    2e08:	db013817 	ldw	r12,1248(sp)
    2e0c:	d8811f17 	ldw	r2,1148(sp)
    2e10:	dac13517 	ldw	r11,1236(sp)
    2e14:	1b07883a 	add	r3,r3,r12
    2e18:	10800044 	addi	r2,r2,1
    2e1c:	42c00015 	stw	r11,0(r8)
    2e20:	43000115 	stw	r12,4(r8)
    2e24:	d8c12015 	stw	r3,1152(sp)
    2e28:	d8811f15 	stw	r2,1148(sp)
    2e2c:	010001c4 	movi	r4,7
    2e30:	2082ed16 	blt	r4,r2,39e8 <___vfprintf_internal_r+0x1aa0>
    2e34:	42000204 	addi	r8,r8,8
    2e38:	db013317 	ldw	r12,1228(sp)
    2e3c:	643fffc4 	addi	r16,r12,-1
    2e40:	043e680e 	bge	zero,r16,27e4 <___vfprintf_internal_r+0x89c>
    2e44:	04800404 	movi	r18,16
    2e48:	d8811f17 	ldw	r2,1148(sp)
    2e4c:	94007e0e 	bge	r18,r16,3048 <___vfprintf_internal_r+0x1100>
    2e50:	01400074 	movhi	r5,1
    2e54:	297fd384 	addi	r5,r5,-178
    2e58:	d9412c15 	stw	r5,1200(sp)
    2e5c:	054001c4 	movi	r21,7
    2e60:	00000306 	br	2e70 <___vfprintf_internal_r+0xf28>
    2e64:	42000204 	addi	r8,r8,8
    2e68:	843ffc04 	addi	r16,r16,-16
    2e6c:	9400790e 	bge	r18,r16,3054 <___vfprintf_internal_r+0x110c>
    2e70:	18c00404 	addi	r3,r3,16
    2e74:	10800044 	addi	r2,r2,1
    2e78:	45000015 	stw	r20,0(r8)
    2e7c:	44800115 	stw	r18,4(r8)
    2e80:	d8c12015 	stw	r3,1152(sp)
    2e84:	d8811f15 	stw	r2,1148(sp)
    2e88:	a8bff60e 	bge	r21,r2,2e64 <___vfprintf_internal_r+0xf1c>
    2e8c:	b009883a 	mov	r4,r22
    2e90:	b80b883a 	mov	r5,r23
    2e94:	d9811e04 	addi	r6,sp,1144
    2e98:	00089e00 	call	89e0 <__sprint_r>
    2e9c:	103d411e 	bne	r2,zero,23a4 <___vfprintf_internal_r+0x45c>
    2ea0:	d8c12017 	ldw	r3,1152(sp)
    2ea4:	d8811f17 	ldw	r2,1148(sp)
    2ea8:	da000404 	addi	r8,sp,16
    2eac:	003fee06 	br	2e68 <___vfprintf_internal_r+0xf20>
    2eb0:	dac12e17 	ldw	r11,1208(sp)
    2eb4:	db012b17 	ldw	r12,1196(sp)
    2eb8:	5b2bc83a 	sub	r21,r11,r12
    2ebc:	057e130e 	bge	zero,r21,270c <___vfprintf_internal_r+0x7c4>
    2ec0:	07000404 	movi	fp,16
    2ec4:	d8811f17 	ldw	r2,1148(sp)
    2ec8:	e543640e 	bge	fp,r21,3c5c <___vfprintf_internal_r+0x1d14>
    2ecc:	01400074 	movhi	r5,1
    2ed0:	297fd384 	addi	r5,r5,-178
    2ed4:	d9412c15 	stw	r5,1200(sp)
    2ed8:	04c001c4 	movi	r19,7
    2edc:	00000306 	br	2eec <___vfprintf_internal_r+0xfa4>
    2ee0:	ad7ffc04 	addi	r21,r21,-16
    2ee4:	42000204 	addi	r8,r8,8
    2ee8:	e540110e 	bge	fp,r21,2f30 <___vfprintf_internal_r+0xfe8>
    2eec:	18c00404 	addi	r3,r3,16
    2ef0:	10800044 	addi	r2,r2,1
    2ef4:	45000015 	stw	r20,0(r8)
    2ef8:	47000115 	stw	fp,4(r8)
    2efc:	d8c12015 	stw	r3,1152(sp)
    2f00:	d8811f15 	stw	r2,1148(sp)
    2f04:	98bff60e 	bge	r19,r2,2ee0 <___vfprintf_internal_r+0xf98>
    2f08:	b009883a 	mov	r4,r22
    2f0c:	b80b883a 	mov	r5,r23
    2f10:	d9811e04 	addi	r6,sp,1144
    2f14:	00089e00 	call	89e0 <__sprint_r>
    2f18:	103d221e 	bne	r2,zero,23a4 <___vfprintf_internal_r+0x45c>
    2f1c:	ad7ffc04 	addi	r21,r21,-16
    2f20:	d8c12017 	ldw	r3,1152(sp)
    2f24:	d8811f17 	ldw	r2,1148(sp)
    2f28:	da000404 	addi	r8,sp,16
    2f2c:	e57fef16 	blt	fp,r21,2eec <___vfprintf_internal_r+0xfa4>
    2f30:	dac12c17 	ldw	r11,1200(sp)
    2f34:	1d47883a 	add	r3,r3,r21
    2f38:	10800044 	addi	r2,r2,1
    2f3c:	42c00015 	stw	r11,0(r8)
    2f40:	45400115 	stw	r21,4(r8)
    2f44:	d8c12015 	stw	r3,1152(sp)
    2f48:	d8811f15 	stw	r2,1148(sp)
    2f4c:	010001c4 	movi	r4,7
    2f50:	20819116 	blt	r4,r2,3598 <___vfprintf_internal_r+0x1650>
    2f54:	42000204 	addi	r8,r8,8
    2f58:	003dec06 	br	270c <___vfprintf_internal_r+0x7c4>
    2f5c:	db013317 	ldw	r12,1228(sp)
    2f60:	00800044 	movi	r2,1
    2f64:	18c00044 	addi	r3,r3,1
    2f68:	1301530e 	bge	r2,r12,34b8 <___vfprintf_internal_r+0x1570>
    2f6c:	dc011f17 	ldw	r16,1148(sp)
    2f70:	dac13117 	ldw	r11,1220(sp)
    2f74:	00800044 	movi	r2,1
    2f78:	84000044 	addi	r16,r16,1
    2f7c:	40800115 	stw	r2,4(r8)
    2f80:	42c00015 	stw	r11,0(r8)
    2f84:	d8c12015 	stw	r3,1152(sp)
    2f88:	dc011f15 	stw	r16,1148(sp)
    2f8c:	008001c4 	movi	r2,7
    2f90:	14016b16 	blt	r2,r16,3540 <___vfprintf_internal_r+0x15f8>
    2f94:	42000204 	addi	r8,r8,8
    2f98:	db013817 	ldw	r12,1248(sp)
    2f9c:	dac13517 	ldw	r11,1236(sp)
    2fa0:	84000044 	addi	r16,r16,1
    2fa4:	1b07883a 	add	r3,r3,r12
    2fa8:	42c00015 	stw	r11,0(r8)
    2fac:	43000115 	stw	r12,4(r8)
    2fb0:	d8c12015 	stw	r3,1152(sp)
    2fb4:	dc011f15 	stw	r16,1148(sp)
    2fb8:	008001c4 	movi	r2,7
    2fbc:	14016916 	blt	r2,r16,3564 <___vfprintf_internal_r+0x161c>
    2fc0:	44800204 	addi	r18,r8,8
    2fc4:	d9013717 	ldw	r4,1244(sp)
    2fc8:	d9413917 	ldw	r5,1252(sp)
    2fcc:	000d883a 	mov	r6,zero
    2fd0:	000f883a 	mov	r7,zero
    2fd4:	d8c13d15 	stw	r3,1268(sp)
    2fd8:	000c1340 	call	c134 <__eqdf2>
    2fdc:	d8c13d17 	ldw	r3,1268(sp)
    2fe0:	db013317 	ldw	r12,1228(sp)
    2fe4:	1000ae26 	beq	r2,zero,32a0 <___vfprintf_internal_r+0x1358>
    2fe8:	dac13117 	ldw	r11,1220(sp)
    2fec:	60bfffc4 	addi	r2,r12,-1
    2ff0:	1887883a 	add	r3,r3,r2
    2ff4:	59000044 	addi	r4,r11,1
    2ff8:	84000044 	addi	r16,r16,1
    2ffc:	90800115 	stw	r2,4(r18)
    3000:	91000015 	stw	r4,0(r18)
    3004:	d8c12015 	stw	r3,1152(sp)
    3008:	dc011f15 	stw	r16,1148(sp)
    300c:	008001c4 	movi	r2,7
    3010:	14014216 	blt	r2,r16,351c <___vfprintf_internal_r+0x15d4>
    3014:	94800204 	addi	r18,r18,8
    3018:	dac13a17 	ldw	r11,1256(sp)
    301c:	dd4122c4 	addi	r21,sp,1163
    3020:	84000044 	addi	r16,r16,1
    3024:	58c7883a 	add	r3,r11,r3
    3028:	95400015 	stw	r21,0(r18)
    302c:	92c00115 	stw	r11,4(r18)
    3030:	d8c12015 	stw	r3,1152(sp)
    3034:	dc011f15 	stw	r16,1148(sp)
    3038:	008001c4 	movi	r2,7
    303c:	14000e16 	blt	r2,r16,3078 <___vfprintf_internal_r+0x1130>
    3040:	92000204 	addi	r8,r18,8
    3044:	003de706 	br	27e4 <___vfprintf_internal_r+0x89c>
    3048:	01000074 	movhi	r4,1
    304c:	213fd384 	addi	r4,r4,-178
    3050:	d9012c15 	stw	r4,1200(sp)
    3054:	dac12c17 	ldw	r11,1200(sp)
    3058:	1c07883a 	add	r3,r3,r16
    305c:	44000115 	stw	r16,4(r8)
    3060:	42c00015 	stw	r11,0(r8)
    3064:	10800044 	addi	r2,r2,1
    3068:	d8c12015 	stw	r3,1152(sp)
    306c:	d8811f15 	stw	r2,1148(sp)
    3070:	010001c4 	movi	r4,7
    3074:	20bdda0e 	bge	r4,r2,27e0 <___vfprintf_internal_r+0x898>
    3078:	b009883a 	mov	r4,r22
    307c:	b80b883a 	mov	r5,r23
    3080:	d9811e04 	addi	r6,sp,1144
    3084:	00089e00 	call	89e0 <__sprint_r>
    3088:	103cc61e 	bne	r2,zero,23a4 <___vfprintf_internal_r+0x45c>
    308c:	d8c12017 	ldw	r3,1152(sp)
    3090:	da000404 	addi	r8,sp,16
    3094:	003dd306 	br	27e4 <___vfprintf_internal_r+0x89c>
    3098:	b009883a 	mov	r4,r22
    309c:	b80b883a 	mov	r5,r23
    30a0:	d9811e04 	addi	r6,sp,1144
    30a4:	00089e00 	call	89e0 <__sprint_r>
    30a8:	103e0926 	beq	r2,zero,28d0 <___vfprintf_internal_r+0x988>
    30ac:	003cbd06 	br	23a4 <___vfprintf_internal_r+0x45c>
    30b0:	10803fcc 	andi	r2,r2,255
    30b4:	1000651e 	bne	r2,zero,324c <___vfprintf_internal_r+0x1304>
    30b8:	8880004c 	andi	r2,r17,1
    30bc:	10013226 	beq	r2,zero,3588 <___vfprintf_internal_r+0x1640>
    30c0:	00800c04 	movi	r2,48
    30c4:	d8c10dc4 	addi	r3,sp,1079
    30c8:	d8810dc5 	stb	r2,1079(sp)
    30cc:	dc813c17 	ldw	r18,1264(sp)
    30d0:	d8c13115 	stw	r3,1220(sp)
    30d4:	003d2b06 	br	2584 <___vfprintf_internal_r+0x63c>
    30d8:	b009883a 	mov	r4,r22
    30dc:	b80b883a 	mov	r5,r23
    30e0:	d9811e04 	addi	r6,sp,1144
    30e4:	00089e00 	call	89e0 <__sprint_r>
    30e8:	103cae1e 	bne	r2,zero,23a4 <___vfprintf_internal_r+0x45c>
    30ec:	d8c12017 	ldw	r3,1152(sp)
    30f0:	da000404 	addi	r8,sp,16
    30f4:	003dae06 	br	27b0 <___vfprintf_internal_r+0x868>
    30f8:	b009883a 	mov	r4,r22
    30fc:	b80b883a 	mov	r5,r23
    3100:	d9811e04 	addi	r6,sp,1144
    3104:	00089e00 	call	89e0 <__sprint_r>
    3108:	103ca61e 	bne	r2,zero,23a4 <___vfprintf_internal_r+0x45c>
    310c:	d8c12017 	ldw	r3,1152(sp)
    3110:	da000404 	addi	r8,sp,16
    3114:	003d6c06 	br	26c8 <___vfprintf_internal_r+0x780>
    3118:	b009883a 	mov	r4,r22
    311c:	b80b883a 	mov	r5,r23
    3120:	d9811e04 	addi	r6,sp,1144
    3124:	00089e00 	call	89e0 <__sprint_r>
    3128:	103c9e1e 	bne	r2,zero,23a4 <___vfprintf_internal_r+0x45c>
    312c:	d8c12017 	ldw	r3,1152(sp)
    3130:	da000404 	addi	r8,sp,16
    3134:	003d7206 	br	2700 <___vfprintf_internal_r+0x7b8>
    3138:	d9413b17 	ldw	r5,1260(sp)
    313c:	d8c10e04 	addi	r3,sp,1080
    3140:	988003cc 	andi	r2,r19,15
    3144:	e008973a 	slli	r4,fp,28
    3148:	2885883a 	add	r2,r5,r2
    314c:	9826d13a 	srli	r19,r19,4
    3150:	10800003 	ldbu	r2,0(r2)
    3154:	e038d13a 	srli	fp,fp,4
    3158:	18ffffc4 	addi	r3,r3,-1
    315c:	24e6b03a 	or	r19,r4,r19
    3160:	18800005 	stb	r2,0(r3)
    3164:	9f04b03a 	or	r2,r19,fp
    3168:	103ff51e 	bne	r2,zero,3140 <___vfprintf_internal_r+0x11f8>
    316c:	db012817 	ldw	r12,1184(sp)
    3170:	d8c13115 	stw	r3,1220(sp)
    3174:	60e5c83a 	sub	r18,r12,r3
    3178:	003d0206 	br	2584 <___vfprintf_internal_r+0x63c>
    317c:	dc012617 	ldw	r16,1176(sp)
    3180:	0401b10e 	bge	zero,r16,3848 <___vfprintf_internal_r+0x1900>
    3184:	db013117 	ldw	r12,1220(sp)
    3188:	dac13317 	ldw	r11,1228(sp)
    318c:	62e1883a 	add	r16,r12,r11
    3190:	db013417 	ldw	r12,1232(sp)
    3194:	5825883a 	mov	r18,r11
    3198:	62c0010e 	bge	r12,r11,31a0 <___vfprintf_internal_r+0x1258>
    319c:	6025883a 	mov	r18,r12
    31a0:	04800b0e 	bge	zero,r18,31d0 <___vfprintf_internal_r+0x1288>
    31a4:	d8811f17 	ldw	r2,1148(sp)
    31a8:	dac13117 	ldw	r11,1220(sp)
    31ac:	1c87883a 	add	r3,r3,r18
    31b0:	10800044 	addi	r2,r2,1
    31b4:	42c00015 	stw	r11,0(r8)
    31b8:	44800115 	stw	r18,4(r8)
    31bc:	d8c12015 	stw	r3,1152(sp)
    31c0:	d8811f15 	stw	r2,1148(sp)
    31c4:	010001c4 	movi	r4,7
    31c8:	20824f16 	blt	r4,r2,3b08 <___vfprintf_internal_r+0x1bc0>
    31cc:	42000204 	addi	r8,r8,8
    31d0:	90024b16 	blt	r18,zero,3b00 <___vfprintf_internal_r+0x1bb8>
    31d4:	db013417 	ldw	r12,1232(sp)
    31d8:	64a5c83a 	sub	r18,r12,r18
    31dc:	0480730e 	bge	zero,r18,33ac <___vfprintf_internal_r+0x1464>
    31e0:	05400404 	movi	r21,16
    31e4:	d8811f17 	ldw	r2,1148(sp)
    31e8:	ac817d0e 	bge	r21,r18,37e0 <___vfprintf_internal_r+0x1898>
    31ec:	01400074 	movhi	r5,1
    31f0:	297fd384 	addi	r5,r5,-178
    31f4:	d9412c15 	stw	r5,1200(sp)
    31f8:	070001c4 	movi	fp,7
    31fc:	00000306 	br	320c <___vfprintf_internal_r+0x12c4>
    3200:	42000204 	addi	r8,r8,8
    3204:	94bffc04 	addi	r18,r18,-16
    3208:	ac81780e 	bge	r21,r18,37ec <___vfprintf_internal_r+0x18a4>
    320c:	18c00404 	addi	r3,r3,16
    3210:	10800044 	addi	r2,r2,1
    3214:	45000015 	stw	r20,0(r8)
    3218:	45400115 	stw	r21,4(r8)
    321c:	d8c12015 	stw	r3,1152(sp)
    3220:	d8811f15 	stw	r2,1148(sp)
    3224:	e0bff60e 	bge	fp,r2,3200 <___vfprintf_internal_r+0x12b8>
    3228:	b009883a 	mov	r4,r22
    322c:	b80b883a 	mov	r5,r23
    3230:	d9811e04 	addi	r6,sp,1144
    3234:	00089e00 	call	89e0 <__sprint_r>
    3238:	103c5a1e 	bne	r2,zero,23a4 <___vfprintf_internal_r+0x45c>
    323c:	d8c12017 	ldw	r3,1152(sp)
    3240:	d8811f17 	ldw	r2,1148(sp)
    3244:	da000404 	addi	r8,sp,16
    3248:	003fee06 	br	3204 <___vfprintf_internal_r+0x12bc>
    324c:	dac10e04 	addi	r11,sp,1080
    3250:	0025883a 	mov	r18,zero
    3254:	dac13115 	stw	r11,1220(sp)
    3258:	003cca06 	br	2584 <___vfprintf_internal_r+0x63c>
    325c:	b009883a 	mov	r4,r22
    3260:	b80b883a 	mov	r5,r23
    3264:	d9811e04 	addi	r6,sp,1144
    3268:	00089e00 	call	89e0 <__sprint_r>
    326c:	103c4d1e 	bne	r2,zero,23a4 <___vfprintf_internal_r+0x45c>
    3270:	d8c12017 	ldw	r3,1152(sp)
    3274:	d8812787 	ldb	r2,1182(sp)
    3278:	da000404 	addi	r8,sp,16
    327c:	003d0506 	br	2694 <___vfprintf_internal_r+0x74c>
    3280:	dac12d17 	ldw	r11,1204(sp)
    3284:	14c00017 	ldw	r19,0(r2)
    3288:	0039883a 	mov	fp,zero
    328c:	5ac00104 	addi	r11,r11,4
    3290:	dac12d15 	stw	r11,1204(sp)
    3294:	0005883a 	mov	r2,zero
    3298:	9807883a 	mov	r3,r19
    329c:	003c9c06 	br	2510 <___vfprintf_internal_r+0x5c8>
    32a0:	657fffc4 	addi	r21,r12,-1
    32a4:	057f5c0e 	bge	zero,r21,3018 <___vfprintf_internal_r+0x10d0>
    32a8:	07000404 	movi	fp,16
    32ac:	e5408f0e 	bge	fp,r21,34ec <___vfprintf_internal_r+0x15a4>
    32b0:	01000074 	movhi	r4,1
    32b4:	213fd384 	addi	r4,r4,-178
    32b8:	d9012c15 	stw	r4,1200(sp)
    32bc:	01c001c4 	movi	r7,7
    32c0:	00000306 	br	32d0 <___vfprintf_internal_r+0x1388>
    32c4:	94800204 	addi	r18,r18,8
    32c8:	ad7ffc04 	addi	r21,r21,-16
    32cc:	e5408a0e 	bge	fp,r21,34f8 <___vfprintf_internal_r+0x15b0>
    32d0:	18c00404 	addi	r3,r3,16
    32d4:	84000044 	addi	r16,r16,1
    32d8:	95000015 	stw	r20,0(r18)
    32dc:	97000115 	stw	fp,4(r18)
    32e0:	d8c12015 	stw	r3,1152(sp)
    32e4:	dc011f15 	stw	r16,1148(sp)
    32e8:	3c3ff60e 	bge	r7,r16,32c4 <___vfprintf_internal_r+0x137c>
    32ec:	b009883a 	mov	r4,r22
    32f0:	b80b883a 	mov	r5,r23
    32f4:	d9811e04 	addi	r6,sp,1144
    32f8:	d9c13d15 	stw	r7,1268(sp)
    32fc:	00089e00 	call	89e0 <__sprint_r>
    3300:	d9c13d17 	ldw	r7,1268(sp)
    3304:	103c271e 	bne	r2,zero,23a4 <___vfprintf_internal_r+0x45c>
    3308:	d8c12017 	ldw	r3,1152(sp)
    330c:	dc011f17 	ldw	r16,1148(sp)
    3310:	dc800404 	addi	r18,sp,16
    3314:	003fec06 	br	32c8 <___vfprintf_internal_r+0x1380>
    3318:	1cc00017 	ldw	r19,0(r3)
    331c:	dac12d17 	ldw	r11,1204(sp)
    3320:	9839d7fa 	srai	fp,r19,31
    3324:	5ac00104 	addi	r11,r11,4
    3328:	dac12d15 	stw	r11,1204(sp)
    332c:	e005883a 	mov	r2,fp
    3330:	003d9006 	br	2974 <___vfprintf_internal_r+0xa2c>
    3334:	00800084 	movi	r2,2
    3338:	9f06b03a 	or	r3,r19,fp
    333c:	003c7406 	br	2510 <___vfprintf_internal_r+0x5c8>
    3340:	db012d17 	ldw	r12,1204(sp)
    3344:	14c00017 	ldw	r19,0(r2)
    3348:	0039883a 	mov	fp,zero
    334c:	63000104 	addi	r12,r12,4
    3350:	db012d15 	stw	r12,1204(sp)
    3354:	00800044 	movi	r2,1
    3358:	9807883a 	mov	r3,r19
    335c:	003c6c06 	br	2510 <___vfprintf_internal_r+0x5c8>
    3360:	10803fcc 	andi	r2,r2,255
    3364:	1080201c 	xori	r2,r2,128
    3368:	10bfe004 	addi	r2,r2,-128
    336c:	01000c04 	movi	r4,48
    3370:	1101a526 	beq	r2,r4,3a08 <___vfprintf_internal_r+0x1ac0>
    3374:	dac13117 	ldw	r11,1220(sp)
    3378:	db012817 	ldw	r12,1184(sp)
    337c:	193fffc5 	stb	r4,-1(r3)
    3380:	5affffc4 	addi	r11,r11,-1
    3384:	dac13115 	stw	r11,1220(sp)
    3388:	62e5c83a 	sub	r18,r12,r11
    338c:	003c7d06 	br	2584 <___vfprintf_internal_r+0x63c>
    3390:	b009883a 	mov	r4,r22
    3394:	b80b883a 	mov	r5,r23
    3398:	d9811e04 	addi	r6,sp,1144
    339c:	00089e00 	call	89e0 <__sprint_r>
    33a0:	103c001e 	bne	r2,zero,23a4 <___vfprintf_internal_r+0x45c>
    33a4:	d8c12017 	ldw	r3,1152(sp)
    33a8:	da000404 	addi	r8,sp,16
    33ac:	db013117 	ldw	r12,1220(sp)
    33b0:	dac13417 	ldw	r11,1232(sp)
    33b4:	d8812617 	ldw	r2,1176(sp)
    33b8:	62e5883a 	add	r18,r12,r11
    33bc:	db013317 	ldw	r12,1228(sp)
    33c0:	13000216 	blt	r2,r12,33cc <___vfprintf_internal_r+0x1484>
    33c4:	8900004c 	andi	r4,r17,1
    33c8:	20000c26 	beq	r4,zero,33fc <___vfprintf_internal_r+0x14b4>
    33cc:	dac13817 	ldw	r11,1248(sp)
    33d0:	d9011f17 	ldw	r4,1148(sp)
    33d4:	db013517 	ldw	r12,1236(sp)
    33d8:	1ac7883a 	add	r3,r3,r11
    33dc:	21000044 	addi	r4,r4,1
    33e0:	43000015 	stw	r12,0(r8)
    33e4:	42c00115 	stw	r11,4(r8)
    33e8:	d8c12015 	stw	r3,1152(sp)
    33ec:	d9011f15 	stw	r4,1148(sp)
    33f0:	014001c4 	movi	r5,7
    33f4:	2901cc16 	blt	r5,r4,3b28 <___vfprintf_internal_r+0x1be0>
    33f8:	42000204 	addi	r8,r8,8
    33fc:	dac13317 	ldw	r11,1228(sp)
    3400:	8489c83a 	sub	r4,r16,r18
    3404:	5885c83a 	sub	r2,r11,r2
    3408:	1021883a 	mov	r16,r2
    340c:	2080010e 	bge	r4,r2,3414 <___vfprintf_internal_r+0x14cc>
    3410:	2021883a 	mov	r16,r4
    3414:	04000a0e 	bge	zero,r16,3440 <___vfprintf_internal_r+0x14f8>
    3418:	d9011f17 	ldw	r4,1148(sp)
    341c:	1c07883a 	add	r3,r3,r16
    3420:	44800015 	stw	r18,0(r8)
    3424:	21000044 	addi	r4,r4,1
    3428:	44000115 	stw	r16,4(r8)
    342c:	d8c12015 	stw	r3,1152(sp)
    3430:	d9011f15 	stw	r4,1148(sp)
    3434:	014001c4 	movi	r5,7
    3438:	2901d616 	blt	r5,r4,3b94 <___vfprintf_internal_r+0x1c4c>
    343c:	42000204 	addi	r8,r8,8
    3440:	8001df16 	blt	r16,zero,3bc0 <___vfprintf_internal_r+0x1c78>
    3444:	1421c83a 	sub	r16,r2,r16
    3448:	043ce60e 	bge	zero,r16,27e4 <___vfprintf_internal_r+0x89c>
    344c:	04800404 	movi	r18,16
    3450:	d8811f17 	ldw	r2,1148(sp)
    3454:	943efc0e 	bge	r18,r16,3048 <___vfprintf_internal_r+0x1100>
    3458:	01400074 	movhi	r5,1
    345c:	297fd384 	addi	r5,r5,-178
    3460:	d9412c15 	stw	r5,1200(sp)
    3464:	054001c4 	movi	r21,7
    3468:	00000306 	br	3478 <___vfprintf_internal_r+0x1530>
    346c:	42000204 	addi	r8,r8,8
    3470:	843ffc04 	addi	r16,r16,-16
    3474:	943ef70e 	bge	r18,r16,3054 <___vfprintf_internal_r+0x110c>
    3478:	18c00404 	addi	r3,r3,16
    347c:	10800044 	addi	r2,r2,1
    3480:	45000015 	stw	r20,0(r8)
    3484:	44800115 	stw	r18,4(r8)
    3488:	d8c12015 	stw	r3,1152(sp)
    348c:	d8811f15 	stw	r2,1148(sp)
    3490:	a8bff60e 	bge	r21,r2,346c <___vfprintf_internal_r+0x1524>
    3494:	b009883a 	mov	r4,r22
    3498:	b80b883a 	mov	r5,r23
    349c:	d9811e04 	addi	r6,sp,1144
    34a0:	00089e00 	call	89e0 <__sprint_r>
    34a4:	103bbf1e 	bne	r2,zero,23a4 <___vfprintf_internal_r+0x45c>
    34a8:	d8c12017 	ldw	r3,1152(sp)
    34ac:	d8811f17 	ldw	r2,1148(sp)
    34b0:	da000404 	addi	r8,sp,16
    34b4:	003fee06 	br	3470 <___vfprintf_internal_r+0x1528>
    34b8:	8888703a 	and	r4,r17,r2
    34bc:	203eab1e 	bne	r4,zero,2f6c <___vfprintf_internal_r+0x1024>
    34c0:	dc011f17 	ldw	r16,1148(sp)
    34c4:	db013117 	ldw	r12,1220(sp)
    34c8:	40800115 	stw	r2,4(r8)
    34cc:	84000044 	addi	r16,r16,1
    34d0:	43000015 	stw	r12,0(r8)
    34d4:	d8c12015 	stw	r3,1152(sp)
    34d8:	dc011f15 	stw	r16,1148(sp)
    34dc:	008001c4 	movi	r2,7
    34e0:	14000e16 	blt	r2,r16,351c <___vfprintf_internal_r+0x15d4>
    34e4:	44800204 	addi	r18,r8,8
    34e8:	003ecb06 	br	3018 <___vfprintf_internal_r+0x10d0>
    34ec:	00800074 	movhi	r2,1
    34f0:	10bfd384 	addi	r2,r2,-178
    34f4:	d8812c15 	stw	r2,1200(sp)
    34f8:	dac12c17 	ldw	r11,1200(sp)
    34fc:	1d47883a 	add	r3,r3,r21
    3500:	84000044 	addi	r16,r16,1
    3504:	92c00015 	stw	r11,0(r18)
    3508:	95400115 	stw	r21,4(r18)
    350c:	d8c12015 	stw	r3,1152(sp)
    3510:	dc011f15 	stw	r16,1148(sp)
    3514:	008001c4 	movi	r2,7
    3518:	143ebe0e 	bge	r2,r16,3014 <___vfprintf_internal_r+0x10cc>
    351c:	b009883a 	mov	r4,r22
    3520:	b80b883a 	mov	r5,r23
    3524:	d9811e04 	addi	r6,sp,1144
    3528:	00089e00 	call	89e0 <__sprint_r>
    352c:	103b9d1e 	bne	r2,zero,23a4 <___vfprintf_internal_r+0x45c>
    3530:	d8c12017 	ldw	r3,1152(sp)
    3534:	dc011f17 	ldw	r16,1148(sp)
    3538:	dc800404 	addi	r18,sp,16
    353c:	003eb606 	br	3018 <___vfprintf_internal_r+0x10d0>
    3540:	b009883a 	mov	r4,r22
    3544:	b80b883a 	mov	r5,r23
    3548:	d9811e04 	addi	r6,sp,1144
    354c:	00089e00 	call	89e0 <__sprint_r>
    3550:	103b941e 	bne	r2,zero,23a4 <___vfprintf_internal_r+0x45c>
    3554:	d8c12017 	ldw	r3,1152(sp)
    3558:	dc011f17 	ldw	r16,1148(sp)
    355c:	da000404 	addi	r8,sp,16
    3560:	003e8d06 	br	2f98 <___vfprintf_internal_r+0x1050>
    3564:	b009883a 	mov	r4,r22
    3568:	b80b883a 	mov	r5,r23
    356c:	d9811e04 	addi	r6,sp,1144
    3570:	00089e00 	call	89e0 <__sprint_r>
    3574:	103b8b1e 	bne	r2,zero,23a4 <___vfprintf_internal_r+0x45c>
    3578:	d8c12017 	ldw	r3,1152(sp)
    357c:	dc011f17 	ldw	r16,1148(sp)
    3580:	dc800404 	addi	r18,sp,16
    3584:	003e8f06 	br	2fc4 <___vfprintf_internal_r+0x107c>
    3588:	db010e04 	addi	r12,sp,1080
    358c:	0025883a 	mov	r18,zero
    3590:	db013115 	stw	r12,1220(sp)
    3594:	003bfb06 	br	2584 <___vfprintf_internal_r+0x63c>
    3598:	b009883a 	mov	r4,r22
    359c:	b80b883a 	mov	r5,r23
    35a0:	d9811e04 	addi	r6,sp,1144
    35a4:	00089e00 	call	89e0 <__sprint_r>
    35a8:	103b7e1e 	bne	r2,zero,23a4 <___vfprintf_internal_r+0x45c>
    35ac:	d8c12017 	ldw	r3,1152(sp)
    35b0:	da000404 	addi	r8,sp,16
    35b4:	003c5506 	br	270c <___vfprintf_internal_r+0x7c4>
    35b8:	04e7c83a 	sub	r19,zero,r19
    35bc:	9804c03a 	cmpne	r2,r19,zero
    35c0:	0739c83a 	sub	fp,zero,fp
    35c4:	e0b9c83a 	sub	fp,fp,r2
    35c8:	05400b44 	movi	r21,45
    35cc:	dd412785 	stb	r21,1182(sp)
    35d0:	da413215 	stw	r9,1224(sp)
    35d4:	00800044 	movi	r2,1
    35d8:	9f06b03a 	or	r3,r19,fp
    35dc:	003bcf06 	br	251c <___vfprintf_internal_r+0x5d4>
    35e0:	da013f15 	stw	r8,1276(sp)
    35e4:	da413e15 	stw	r9,1272(sp)
    35e8:	00086900 	call	8690 <__fpclassifyd>
    35ec:	da013f17 	ldw	r8,1276(sp)
    35f0:	da413e17 	ldw	r9,1272(sp)
    35f4:	1000ce26 	beq	r2,zero,3930 <___vfprintf_internal_r+0x19e8>
    35f8:	057ff7c4 	movi	r21,-33
    35fc:	00bfffc4 	movi	r2,-1
    3600:	856a703a 	and	r21,r16,r21
    3604:	4881f026 	beq	r9,r2,3dc8 <___vfprintf_internal_r+0x1e80>
    3608:	008011c4 	movi	r2,71
    360c:	a881e526 	beq	r21,r2,3da4 <___vfprintf_internal_r+0x1e5c>
    3610:	db013917 	ldw	r12,1252(sp)
    3614:	8ac04014 	ori	r11,r17,256
    3618:	dac12d15 	stw	r11,1204(sp)
    361c:	6001e416 	blt	r12,zero,3db0 <___vfprintf_internal_r+0x1e68>
    3620:	dc813917 	ldw	r18,1252(sp)
    3624:	d8012b05 	stb	zero,1196(sp)
    3628:	00801984 	movi	r2,102
    362c:	80811826 	beq	r16,r2,3a90 <___vfprintf_internal_r+0x1b48>
    3630:	00801184 	movi	r2,70
    3634:	80811626 	beq	r16,r2,3a90 <___vfprintf_internal_r+0x1b48>
    3638:	00801144 	movi	r2,69
    363c:	a881e026 	beq	r21,r2,3dc0 <___vfprintf_internal_r+0x1e78>
    3640:	4839883a 	mov	fp,r9
    3644:	d8812604 	addi	r2,sp,1176
    3648:	d8800115 	stw	r2,4(sp)
    364c:	d9413717 	ldw	r5,1244(sp)
    3650:	d8812504 	addi	r2,sp,1172
    3654:	d8800215 	stw	r2,8(sp)
    3658:	d8812104 	addi	r2,sp,1156
    365c:	df000015 	stw	fp,0(sp)
    3660:	d8800315 	stw	r2,12(sp)
    3664:	b009883a 	mov	r4,r22
    3668:	900d883a 	mov	r6,r18
    366c:	01c00084 	movi	r7,2
    3670:	da013f15 	stw	r8,1276(sp)
    3674:	da413e15 	stw	r9,1272(sp)
    3678:	00044080 	call	4408 <_dtoa_r>
    367c:	d8813115 	stw	r2,1220(sp)
    3680:	008019c4 	movi	r2,103
    3684:	da013f17 	ldw	r8,1276(sp)
    3688:	da413e17 	ldw	r9,1272(sp)
    368c:	80800226 	beq	r16,r2,3698 <___vfprintf_internal_r+0x1750>
    3690:	008011c4 	movi	r2,71
    3694:	8081101e 	bne	r16,r2,3ad8 <___vfprintf_internal_r+0x1b90>
    3698:	8880004c 	andi	r2,r17,1
    369c:	1001df26 	beq	r2,zero,3e1c <___vfprintf_internal_r+0x1ed4>
    36a0:	db013117 	ldw	r12,1220(sp)
    36a4:	6715883a 	add	r10,r12,fp
    36a8:	d9013717 	ldw	r4,1244(sp)
    36ac:	900b883a 	mov	r5,r18
    36b0:	000d883a 	mov	r6,zero
    36b4:	000f883a 	mov	r7,zero
    36b8:	da013f15 	stw	r8,1276(sp)
    36bc:	da413e15 	stw	r9,1272(sp)
    36c0:	da813d15 	stw	r10,1268(sp)
    36c4:	000c1340 	call	c134 <__eqdf2>
    36c8:	da013f17 	ldw	r8,1276(sp)
    36cc:	da413e17 	ldw	r9,1272(sp)
    36d0:	da813d17 	ldw	r10,1268(sp)
    36d4:	10016526 	beq	r2,zero,3c6c <___vfprintf_internal_r+0x1d24>
    36d8:	d8812117 	ldw	r2,1156(sp)
    36dc:	1280062e 	bgeu	r2,r10,36f8 <___vfprintf_internal_r+0x17b0>
    36e0:	01000c04 	movi	r4,48
    36e4:	10c00044 	addi	r3,r2,1
    36e8:	d8c12115 	stw	r3,1156(sp)
    36ec:	11000005 	stb	r4,0(r2)
    36f0:	d8812117 	ldw	r2,1156(sp)
    36f4:	12bffb36 	bltu	r2,r10,36e4 <___vfprintf_internal_r+0x179c>
    36f8:	db013117 	ldw	r12,1220(sp)
    36fc:	1305c83a 	sub	r2,r2,r12
    3700:	d8813315 	stw	r2,1228(sp)
    3704:	008011c4 	movi	r2,71
    3708:	a8814a26 	beq	r21,r2,3c34 <___vfprintf_internal_r+0x1cec>
    370c:	00801944 	movi	r2,101
    3710:	14020a0e 	bge	r2,r16,3f3c <___vfprintf_internal_r+0x1ff4>
    3714:	00801984 	movi	r2,102
    3718:	8081b626 	beq	r16,r2,3df4 <___vfprintf_internal_r+0x1eac>
    371c:	db012617 	ldw	r12,1176(sp)
    3720:	db013415 	stw	r12,1232(sp)
    3724:	db013417 	ldw	r12,1232(sp)
    3728:	dac13317 	ldw	r11,1228(sp)
    372c:	62c1a816 	blt	r12,r11,3dd0 <___vfprintf_internal_r+0x1e88>
    3730:	8c40004c 	andi	r17,r17,1
    3734:	8801ca1e 	bne	r17,zero,3e60 <___vfprintf_internal_r+0x1f18>
    3738:	6005883a 	mov	r2,r12
    373c:	6001b516 	blt	r12,zero,3e14 <___vfprintf_internal_r+0x1ecc>
    3740:	dc813417 	ldw	r18,1232(sp)
    3744:	df012b07 	ldb	fp,1196(sp)
    3748:	e001321e 	bne	fp,zero,3c14 <___vfprintf_internal_r+0x1ccc>
    374c:	dc412d17 	ldw	r17,1204(sp)
    3750:	dd412783 	ldbu	r21,1182(sp)
    3754:	d8812b15 	stw	r2,1196(sp)
    3758:	dcc12d15 	stw	r19,1204(sp)
    375c:	d8013215 	stw	zero,1224(sp)
    3760:	003b8d06 	br	2598 <___vfprintf_internal_r+0x650>
    3764:	88c0100c 	andi	r3,r17,64
    3768:	18008226 	beq	r3,zero,3974 <___vfprintf_internal_r+0x1a2c>
    376c:	dac12d17 	ldw	r11,1204(sp)
    3770:	14c0000b 	ldhu	r19,0(r2)
    3774:	0039883a 	mov	fp,zero
    3778:	5ac00104 	addi	r11,r11,4
    377c:	dac12d15 	stw	r11,1204(sp)
    3780:	003c8f06 	br	29c0 <___vfprintf_internal_r+0xa78>
    3784:	1c000007 	ldb	r16,0(r3)
    3788:	1805883a 	mov	r2,r3
    378c:	003a5506 	br	20e4 <___vfprintf_internal_r+0x19c>
    3790:	00800084 	movi	r2,2
    3794:	003b5e06 	br	2510 <___vfprintf_internal_r+0x5c8>
    3798:	8880040c 	andi	r2,r17,16
    379c:	1000091e 	bne	r2,zero,37c4 <___vfprintf_internal_r+0x187c>
    37a0:	8c40100c 	andi	r17,r17,64
    37a4:	88000726 	beq	r17,zero,37c4 <___vfprintf_internal_r+0x187c>
    37a8:	db012d17 	ldw	r12,1204(sp)
    37ac:	dac12f17 	ldw	r11,1212(sp)
    37b0:	60800017 	ldw	r2,0(r12)
    37b4:	63000104 	addi	r12,r12,4
    37b8:	db012d15 	stw	r12,1204(sp)
    37bc:	12c0000d 	sth	r11,0(r2)
    37c0:	003a1e06 	br	203c <___vfprintf_internal_r+0xf4>
    37c4:	db012d17 	ldw	r12,1204(sp)
    37c8:	dac12f17 	ldw	r11,1212(sp)
    37cc:	60800017 	ldw	r2,0(r12)
    37d0:	63000104 	addi	r12,r12,4
    37d4:	db012d15 	stw	r12,1204(sp)
    37d8:	12c00015 	stw	r11,0(r2)
    37dc:	003a1706 	br	203c <___vfprintf_internal_r+0xf4>
    37e0:	01000074 	movhi	r4,1
    37e4:	213fd384 	addi	r4,r4,-178
    37e8:	d9012c15 	stw	r4,1200(sp)
    37ec:	dac12c17 	ldw	r11,1200(sp)
    37f0:	1c87883a 	add	r3,r3,r18
    37f4:	10800044 	addi	r2,r2,1
    37f8:	42c00015 	stw	r11,0(r8)
    37fc:	44800115 	stw	r18,4(r8)
    3800:	d8c12015 	stw	r3,1152(sp)
    3804:	d8811f15 	stw	r2,1148(sp)
    3808:	010001c4 	movi	r4,7
    380c:	20bee016 	blt	r4,r2,3390 <___vfprintf_internal_r+0x1448>
    3810:	42000204 	addi	r8,r8,8
    3814:	003ee506 	br	33ac <___vfprintf_internal_r+0x1464>
    3818:	01000074 	movhi	r4,1
    381c:	213fd384 	addi	r4,r4,-178
    3820:	d9012c15 	stw	r4,1200(sp)
    3824:	003bd806 	br	2788 <___vfprintf_internal_r+0x840>
    3828:	b009883a 	mov	r4,r22
    382c:	b80b883a 	mov	r5,r23
    3830:	d9811e04 	addi	r6,sp,1144
    3834:	00089e00 	call	89e0 <__sprint_r>
    3838:	103ada1e 	bne	r2,zero,23a4 <___vfprintf_internal_r+0x45c>
    383c:	d8c12017 	ldw	r3,1152(sp)
    3840:	da000404 	addi	r8,sp,16
    3844:	003d6b06 	br	2df4 <___vfprintf_internal_r+0xeac>
    3848:	d8811f17 	ldw	r2,1148(sp)
    384c:	03000074 	movhi	r12,1
    3850:	01000044 	movi	r4,1
    3854:	18c00044 	addi	r3,r3,1
    3858:	10800044 	addi	r2,r2,1
    385c:	633fd304 	addi	r12,r12,-180
    3860:	41000115 	stw	r4,4(r8)
    3864:	43000015 	stw	r12,0(r8)
    3868:	d8c12015 	stw	r3,1152(sp)
    386c:	d8811f15 	stw	r2,1148(sp)
    3870:	010001c4 	movi	r4,7
    3874:	20804916 	blt	r4,r2,399c <___vfprintf_internal_r+0x1a54>
    3878:	42000204 	addi	r8,r8,8
    387c:	8000041e 	bne	r16,zero,3890 <___vfprintf_internal_r+0x1948>
    3880:	dac13317 	ldw	r11,1228(sp)
    3884:	5800021e 	bne	r11,zero,3890 <___vfprintf_internal_r+0x1948>
    3888:	8880004c 	andi	r2,r17,1
    388c:	103bd526 	beq	r2,zero,27e4 <___vfprintf_internal_r+0x89c>
    3890:	db013817 	ldw	r12,1248(sp)
    3894:	d8811f17 	ldw	r2,1148(sp)
    3898:	dac13517 	ldw	r11,1236(sp)
    389c:	1b07883a 	add	r3,r3,r12
    38a0:	10800044 	addi	r2,r2,1
    38a4:	42c00015 	stw	r11,0(r8)
    38a8:	43000115 	stw	r12,4(r8)
    38ac:	d8c12015 	stw	r3,1152(sp)
    38b0:	d8811f15 	stw	r2,1148(sp)
    38b4:	010001c4 	movi	r4,7
    38b8:	20813016 	blt	r4,r2,3d7c <___vfprintf_internal_r+0x1e34>
    38bc:	42000204 	addi	r8,r8,8
    38c0:	0421c83a 	sub	r16,zero,r16
    38c4:	0400630e 	bge	zero,r16,3a54 <___vfprintf_internal_r+0x1b0c>
    38c8:	04800404 	movi	r18,16
    38cc:	94009f0e 	bge	r18,r16,3b4c <___vfprintf_internal_r+0x1c04>
    38d0:	01000074 	movhi	r4,1
    38d4:	213fd384 	addi	r4,r4,-178
    38d8:	d9012c15 	stw	r4,1200(sp)
    38dc:	054001c4 	movi	r21,7
    38e0:	00000306 	br	38f0 <___vfprintf_internal_r+0x19a8>
    38e4:	42000204 	addi	r8,r8,8
    38e8:	843ffc04 	addi	r16,r16,-16
    38ec:	94009a0e 	bge	r18,r16,3b58 <___vfprintf_internal_r+0x1c10>
    38f0:	18c00404 	addi	r3,r3,16
    38f4:	10800044 	addi	r2,r2,1
    38f8:	45000015 	stw	r20,0(r8)
    38fc:	44800115 	stw	r18,4(r8)
    3900:	d8c12015 	stw	r3,1152(sp)
    3904:	d8811f15 	stw	r2,1148(sp)
    3908:	a8bff60e 	bge	r21,r2,38e4 <___vfprintf_internal_r+0x199c>
    390c:	b009883a 	mov	r4,r22
    3910:	b80b883a 	mov	r5,r23
    3914:	d9811e04 	addi	r6,sp,1144
    3918:	00089e00 	call	89e0 <__sprint_r>
    391c:	103aa11e 	bne	r2,zero,23a4 <___vfprintf_internal_r+0x45c>
    3920:	d8c12017 	ldw	r3,1152(sp)
    3924:	d8811f17 	ldw	r2,1148(sp)
    3928:	da000404 	addi	r8,sp,16
    392c:	003fee06 	br	38e8 <___vfprintf_internal_r+0x19a0>
    3930:	008011c4 	movi	r2,71
    3934:	1400b316 	blt	r2,r16,3c04 <___vfprintf_internal_r+0x1cbc>
    3938:	03000074 	movhi	r12,1
    393c:	633fc504 	addi	r12,r12,-236
    3940:	db013115 	stw	r12,1220(sp)
    3944:	00c000c4 	movi	r3,3
    3948:	00bfdfc4 	movi	r2,-129
    394c:	d8c12b15 	stw	r3,1196(sp)
    3950:	88a2703a 	and	r17,r17,r2
    3954:	dd412783 	ldbu	r21,1182(sp)
    3958:	dcc12d15 	stw	r19,1204(sp)
    395c:	1825883a 	mov	r18,r3
    3960:	d8013215 	stw	zero,1224(sp)
    3964:	d8013415 	stw	zero,1232(sp)
    3968:	003b0b06 	br	2598 <___vfprintf_internal_r+0x650>
    396c:	4825883a 	mov	r18,r9
    3970:	003cba06 	br	2c5c <___vfprintf_internal_r+0xd14>
    3974:	db012d17 	ldw	r12,1204(sp)
    3978:	14c00017 	ldw	r19,0(r2)
    397c:	0039883a 	mov	fp,zero
    3980:	63000104 	addi	r12,r12,4
    3984:	db012d15 	stw	r12,1204(sp)
    3988:	003c0d06 	br	29c0 <___vfprintf_internal_r+0xa78>
    398c:	00800074 	movhi	r2,1
    3990:	10bfc304 	addi	r2,r2,-244
    3994:	d8813115 	stw	r2,1220(sp)
    3998:	003ac406 	br	24ac <___vfprintf_internal_r+0x564>
    399c:	b009883a 	mov	r4,r22
    39a0:	b80b883a 	mov	r5,r23
    39a4:	d9811e04 	addi	r6,sp,1144
    39a8:	00089e00 	call	89e0 <__sprint_r>
    39ac:	103a7d1e 	bne	r2,zero,23a4 <___vfprintf_internal_r+0x45c>
    39b0:	dc012617 	ldw	r16,1176(sp)
    39b4:	d8c12017 	ldw	r3,1152(sp)
    39b8:	da000404 	addi	r8,sp,16
    39bc:	003faf06 	br	387c <___vfprintf_internal_r+0x1934>
    39c0:	db012e17 	ldw	r12,1208(sp)
    39c4:	1805883a 	mov	r2,r3
    39c8:	dac12d15 	stw	r11,1204(sp)
    39cc:	0319c83a 	sub	r12,zero,r12
    39d0:	db012e15 	stw	r12,1208(sp)
    39d4:	003a7e06 	br	23d0 <___vfprintf_internal_r+0x488>
    39d8:	18800044 	addi	r2,r3,1
    39dc:	8c400814 	ori	r17,r17,32
    39e0:	1c000047 	ldb	r16,1(r3)
    39e4:	0039bf06 	br	20e4 <___vfprintf_internal_r+0x19c>
    39e8:	b009883a 	mov	r4,r22
    39ec:	b80b883a 	mov	r5,r23
    39f0:	d9811e04 	addi	r6,sp,1144
    39f4:	00089e00 	call	89e0 <__sprint_r>
    39f8:	103a6a1e 	bne	r2,zero,23a4 <___vfprintf_internal_r+0x45c>
    39fc:	d8c12017 	ldw	r3,1152(sp)
    3a00:	da000404 	addi	r8,sp,16
    3a04:	003d0c06 	br	2e38 <___vfprintf_internal_r+0xef0>
    3a08:	db012817 	ldw	r12,1184(sp)
    3a0c:	d8c13117 	ldw	r3,1220(sp)
    3a10:	60e5c83a 	sub	r18,r12,r3
    3a14:	003adb06 	br	2584 <___vfprintf_internal_r+0x63c>
    3a18:	da013f15 	stw	r8,1276(sp)
    3a1c:	0001eb00 	call	1eb0 <strlen>
    3a20:	1025883a 	mov	r18,r2
    3a24:	da013f17 	ldw	r8,1276(sp)
    3a28:	903c8e0e 	bge	r18,zero,2c64 <___vfprintf_internal_r+0xd1c>
    3a2c:	0005883a 	mov	r2,zero
    3a30:	003c8c06 	br	2c64 <___vfprintf_internal_r+0xd1c>
    3a34:	b009883a 	mov	r4,r22
    3a38:	b80b883a 	mov	r5,r23
    3a3c:	d9811e04 	addi	r6,sp,1144
    3a40:	00089e00 	call	89e0 <__sprint_r>
    3a44:	103a571e 	bne	r2,zero,23a4 <___vfprintf_internal_r+0x45c>
    3a48:	d8c12017 	ldw	r3,1152(sp)
    3a4c:	d8811f17 	ldw	r2,1148(sp)
    3a50:	da000404 	addi	r8,sp,16
    3a54:	db013317 	ldw	r12,1228(sp)
    3a58:	dac13117 	ldw	r11,1220(sp)
    3a5c:	10800044 	addi	r2,r2,1
    3a60:	60c7883a 	add	r3,r12,r3
    3a64:	42c00015 	stw	r11,0(r8)
    3a68:	43000115 	stw	r12,4(r8)
    3a6c:	d8c12015 	stw	r3,1152(sp)
    3a70:	d8811f15 	stw	r2,1148(sp)
    3a74:	010001c4 	movi	r4,7
    3a78:	20bb590e 	bge	r4,r2,27e0 <___vfprintf_internal_r+0x898>
    3a7c:	003d7e06 	br	3078 <___vfprintf_internal_r+0x1130>
    3a80:	01000074 	movhi	r4,1
    3a84:	213fd784 	addi	r4,r4,-162
    3a88:	d9013615 	stw	r4,1240(sp)
    3a8c:	003af606 	br	2668 <___vfprintf_internal_r+0x720>
    3a90:	d8812604 	addi	r2,sp,1176
    3a94:	d8800115 	stw	r2,4(sp)
    3a98:	d9413717 	ldw	r5,1244(sp)
    3a9c:	d8812504 	addi	r2,sp,1172
    3aa0:	d8800215 	stw	r2,8(sp)
    3aa4:	d8812104 	addi	r2,sp,1156
    3aa8:	da400015 	stw	r9,0(sp)
    3aac:	d8800315 	stw	r2,12(sp)
    3ab0:	b009883a 	mov	r4,r22
    3ab4:	900d883a 	mov	r6,r18
    3ab8:	01c000c4 	movi	r7,3
    3abc:	da013f15 	stw	r8,1276(sp)
    3ac0:	da413e15 	stw	r9,1272(sp)
    3ac4:	00044080 	call	4408 <_dtoa_r>
    3ac8:	da413e17 	ldw	r9,1272(sp)
    3acc:	da013f17 	ldw	r8,1276(sp)
    3ad0:	d8813115 	stw	r2,1220(sp)
    3ad4:	4839883a 	mov	fp,r9
    3ad8:	dac13117 	ldw	r11,1220(sp)
    3adc:	00801184 	movi	r2,70
    3ae0:	5f15883a 	add	r10,r11,fp
    3ae4:	a8bef01e 	bne	r21,r2,36a8 <___vfprintf_internal_r+0x1760>
    3ae8:	59000007 	ldb	r4,0(r11)
    3aec:	00800c04 	movi	r2,48
    3af0:	2080e026 	beq	r4,r2,3e74 <___vfprintf_internal_r+0x1f2c>
    3af4:	d8c12617 	ldw	r3,1176(sp)
    3af8:	50d5883a 	add	r10,r10,r3
    3afc:	003eea06 	br	36a8 <___vfprintf_internal_r+0x1760>
    3b00:	0025883a 	mov	r18,zero
    3b04:	003db306 	br	31d4 <___vfprintf_internal_r+0x128c>
    3b08:	b009883a 	mov	r4,r22
    3b0c:	b80b883a 	mov	r5,r23
    3b10:	d9811e04 	addi	r6,sp,1144
    3b14:	00089e00 	call	89e0 <__sprint_r>
    3b18:	103a221e 	bne	r2,zero,23a4 <___vfprintf_internal_r+0x45c>
    3b1c:	d8c12017 	ldw	r3,1152(sp)
    3b20:	da000404 	addi	r8,sp,16
    3b24:	003daa06 	br	31d0 <___vfprintf_internal_r+0x1288>
    3b28:	b009883a 	mov	r4,r22
    3b2c:	b80b883a 	mov	r5,r23
    3b30:	d9811e04 	addi	r6,sp,1144
    3b34:	00089e00 	call	89e0 <__sprint_r>
    3b38:	103a1a1e 	bne	r2,zero,23a4 <___vfprintf_internal_r+0x45c>
    3b3c:	d8812617 	ldw	r2,1176(sp)
    3b40:	d8c12017 	ldw	r3,1152(sp)
    3b44:	da000404 	addi	r8,sp,16
    3b48:	003e2c06 	br	33fc <___vfprintf_internal_r+0x14b4>
    3b4c:	03000074 	movhi	r12,1
    3b50:	633fd384 	addi	r12,r12,-178
    3b54:	db012c15 	stw	r12,1200(sp)
    3b58:	dac12c17 	ldw	r11,1200(sp)
    3b5c:	1c07883a 	add	r3,r3,r16
    3b60:	10800044 	addi	r2,r2,1
    3b64:	42c00015 	stw	r11,0(r8)
    3b68:	44000115 	stw	r16,4(r8)
    3b6c:	d8c12015 	stw	r3,1152(sp)
    3b70:	d8811f15 	stw	r2,1148(sp)
    3b74:	010001c4 	movi	r4,7
    3b78:	20bfae16 	blt	r4,r2,3a34 <___vfprintf_internal_r+0x1aec>
    3b7c:	42000204 	addi	r8,r8,8
    3b80:	003fb406 	br	3a54 <___vfprintf_internal_r+0x1b0c>
    3b84:	03000074 	movhi	r12,1
    3b88:	633fd784 	addi	r12,r12,-162
    3b8c:	db013615 	stw	r12,1240(sp)
    3b90:	003b3806 	br	2874 <___vfprintf_internal_r+0x92c>
    3b94:	b009883a 	mov	r4,r22
    3b98:	b80b883a 	mov	r5,r23
    3b9c:	d9811e04 	addi	r6,sp,1144
    3ba0:	00089e00 	call	89e0 <__sprint_r>
    3ba4:	1039ff1e 	bne	r2,zero,23a4 <___vfprintf_internal_r+0x45c>
    3ba8:	d8812617 	ldw	r2,1176(sp)
    3bac:	db013317 	ldw	r12,1228(sp)
    3bb0:	d8c12017 	ldw	r3,1152(sp)
    3bb4:	da000404 	addi	r8,sp,16
    3bb8:	6085c83a 	sub	r2,r12,r2
    3bbc:	003e2006 	br	3440 <___vfprintf_internal_r+0x14f8>
    3bc0:	0021883a 	mov	r16,zero
    3bc4:	003e1f06 	br	3444 <___vfprintf_internal_r+0x14fc>
    3bc8:	00800184 	movi	r2,6
    3bcc:	1240012e 	bgeu	r2,r9,3bd4 <___vfprintf_internal_r+0x1c8c>
    3bd0:	1013883a 	mov	r9,r2
    3bd4:	4825883a 	mov	r18,r9
    3bd8:	4805883a 	mov	r2,r9
    3bdc:	48009e16 	blt	r9,zero,3e58 <___vfprintf_internal_r+0x1f10>
    3be0:	d8812b15 	stw	r2,1196(sp)
    3be4:	00800074 	movhi	r2,1
    3be8:	10bfd104 	addi	r2,r2,-188
    3bec:	d8813115 	stw	r2,1220(sp)
    3bf0:	dcc12d15 	stw	r19,1204(sp)
    3bf4:	d8013215 	stw	zero,1224(sp)
    3bf8:	d8013415 	stw	zero,1232(sp)
    3bfc:	0005883a 	mov	r2,zero
    3c00:	003a6c06 	br	25b4 <___vfprintf_internal_r+0x66c>
    3c04:	00800074 	movhi	r2,1
    3c08:	10bfc604 	addi	r2,r2,-232
    3c0c:	d8813115 	stw	r2,1220(sp)
    3c10:	003f4c06 	br	3944 <___vfprintf_internal_r+0x19fc>
    3c14:	00c00b44 	movi	r3,45
    3c18:	d8812b15 	stw	r2,1196(sp)
    3c1c:	dc412d17 	ldw	r17,1204(sp)
    3c20:	d8c12785 	stb	r3,1182(sp)
    3c24:	dcc12d15 	stw	r19,1204(sp)
    3c28:	d8013215 	stw	zero,1224(sp)
    3c2c:	00800b44 	movi	r2,45
    3c30:	003a5d06 	br	25a8 <___vfprintf_internal_r+0x660>
    3c34:	d8c12617 	ldw	r3,1176(sp)
    3c38:	00bfff44 	movi	r2,-3
    3c3c:	18800d16 	blt	r3,r2,3c74 <___vfprintf_internal_r+0x1d2c>
    3c40:	48c00c16 	blt	r9,r3,3c74 <___vfprintf_internal_r+0x1d2c>
    3c44:	d8c13415 	stw	r3,1232(sp)
    3c48:	040019c4 	movi	r16,103
    3c4c:	003eb506 	br	3724 <___vfprintf_internal_r+0x17dc>
    3c50:	05400b44 	movi	r21,45
    3c54:	dd412785 	stb	r21,1182(sp)
    3c58:	003a0f06 	br	2498 <___vfprintf_internal_r+0x550>
    3c5c:	01000074 	movhi	r4,1
    3c60:	213fd384 	addi	r4,r4,-178
    3c64:	d9012c15 	stw	r4,1200(sp)
    3c68:	003cb106 	br	2f30 <___vfprintf_internal_r+0xfe8>
    3c6c:	5005883a 	mov	r2,r10
    3c70:	003ea106 	br	36f8 <___vfprintf_internal_r+0x17b0>
    3c74:	843fff84 	addi	r16,r16,-2
    3c78:	1f3fffc4 	addi	fp,r3,-1
    3c7c:	df012615 	stw	fp,1176(sp)
    3c80:	dc0122c5 	stb	r16,1163(sp)
    3c84:	e0009516 	blt	fp,zero,3edc <___vfprintf_internal_r+0x1f94>
    3c88:	00800ac4 	movi	r2,43
    3c8c:	d8812305 	stb	r2,1164(sp)
    3c90:	00800244 	movi	r2,9
    3c94:	1700690e 	bge	r2,fp,3e3c <___vfprintf_internal_r+0x1ef4>
    3c98:	dd4122c4 	addi	r21,sp,1163
    3c9c:	dc012c15 	stw	r16,1200(sp)
    3ca0:	8825883a 	mov	r18,r17
    3ca4:	a821883a 	mov	r16,r21
    3ca8:	4023883a 	mov	r17,r8
    3cac:	e009883a 	mov	r4,fp
    3cb0:	01400284 	movi	r5,10
    3cb4:	00011a80 	call	11a8 <__modsi3>
    3cb8:	10800c04 	addi	r2,r2,48
    3cbc:	843fffc4 	addi	r16,r16,-1
    3cc0:	e009883a 	mov	r4,fp
    3cc4:	01400284 	movi	r5,10
    3cc8:	80800005 	stb	r2,0(r16)
    3ccc:	00011540 	call	1154 <__divsi3>
    3cd0:	1039883a 	mov	fp,r2
    3cd4:	00800244 	movi	r2,9
    3cd8:	173ff416 	blt	r2,fp,3cac <___vfprintf_internal_r+0x1d64>
    3cdc:	8811883a 	mov	r8,r17
    3ce0:	e0800c04 	addi	r2,fp,48
    3ce4:	9023883a 	mov	r17,r18
    3ce8:	8025883a 	mov	r18,r16
    3cec:	913fffc4 	addi	r4,r18,-1
    3cf0:	90bfffc5 	stb	r2,-1(r18)
    3cf4:	dc012c17 	ldw	r16,1200(sp)
    3cf8:	25408e2e 	bgeu	r4,r21,3f34 <___vfprintf_internal_r+0x1fec>
    3cfc:	d9412384 	addi	r5,sp,1166
    3d00:	2c8bc83a 	sub	r5,r5,r18
    3d04:	d8c12344 	addi	r3,sp,1165
    3d08:	a94b883a 	add	r5,r21,r5
    3d0c:	00000106 	br	3d14 <___vfprintf_internal_r+0x1dcc>
    3d10:	20800003 	ldbu	r2,0(r4)
    3d14:	18800005 	stb	r2,0(r3)
    3d18:	18c00044 	addi	r3,r3,1
    3d1c:	21000044 	addi	r4,r4,1
    3d20:	197ffb1e 	bne	r3,r5,3d10 <___vfprintf_internal_r+0x1dc8>
    3d24:	d8812304 	addi	r2,sp,1164
    3d28:	1485c83a 	sub	r2,r2,r18
    3d2c:	d8c12344 	addi	r3,sp,1165
    3d30:	1885883a 	add	r2,r3,r2
    3d34:	dac13317 	ldw	r11,1228(sp)
    3d38:	156bc83a 	sub	r21,r2,r21
    3d3c:	dd413a15 	stw	r21,1256(sp)
    3d40:	00800044 	movi	r2,1
    3d44:	5d65883a 	add	r18,r11,r21
    3d48:	12c0770e 	bge	r2,r11,3f28 <___vfprintf_internal_r+0x1fe0>
    3d4c:	94800044 	addi	r18,r18,1
    3d50:	9005883a 	mov	r2,r18
    3d54:	90007216 	blt	r18,zero,3f20 <___vfprintf_internal_r+0x1fd8>
    3d58:	d8013415 	stw	zero,1232(sp)
    3d5c:	003e7906 	br	3744 <___vfprintf_internal_r+0x17fc>
    3d60:	da412b15 	stw	r9,1196(sp)
    3d64:	dd412783 	ldbu	r21,1182(sp)
    3d68:	4825883a 	mov	r18,r9
    3d6c:	dcc12d15 	stw	r19,1204(sp)
    3d70:	d8013215 	stw	zero,1224(sp)
    3d74:	d8013415 	stw	zero,1232(sp)
    3d78:	003a0706 	br	2598 <___vfprintf_internal_r+0x650>
    3d7c:	b009883a 	mov	r4,r22
    3d80:	b80b883a 	mov	r5,r23
    3d84:	d9811e04 	addi	r6,sp,1144
    3d88:	00089e00 	call	89e0 <__sprint_r>
    3d8c:	1039851e 	bne	r2,zero,23a4 <___vfprintf_internal_r+0x45c>
    3d90:	dc012617 	ldw	r16,1176(sp)
    3d94:	d8c12017 	ldw	r3,1152(sp)
    3d98:	d8811f17 	ldw	r2,1148(sp)
    3d9c:	da000404 	addi	r8,sp,16
    3da0:	003ec706 	br	38c0 <___vfprintf_internal_r+0x1978>
    3da4:	483e1a1e 	bne	r9,zero,3610 <___vfprintf_internal_r+0x16c8>
    3da8:	9013883a 	mov	r9,r18
    3dac:	003e1806 	br	3610 <___vfprintf_internal_r+0x16c8>
    3db0:	00c00b44 	movi	r3,45
    3db4:	64a0003c 	xorhi	r18,r12,32768
    3db8:	d8c12b05 	stb	r3,1196(sp)
    3dbc:	003e1a06 	br	3628 <___vfprintf_internal_r+0x16e0>
    3dc0:	4f000044 	addi	fp,r9,1
    3dc4:	003e1f06 	br	3644 <___vfprintf_internal_r+0x16fc>
    3dc8:	02400184 	movi	r9,6
    3dcc:	003e1006 	br	3610 <___vfprintf_internal_r+0x16c8>
    3dd0:	d8c13417 	ldw	r3,1232(sp)
    3dd4:	00c04b0e 	bge	zero,r3,3f04 <___vfprintf_internal_r+0x1fbc>
    3dd8:	04800044 	movi	r18,1
    3ddc:	dac13317 	ldw	r11,1228(sp)
    3de0:	92e5883a 	add	r18,r18,r11
    3de4:	9005883a 	mov	r2,r18
    3de8:	903e560e 	bge	r18,zero,3744 <___vfprintf_internal_r+0x17fc>
    3dec:	0005883a 	mov	r2,zero
    3df0:	003e5406 	br	3744 <___vfprintf_internal_r+0x17fc>
    3df4:	d8c12617 	ldw	r3,1176(sp)
    3df8:	d8c13415 	stw	r3,1232(sp)
    3dfc:	00c03b0e 	bge	zero,r3,3eec <___vfprintf_internal_r+0x1fa4>
    3e00:	4800081e 	bne	r9,zero,3e24 <___vfprintf_internal_r+0x1edc>
    3e04:	8c40004c 	andi	r17,r17,1
    3e08:	8800061e 	bne	r17,zero,3e24 <___vfprintf_internal_r+0x1edc>
    3e0c:	1805883a 	mov	r2,r3
    3e10:	183e4b0e 	bge	r3,zero,3740 <___vfprintf_internal_r+0x17f8>
    3e14:	0005883a 	mov	r2,zero
    3e18:	003e4906 	br	3740 <___vfprintf_internal_r+0x17f8>
    3e1c:	d8812117 	ldw	r2,1156(sp)
    3e20:	003e3506 	br	36f8 <___vfprintf_internal_r+0x17b0>
    3e24:	dac13417 	ldw	r11,1232(sp)
    3e28:	4a400044 	addi	r9,r9,1
    3e2c:	5a65883a 	add	r18,r11,r9
    3e30:	9005883a 	mov	r2,r18
    3e34:	903e430e 	bge	r18,zero,3744 <___vfprintf_internal_r+0x17fc>
    3e38:	003fec06 	br	3dec <___vfprintf_internal_r+0x1ea4>
    3e3c:	00800c04 	movi	r2,48
    3e40:	e0c00c04 	addi	r3,fp,48
    3e44:	d8812345 	stb	r2,1165(sp)
    3e48:	d8c12385 	stb	r3,1166(sp)
    3e4c:	d88123c4 	addi	r2,sp,1167
    3e50:	dd4122c4 	addi	r21,sp,1163
    3e54:	003fb706 	br	3d34 <___vfprintf_internal_r+0x1dec>
    3e58:	0005883a 	mov	r2,zero
    3e5c:	003f6006 	br	3be0 <___vfprintf_internal_r+0x1c98>
    3e60:	db013417 	ldw	r12,1232(sp)
    3e64:	64800044 	addi	r18,r12,1
    3e68:	9005883a 	mov	r2,r18
    3e6c:	903e350e 	bge	r18,zero,3744 <___vfprintf_internal_r+0x17fc>
    3e70:	003fde06 	br	3dec <___vfprintf_internal_r+0x1ea4>
    3e74:	d9013717 	ldw	r4,1244(sp)
    3e78:	900b883a 	mov	r5,r18
    3e7c:	000d883a 	mov	r6,zero
    3e80:	000f883a 	mov	r7,zero
    3e84:	da013f15 	stw	r8,1276(sp)
    3e88:	da413e15 	stw	r9,1272(sp)
    3e8c:	da813d15 	stw	r10,1268(sp)
    3e90:	000c1340 	call	c134 <__eqdf2>
    3e94:	da013f17 	ldw	r8,1276(sp)
    3e98:	da413e17 	ldw	r9,1272(sp)
    3e9c:	da813d17 	ldw	r10,1268(sp)
    3ea0:	103f1426 	beq	r2,zero,3af4 <___vfprintf_internal_r+0x1bac>
    3ea4:	00800044 	movi	r2,1
    3ea8:	1707c83a 	sub	r3,r2,fp
    3eac:	d8c12615 	stw	r3,1176(sp)
    3eb0:	003f1106 	br	3af8 <___vfprintf_internal_r+0x1bb0>
    3eb4:	dac12d17 	ldw	r11,1204(sp)
    3eb8:	5a400017 	ldw	r9,0(r11)
    3ebc:	5ac00104 	addi	r11,r11,4
    3ec0:	dac12d15 	stw	r11,1204(sp)
    3ec4:	483ec60e 	bge	r9,zero,39e0 <___vfprintf_internal_r+0x1a98>
    3ec8:	027fffc4 	movi	r9,-1
    3ecc:	1c000047 	ldb	r16,1(r3)
    3ed0:	00388406 	br	20e4 <___vfprintf_internal_r+0x19c>
    3ed4:	043fffc4 	movi	r16,-1
    3ed8:	00391006 	br	231c <___vfprintf_internal_r+0x3d4>
    3edc:	00800b44 	movi	r2,45
    3ee0:	0739c83a 	sub	fp,zero,fp
    3ee4:	d8812305 	stb	r2,1164(sp)
    3ee8:	003f6906 	br	3c90 <___vfprintf_internal_r+0x1d48>
    3eec:	4800081e 	bne	r9,zero,3f10 <___vfprintf_internal_r+0x1fc8>
    3ef0:	8c40004c 	andi	r17,r17,1
    3ef4:	8800061e 	bne	r17,zero,3f10 <___vfprintf_internal_r+0x1fc8>
    3ef8:	00800044 	movi	r2,1
    3efc:	1025883a 	mov	r18,r2
    3f00:	003e1006 	br	3744 <___vfprintf_internal_r+0x17fc>
    3f04:	04800084 	movi	r18,2
    3f08:	90e5c83a 	sub	r18,r18,r3
    3f0c:	003fb306 	br	3ddc <___vfprintf_internal_r+0x1e94>
    3f10:	4c800084 	addi	r18,r9,2
    3f14:	9005883a 	mov	r2,r18
    3f18:	903e0a0e 	bge	r18,zero,3744 <___vfprintf_internal_r+0x17fc>
    3f1c:	003fb306 	br	3dec <___vfprintf_internal_r+0x1ea4>
    3f20:	0005883a 	mov	r2,zero
    3f24:	003f8c06 	br	3d58 <___vfprintf_internal_r+0x1e10>
    3f28:	88a2703a 	and	r17,r17,r2
    3f2c:	883f8826 	beq	r17,zero,3d50 <___vfprintf_internal_r+0x1e08>
    3f30:	003f8606 	br	3d4c <___vfprintf_internal_r+0x1e04>
    3f34:	d8812344 	addi	r2,sp,1165
    3f38:	003f7e06 	br	3d34 <___vfprintf_internal_r+0x1dec>
    3f3c:	d8c12617 	ldw	r3,1176(sp)
    3f40:	003f4d06 	br	3c78 <___vfprintf_internal_r+0x1d30>

00003f44 <__vfprintf_internal>:
    3f44:	2007883a 	mov	r3,r4
    3f48:	01000074 	movhi	r4,1
    3f4c:	21072b04 	addi	r4,r4,7340
    3f50:	21000017 	ldw	r4,0(r4)
    3f54:	2805883a 	mov	r2,r5
    3f58:	300f883a 	mov	r7,r6
    3f5c:	180b883a 	mov	r5,r3
    3f60:	100d883a 	mov	r6,r2
    3f64:	0001f481 	jmpi	1f48 <___vfprintf_internal_r>

00003f68 <__swbuf_r>:
    3f68:	defffc04 	addi	sp,sp,-16
    3f6c:	dc800215 	stw	r18,8(sp)
    3f70:	dc400115 	stw	r17,4(sp)
    3f74:	dc000015 	stw	r16,0(sp)
    3f78:	dfc00315 	stw	ra,12(sp)
    3f7c:	2025883a 	mov	r18,r4
    3f80:	2823883a 	mov	r17,r5
    3f84:	3021883a 	mov	r16,r6
    3f88:	20000226 	beq	r4,zero,3f94 <__swbuf_r+0x2c>
    3f8c:	20800e17 	ldw	r2,56(r4)
    3f90:	10004126 	beq	r2,zero,4098 <__swbuf_r+0x130>
    3f94:	80c00617 	ldw	r3,24(r16)
    3f98:	8180030b 	ldhu	r6,12(r16)
    3f9c:	80c00215 	stw	r3,8(r16)
    3fa0:	30c0020c 	andi	r3,r6,8
    3fa4:	18003526 	beq	r3,zero,407c <__swbuf_r+0x114>
    3fa8:	80c00417 	ldw	r3,16(r16)
    3fac:	18003326 	beq	r3,zero,407c <__swbuf_r+0x114>
    3fb0:	3088000c 	andi	r2,r6,8192
    3fb4:	8c403fcc 	andi	r17,r17,255
    3fb8:	10001726 	beq	r2,zero,4018 <__swbuf_r+0xb0>
    3fbc:	80800017 	ldw	r2,0(r16)
    3fc0:	81000517 	ldw	r4,20(r16)
    3fc4:	10c7c83a 	sub	r3,r2,r3
    3fc8:	19001d0e 	bge	r3,r4,4040 <__swbuf_r+0xd8>
    3fcc:	18c00044 	addi	r3,r3,1
    3fd0:	81400217 	ldw	r5,8(r16)
    3fd4:	11000044 	addi	r4,r2,1
    3fd8:	81000015 	stw	r4,0(r16)
    3fdc:	297fffc4 	addi	r5,r5,-1
    3fe0:	81400215 	stw	r5,8(r16)
    3fe4:	14400005 	stb	r17,0(r2)
    3fe8:	80800517 	ldw	r2,20(r16)
    3fec:	10c01d26 	beq	r2,r3,4064 <__swbuf_r+0xfc>
    3ff0:	8080030b 	ldhu	r2,12(r16)
    3ff4:	1080004c 	andi	r2,r2,1
    3ff8:	1000181e 	bne	r2,zero,405c <__swbuf_r+0xf4>
    3ffc:	8805883a 	mov	r2,r17
    4000:	dfc00317 	ldw	ra,12(sp)
    4004:	dc800217 	ldw	r18,8(sp)
    4008:	dc400117 	ldw	r17,4(sp)
    400c:	dc000017 	ldw	r16,0(sp)
    4010:	dec00404 	addi	sp,sp,16
    4014:	f800283a 	ret
    4018:	81001917 	ldw	r4,100(r16)
    401c:	00b7ffc4 	movi	r2,-8193
    4020:	31880014 	ori	r6,r6,8192
    4024:	2084703a 	and	r2,r4,r2
    4028:	80801915 	stw	r2,100(r16)
    402c:	80800017 	ldw	r2,0(r16)
    4030:	81000517 	ldw	r4,20(r16)
    4034:	8180030d 	sth	r6,12(r16)
    4038:	10c7c83a 	sub	r3,r2,r3
    403c:	193fe316 	blt	r3,r4,3fcc <__swbuf_r+0x64>
    4040:	9009883a 	mov	r4,r18
    4044:	800b883a 	mov	r5,r16
    4048:	0005b300 	call	5b30 <_fflush_r>
    404c:	1000091e 	bne	r2,zero,4074 <__swbuf_r+0x10c>
    4050:	80800017 	ldw	r2,0(r16)
    4054:	00c00044 	movi	r3,1
    4058:	003fdd06 	br	3fd0 <__swbuf_r+0x68>
    405c:	00800284 	movi	r2,10
    4060:	88bfe61e 	bne	r17,r2,3ffc <__swbuf_r+0x94>
    4064:	9009883a 	mov	r4,r18
    4068:	800b883a 	mov	r5,r16
    406c:	0005b300 	call	5b30 <_fflush_r>
    4070:	103fe226 	beq	r2,zero,3ffc <__swbuf_r+0x94>
    4074:	00bfffc4 	movi	r2,-1
    4078:	003fe106 	br	4000 <__swbuf_r+0x98>
    407c:	9009883a 	mov	r4,r18
    4080:	800b883a 	mov	r5,r16
    4084:	00040d80 	call	40d8 <__swsetup_r>
    4088:	1000051e 	bne	r2,zero,40a0 <__swbuf_r+0x138>
    408c:	8180030b 	ldhu	r6,12(r16)
    4090:	80c00417 	ldw	r3,16(r16)
    4094:	003fc606 	br	3fb0 <__swbuf_r+0x48>
    4098:	00060d80 	call	60d8 <__sinit>
    409c:	003fbd06 	br	3f94 <__swbuf_r+0x2c>
    40a0:	80c0030b 	ldhu	r3,12(r16)
    40a4:	00bfffc4 	movi	r2,-1
    40a8:	18c01014 	ori	r3,r3,64
    40ac:	80c0030d 	sth	r3,12(r16)
    40b0:	00c00244 	movi	r3,9
    40b4:	90c00015 	stw	r3,0(r18)
    40b8:	003fd106 	br	4000 <__swbuf_r+0x98>

000040bc <__swbuf>:
    40bc:	00c00074 	movhi	r3,1
    40c0:	18c72b04 	addi	r3,r3,7340
    40c4:	2005883a 	mov	r2,r4
    40c8:	19000017 	ldw	r4,0(r3)
    40cc:	280d883a 	mov	r6,r5
    40d0:	100b883a 	mov	r5,r2
    40d4:	0003f681 	jmpi	3f68 <__swbuf_r>

000040d8 <__swsetup_r>:
    40d8:	00800074 	movhi	r2,1
    40dc:	defffd04 	addi	sp,sp,-12
    40e0:	10872b04 	addi	r2,r2,7340
    40e4:	dc400115 	stw	r17,4(sp)
    40e8:	2023883a 	mov	r17,r4
    40ec:	11000017 	ldw	r4,0(r2)
    40f0:	dc000015 	stw	r16,0(sp)
    40f4:	dfc00215 	stw	ra,8(sp)
    40f8:	2821883a 	mov	r16,r5
    40fc:	20000226 	beq	r4,zero,4108 <__swsetup_r+0x30>
    4100:	20c00e17 	ldw	r3,56(r4)
    4104:	18002e26 	beq	r3,zero,41c0 <__swsetup_r+0xe8>
    4108:	8080030b 	ldhu	r2,12(r16)
    410c:	10c0020c 	andi	r3,r2,8
    4110:	100d883a 	mov	r6,r2
    4114:	18000f26 	beq	r3,zero,4154 <__swsetup_r+0x7c>
    4118:	80c00417 	ldw	r3,16(r16)
    411c:	18001526 	beq	r3,zero,4174 <__swsetup_r+0x9c>
    4120:	1100004c 	andi	r4,r2,1
    4124:	20001c1e 	bne	r4,zero,4198 <__swsetup_r+0xc0>
    4128:	1080008c 	andi	r2,r2,2
    412c:	1000261e 	bne	r2,zero,41c8 <__swsetup_r+0xf0>
    4130:	80800517 	ldw	r2,20(r16)
    4134:	80800215 	stw	r2,8(r16)
    4138:	18001c26 	beq	r3,zero,41ac <__swsetup_r+0xd4>
    413c:	0005883a 	mov	r2,zero
    4140:	dfc00217 	ldw	ra,8(sp)
    4144:	dc400117 	ldw	r17,4(sp)
    4148:	dc000017 	ldw	r16,0(sp)
    414c:	dec00304 	addi	sp,sp,12
    4150:	f800283a 	ret
    4154:	3080040c 	andi	r2,r6,16
    4158:	10001726 	beq	r2,zero,41b8 <__swsetup_r+0xe0>
    415c:	3080010c 	andi	r2,r6,4
    4160:	10001b1e 	bne	r2,zero,41d0 <__swsetup_r+0xf8>
    4164:	80c00417 	ldw	r3,16(r16)
    4168:	30800214 	ori	r2,r6,8
    416c:	8080030d 	sth	r2,12(r16)
    4170:	183feb1e 	bne	r3,zero,4120 <__swsetup_r+0x48>
    4174:	1140a00c 	andi	r5,r2,640
    4178:	01008004 	movi	r4,512
    417c:	293fe826 	beq	r5,r4,4120 <__swsetup_r+0x48>
    4180:	8809883a 	mov	r4,r17
    4184:	800b883a 	mov	r5,r16
    4188:	0006c300 	call	6c30 <__smakebuf_r>
    418c:	8080030b 	ldhu	r2,12(r16)
    4190:	80c00417 	ldw	r3,16(r16)
    4194:	003fe206 	br	4120 <__swsetup_r+0x48>
    4198:	80800517 	ldw	r2,20(r16)
    419c:	80000215 	stw	zero,8(r16)
    41a0:	0085c83a 	sub	r2,zero,r2
    41a4:	80800615 	stw	r2,24(r16)
    41a8:	183fe41e 	bne	r3,zero,413c <__swsetup_r+0x64>
    41ac:	8080030b 	ldhu	r2,12(r16)
    41b0:	1080200c 	andi	r2,r2,128
    41b4:	103fe226 	beq	r2,zero,4140 <__swsetup_r+0x68>
    41b8:	00bfffc4 	movi	r2,-1
    41bc:	003fe006 	br	4140 <__swsetup_r+0x68>
    41c0:	00060d80 	call	60d8 <__sinit>
    41c4:	003fd006 	br	4108 <__swsetup_r+0x30>
    41c8:	0005883a 	mov	r2,zero
    41cc:	003fd906 	br	4134 <__swsetup_r+0x5c>
    41d0:	81400c17 	ldw	r5,48(r16)
    41d4:	28000626 	beq	r5,zero,41f0 <__swsetup_r+0x118>
    41d8:	80801004 	addi	r2,r16,64
    41dc:	28800326 	beq	r5,r2,41ec <__swsetup_r+0x114>
    41e0:	8809883a 	mov	r4,r17
    41e4:	000624c0 	call	624c <_free_r>
    41e8:	8180030b 	ldhu	r6,12(r16)
    41ec:	80000c15 	stw	zero,48(r16)
    41f0:	80c00417 	ldw	r3,16(r16)
    41f4:	00bff6c4 	movi	r2,-37
    41f8:	118c703a 	and	r6,r2,r6
    41fc:	80000115 	stw	zero,4(r16)
    4200:	80c00015 	stw	r3,0(r16)
    4204:	003fd806 	br	4168 <__swsetup_r+0x90>

00004208 <quorem>:
    4208:	defff704 	addi	sp,sp,-36
    420c:	dc800215 	stw	r18,8(sp)
    4210:	20800417 	ldw	r2,16(r4)
    4214:	2c800417 	ldw	r18,16(r5)
    4218:	dfc00815 	stw	ra,32(sp)
    421c:	ddc00715 	stw	r23,28(sp)
    4220:	dd800615 	stw	r22,24(sp)
    4224:	dd400515 	stw	r21,20(sp)
    4228:	dd000415 	stw	r20,16(sp)
    422c:	dcc00315 	stw	r19,12(sp)
    4230:	dc400115 	stw	r17,4(sp)
    4234:	dc000015 	stw	r16,0(sp)
    4238:	14807116 	blt	r2,r18,4400 <quorem+0x1f8>
    423c:	94bfffc4 	addi	r18,r18,-1
    4240:	94ad883a 	add	r22,r18,r18
    4244:	b5ad883a 	add	r22,r22,r22
    4248:	2c400504 	addi	r17,r5,20
    424c:	8da9883a 	add	r20,r17,r22
    4250:	25400504 	addi	r21,r4,20
    4254:	282f883a 	mov	r23,r5
    4258:	adad883a 	add	r22,r21,r22
    425c:	a1400017 	ldw	r5,0(r20)
    4260:	2021883a 	mov	r16,r4
    4264:	b1000017 	ldw	r4,0(r22)
    4268:	29400044 	addi	r5,r5,1
    426c:	00012040 	call	1204 <__udivsi3>
    4270:	1027883a 	mov	r19,r2
    4274:	10002c26 	beq	r2,zero,4328 <quorem+0x120>
    4278:	a813883a 	mov	r9,r21
    427c:	8811883a 	mov	r8,r17
    4280:	0009883a 	mov	r4,zero
    4284:	000d883a 	mov	r6,zero
    4288:	41c00017 	ldw	r7,0(r8)
    428c:	49400017 	ldw	r5,0(r9)
    4290:	42000104 	addi	r8,r8,4
    4294:	38bfffcc 	andi	r2,r7,65535
    4298:	14c5383a 	mul	r2,r2,r19
    429c:	380ed43a 	srli	r7,r7,16
    42a0:	28ffffcc 	andi	r3,r5,65535
    42a4:	2085883a 	add	r2,r4,r2
    42a8:	1008d43a 	srli	r4,r2,16
    42ac:	3ccf383a 	mul	r7,r7,r19
    42b0:	198d883a 	add	r6,r3,r6
    42b4:	10ffffcc 	andi	r3,r2,65535
    42b8:	30c7c83a 	sub	r3,r6,r3
    42bc:	280ad43a 	srli	r5,r5,16
    42c0:	21c9883a 	add	r4,r4,r7
    42c4:	180dd43a 	srai	r6,r3,16
    42c8:	20bfffcc 	andi	r2,r4,65535
    42cc:	288bc83a 	sub	r5,r5,r2
    42d0:	298b883a 	add	r5,r5,r6
    42d4:	280e943a 	slli	r7,r5,16
    42d8:	18ffffcc 	andi	r3,r3,65535
    42dc:	2008d43a 	srli	r4,r4,16
    42e0:	38ceb03a 	or	r7,r7,r3
    42e4:	49c00015 	stw	r7,0(r9)
    42e8:	280dd43a 	srai	r6,r5,16
    42ec:	4a400104 	addi	r9,r9,4
    42f0:	a23fe52e 	bgeu	r20,r8,4288 <quorem+0x80>
    42f4:	b0800017 	ldw	r2,0(r22)
    42f8:	10000b1e 	bne	r2,zero,4328 <quorem+0x120>
    42fc:	b0bfff04 	addi	r2,r22,-4
    4300:	a880082e 	bgeu	r21,r2,4324 <quorem+0x11c>
    4304:	b0ffff17 	ldw	r3,-4(r22)
    4308:	18000326 	beq	r3,zero,4318 <quorem+0x110>
    430c:	00000506 	br	4324 <quorem+0x11c>
    4310:	10c00017 	ldw	r3,0(r2)
    4314:	1800031e 	bne	r3,zero,4324 <quorem+0x11c>
    4318:	10bfff04 	addi	r2,r2,-4
    431c:	94bfffc4 	addi	r18,r18,-1
    4320:	a8bffb36 	bltu	r21,r2,4310 <quorem+0x108>
    4324:	84800415 	stw	r18,16(r16)
    4328:	8009883a 	mov	r4,r16
    432c:	b80b883a 	mov	r5,r23
    4330:	0007a240 	call	7a24 <__mcmp>
    4334:	10002616 	blt	r2,zero,43d0 <quorem+0x1c8>
    4338:	9cc00044 	addi	r19,r19,1
    433c:	a80d883a 	mov	r6,r21
    4340:	000b883a 	mov	r5,zero
    4344:	31000017 	ldw	r4,0(r6)
    4348:	88800017 	ldw	r2,0(r17)
    434c:	31800104 	addi	r6,r6,4
    4350:	20ffffcc 	andi	r3,r4,65535
    4354:	194b883a 	add	r5,r3,r5
    4358:	10ffffcc 	andi	r3,r2,65535
    435c:	28c7c83a 	sub	r3,r5,r3
    4360:	1004d43a 	srli	r2,r2,16
    4364:	2008d43a 	srli	r4,r4,16
    4368:	180bd43a 	srai	r5,r3,16
    436c:	18ffffcc 	andi	r3,r3,65535
    4370:	2089c83a 	sub	r4,r4,r2
    4374:	2149883a 	add	r4,r4,r5
    4378:	2004943a 	slli	r2,r4,16
    437c:	8c400104 	addi	r17,r17,4
    4380:	200bd43a 	srai	r5,r4,16
    4384:	10c6b03a 	or	r3,r2,r3
    4388:	30ffff15 	stw	r3,-4(r6)
    438c:	a47fed2e 	bgeu	r20,r17,4344 <quorem+0x13c>
    4390:	9485883a 	add	r2,r18,r18
    4394:	1085883a 	add	r2,r2,r2
    4398:	a887883a 	add	r3,r21,r2
    439c:	18800017 	ldw	r2,0(r3)
    43a0:	10000b1e 	bne	r2,zero,43d0 <quorem+0x1c8>
    43a4:	18bfff04 	addi	r2,r3,-4
    43a8:	a880082e 	bgeu	r21,r2,43cc <quorem+0x1c4>
    43ac:	18ffff17 	ldw	r3,-4(r3)
    43b0:	18000326 	beq	r3,zero,43c0 <quorem+0x1b8>
    43b4:	00000506 	br	43cc <quorem+0x1c4>
    43b8:	10c00017 	ldw	r3,0(r2)
    43bc:	1800031e 	bne	r3,zero,43cc <quorem+0x1c4>
    43c0:	10bfff04 	addi	r2,r2,-4
    43c4:	94bfffc4 	addi	r18,r18,-1
    43c8:	a8bffb36 	bltu	r21,r2,43b8 <quorem+0x1b0>
    43cc:	84800415 	stw	r18,16(r16)
    43d0:	9805883a 	mov	r2,r19
    43d4:	dfc00817 	ldw	ra,32(sp)
    43d8:	ddc00717 	ldw	r23,28(sp)
    43dc:	dd800617 	ldw	r22,24(sp)
    43e0:	dd400517 	ldw	r21,20(sp)
    43e4:	dd000417 	ldw	r20,16(sp)
    43e8:	dcc00317 	ldw	r19,12(sp)
    43ec:	dc800217 	ldw	r18,8(sp)
    43f0:	dc400117 	ldw	r17,4(sp)
    43f4:	dc000017 	ldw	r16,0(sp)
    43f8:	dec00904 	addi	sp,sp,36
    43fc:	f800283a 	ret
    4400:	0005883a 	mov	r2,zero
    4404:	003ff306 	br	43d4 <quorem+0x1cc>

00004408 <_dtoa_r>:
    4408:	20801017 	ldw	r2,64(r4)
    440c:	deffde04 	addi	sp,sp,-136
    4410:	dd401d15 	stw	r21,116(sp)
    4414:	dcc01b15 	stw	r19,108(sp)
    4418:	dc801a15 	stw	r18,104(sp)
    441c:	dc401915 	stw	r17,100(sp)
    4420:	dc001815 	stw	r16,96(sp)
    4424:	dfc02115 	stw	ra,132(sp)
    4428:	df002015 	stw	fp,128(sp)
    442c:	ddc01f15 	stw	r23,124(sp)
    4430:	dd801e15 	stw	r22,120(sp)
    4434:	dd001c15 	stw	r20,112(sp)
    4438:	d9c00315 	stw	r7,12(sp)
    443c:	2021883a 	mov	r16,r4
    4440:	302b883a 	mov	r21,r6
    4444:	2825883a 	mov	r18,r5
    4448:	dc402417 	ldw	r17,144(sp)
    444c:	3027883a 	mov	r19,r6
    4450:	10000826 	beq	r2,zero,4474 <_dtoa_r+0x6c>
    4454:	21801117 	ldw	r6,68(r4)
    4458:	00c00044 	movi	r3,1
    445c:	100b883a 	mov	r5,r2
    4460:	1986983a 	sll	r3,r3,r6
    4464:	11800115 	stw	r6,4(r2)
    4468:	10c00215 	stw	r3,8(r2)
    446c:	000720c0 	call	720c <_Bfree>
    4470:	80001015 	stw	zero,64(r16)
    4474:	a8002d16 	blt	r21,zero,452c <_dtoa_r+0x124>
    4478:	88000015 	stw	zero,0(r17)
    447c:	a8dffc2c 	andhi	r3,r21,32752
    4480:	009ffc34 	movhi	r2,32752
    4484:	18801b26 	beq	r3,r2,44f4 <_dtoa_r+0xec>
    4488:	9009883a 	mov	r4,r18
    448c:	980b883a 	mov	r5,r19
    4490:	000d883a 	mov	r6,zero
    4494:	000f883a 	mov	r7,zero
    4498:	000c1340 	call	c134 <__eqdf2>
    449c:	10002a1e 	bne	r2,zero,4548 <_dtoa_r+0x140>
    44a0:	d8c02317 	ldw	r3,140(sp)
    44a4:	d9002517 	ldw	r4,148(sp)
    44a8:	00800044 	movi	r2,1
    44ac:	18800015 	stw	r2,0(r3)
    44b0:	2001a226 	beq	r4,zero,4b3c <_dtoa_r+0x734>
    44b4:	00800074 	movhi	r2,1
    44b8:	10bfd344 	addi	r2,r2,-179
    44bc:	20800015 	stw	r2,0(r4)
    44c0:	10bfffc4 	addi	r2,r2,-1
    44c4:	dfc02117 	ldw	ra,132(sp)
    44c8:	df002017 	ldw	fp,128(sp)
    44cc:	ddc01f17 	ldw	r23,124(sp)
    44d0:	dd801e17 	ldw	r22,120(sp)
    44d4:	dd401d17 	ldw	r21,116(sp)
    44d8:	dd001c17 	ldw	r20,112(sp)
    44dc:	dcc01b17 	ldw	r19,108(sp)
    44e0:	dc801a17 	ldw	r18,104(sp)
    44e4:	dc401917 	ldw	r17,100(sp)
    44e8:	dc001817 	ldw	r16,96(sp)
    44ec:	dec02204 	addi	sp,sp,136
    44f0:	f800283a 	ret
    44f4:	d8c02317 	ldw	r3,140(sp)
    44f8:	0089c3c4 	movi	r2,9999
    44fc:	18800015 	stw	r2,0(r3)
    4500:	90017c26 	beq	r18,zero,4af4 <_dtoa_r+0x6ec>
    4504:	00800074 	movhi	r2,1
    4508:	10bfdf04 	addi	r2,r2,-132
    450c:	d9002517 	ldw	r4,148(sp)
    4510:	203fec26 	beq	r4,zero,44c4 <_dtoa_r+0xbc>
    4514:	10c000c7 	ldb	r3,3(r2)
    4518:	18017d1e 	bne	r3,zero,4b10 <_dtoa_r+0x708>
    451c:	10c000c4 	addi	r3,r2,3
    4520:	d9802517 	ldw	r6,148(sp)
    4524:	30c00015 	stw	r3,0(r6)
    4528:	003fe606 	br	44c4 <_dtoa_r+0xbc>
    452c:	04e00034 	movhi	r19,32768
    4530:	9cffffc4 	addi	r19,r19,-1
    4534:	00800044 	movi	r2,1
    4538:	ace6703a 	and	r19,r21,r19
    453c:	88800015 	stw	r2,0(r17)
    4540:	982b883a 	mov	r21,r19
    4544:	003fcd06 	br	447c <_dtoa_r+0x74>
    4548:	d8800204 	addi	r2,sp,8
    454c:	a822d53a 	srli	r17,r21,20
    4550:	d8800015 	stw	r2,0(sp)
    4554:	8009883a 	mov	r4,r16
    4558:	900b883a 	mov	r5,r18
    455c:	980d883a 	mov	r6,r19
    4560:	d9c00104 	addi	r7,sp,4
    4564:	0007d980 	call	7d98 <__d2b>
    4568:	1039883a 	mov	fp,r2
    456c:	88016a1e 	bne	r17,zero,4b18 <_dtoa_r+0x710>
    4570:	dd000217 	ldw	r20,8(sp)
    4574:	dc400117 	ldw	r17,4(sp)
    4578:	00befbc4 	movi	r2,-1041
    457c:	a463883a 	add	r17,r20,r17
    4580:	8882ea16 	blt	r17,r2,512c <_dtoa_r+0xd24>
    4584:	00bf0384 	movi	r2,-1010
    4588:	1445c83a 	sub	r2,r2,r17
    458c:	89010484 	addi	r4,r17,1042
    4590:	a8aa983a 	sll	r21,r21,r2
    4594:	9108d83a 	srl	r4,r18,r4
    4598:	a908b03a 	or	r4,r21,r4
    459c:	000d4c40 	call	d4c4 <__floatunsidf>
    45a0:	017f8434 	movhi	r5,65040
    45a4:	01800044 	movi	r6,1
    45a8:	1009883a 	mov	r4,r2
    45ac:	194b883a 	add	r5,r3,r5
    45b0:	8c7fffc4 	addi	r17,r17,-1
    45b4:	d9800f15 	stw	r6,60(sp)
    45b8:	000d883a 	mov	r6,zero
    45bc:	01cffe34 	movhi	r7,16376
    45c0:	000ca9c0 	call	ca9c <__subdf3>
    45c4:	0198dbf4 	movhi	r6,25455
    45c8:	01cff4f4 	movhi	r7,16339
    45cc:	1009883a 	mov	r4,r2
    45d0:	180b883a 	mov	r5,r3
    45d4:	3190d844 	addi	r6,r6,17249
    45d8:	39e1e9c4 	addi	r7,r7,-30809
    45dc:	000c3780 	call	c378 <__muldf3>
    45e0:	01a2d874 	movhi	r6,35681
    45e4:	01cff1f4 	movhi	r7,16327
    45e8:	180b883a 	mov	r5,r3
    45ec:	31b22cc4 	addi	r6,r6,-14157
    45f0:	39e28a04 	addi	r7,r7,-30168
    45f4:	1009883a 	mov	r4,r2
    45f8:	000afcc0 	call	afcc <__adddf3>
    45fc:	8809883a 	mov	r4,r17
    4600:	102d883a 	mov	r22,r2
    4604:	182b883a 	mov	r21,r3
    4608:	000d3f40 	call	d3f4 <__floatsidf>
    460c:	019427f4 	movhi	r6,20639
    4610:	01cff4f4 	movhi	r7,16339
    4614:	1009883a 	mov	r4,r2
    4618:	180b883a 	mov	r5,r3
    461c:	319e7ec4 	addi	r6,r6,31227
    4620:	39d104c4 	addi	r7,r7,17427
    4624:	000c3780 	call	c378 <__muldf3>
    4628:	b009883a 	mov	r4,r22
    462c:	a80b883a 	mov	r5,r21
    4630:	100d883a 	mov	r6,r2
    4634:	180f883a 	mov	r7,r3
    4638:	000afcc0 	call	afcc <__adddf3>
    463c:	1009883a 	mov	r4,r2
    4640:	180b883a 	mov	r5,r3
    4644:	102d883a 	mov	r22,r2
    4648:	182b883a 	mov	r21,r3
    464c:	000d36c0 	call	d36c <__fixdfsi>
    4650:	b009883a 	mov	r4,r22
    4654:	a80b883a 	mov	r5,r21
    4658:	000d883a 	mov	r6,zero
    465c:	000f883a 	mov	r7,zero
    4660:	d8800515 	stw	r2,20(sp)
    4664:	000c2980 	call	c298 <__ledf2>
    4668:	10023116 	blt	r2,zero,4f30 <_dtoa_r+0xb28>
    466c:	d8c00517 	ldw	r3,20(sp)
    4670:	00800584 	movi	r2,22
    4674:	10c21f36 	bltu	r2,r3,4ef4 <_dtoa_r+0xaec>
    4678:	180490fa 	slli	r2,r3,3
    467c:	00c00074 	movhi	r3,1
    4680:	18fffa04 	addi	r3,r3,-24
    4684:	1885883a 	add	r2,r3,r2
    4688:	11000017 	ldw	r4,0(r2)
    468c:	11400117 	ldw	r5,4(r2)
    4690:	900d883a 	mov	r6,r18
    4694:	980f883a 	mov	r7,r19
    4698:	000c1b80 	call	c1b8 <__gedf2>
    469c:	0082a70e 	bge	zero,r2,513c <_dtoa_r+0xd34>
    46a0:	d9000517 	ldw	r4,20(sp)
    46a4:	d8000c15 	stw	zero,48(sp)
    46a8:	213fffc4 	addi	r4,r4,-1
    46ac:	d9000515 	stw	r4,20(sp)
    46b0:	a463c83a 	sub	r17,r20,r17
    46b4:	8dbfffc4 	addi	r22,r17,-1
    46b8:	b0021916 	blt	r22,zero,4f20 <_dtoa_r+0xb18>
    46bc:	d8000815 	stw	zero,32(sp)
    46c0:	d8800517 	ldw	r2,20(sp)
    46c4:	10020e16 	blt	r2,zero,4f00 <_dtoa_r+0xaf8>
    46c8:	b0ad883a 	add	r22,r22,r2
    46cc:	d8800a15 	stw	r2,40(sp)
    46d0:	d8000915 	stw	zero,36(sp)
    46d4:	d8c00317 	ldw	r3,12(sp)
    46d8:	00800244 	movi	r2,9
    46dc:	10c11a36 	bltu	r2,r3,4b48 <_dtoa_r+0x740>
    46e0:	00800144 	movi	r2,5
    46e4:	10c4fc0e 	bge	r2,r3,5ad8 <_dtoa_r+0x16d0>
    46e8:	18ffff04 	addi	r3,r3,-4
    46ec:	d8c00315 	stw	r3,12(sp)
    46f0:	0029883a 	mov	r20,zero
    46f4:	d9800317 	ldw	r6,12(sp)
    46f8:	008000c4 	movi	r2,3
    46fc:	3083bd26 	beq	r6,r2,55f4 <_dtoa_r+0x11ec>
    4700:	1183670e 	bge	r2,r6,54a0 <_dtoa_r+0x1098>
    4704:	d8c00317 	ldw	r3,12(sp)
    4708:	00800104 	movi	r2,4
    470c:	1882e726 	beq	r3,r2,52ac <_dtoa_r+0xea4>
    4710:	00800144 	movi	r2,5
    4714:	1884f21e 	bne	r3,r2,5ae0 <_dtoa_r+0x16d8>
    4718:	00800044 	movi	r2,1
    471c:	d8800b15 	stw	r2,44(sp)
    4720:	d8c02217 	ldw	r3,136(sp)
    4724:	d9000517 	ldw	r4,20(sp)
    4728:	1907883a 	add	r3,r3,r4
    472c:	19800044 	addi	r6,r3,1
    4730:	d8c00d15 	stw	r3,52(sp)
    4734:	d9800615 	stw	r6,24(sp)
    4738:	0183c30e 	bge	zero,r6,5648 <_dtoa_r+0x1240>
    473c:	d9800617 	ldw	r6,24(sp)
    4740:	3023883a 	mov	r17,r6
    4744:	80001115 	stw	zero,68(r16)
    4748:	008005c4 	movi	r2,23
    474c:	1184f62e 	bgeu	r2,r6,5b28 <_dtoa_r+0x1720>
    4750:	00c00044 	movi	r3,1
    4754:	00800104 	movi	r2,4
    4758:	1085883a 	add	r2,r2,r2
    475c:	11000504 	addi	r4,r2,20
    4760:	180b883a 	mov	r5,r3
    4764:	18c00044 	addi	r3,r3,1
    4768:	313ffb2e 	bgeu	r6,r4,4758 <_dtoa_r+0x350>
    476c:	81401115 	stw	r5,68(r16)
    4770:	8009883a 	mov	r4,r16
    4774:	00071640 	call	7164 <_Balloc>
    4778:	d8800715 	stw	r2,28(sp)
    477c:	80801015 	stw	r2,64(r16)
    4780:	00800384 	movi	r2,14
    4784:	1440fd36 	bltu	r2,r17,4b7c <_dtoa_r+0x774>
    4788:	a000fc26 	beq	r20,zero,4b7c <_dtoa_r+0x774>
    478c:	d8800517 	ldw	r2,20(sp)
    4790:	0083b90e 	bge	zero,r2,5678 <_dtoa_r+0x1270>
    4794:	d8c00517 	ldw	r3,20(sp)
    4798:	108003cc 	andi	r2,r2,15
    479c:	100490fa 	slli	r2,r2,3
    47a0:	182fd13a 	srai	r23,r3,4
    47a4:	00c00074 	movhi	r3,1
    47a8:	18fffa04 	addi	r3,r3,-24
    47ac:	1885883a 	add	r2,r3,r2
    47b0:	b8c0040c 	andi	r3,r23,16
    47b4:	12c00017 	ldw	r11,0(r2)
    47b8:	12800117 	ldw	r10,4(r2)
    47bc:	18039726 	beq	r3,zero,561c <_dtoa_r+0x1214>
    47c0:	00800074 	movhi	r2,1
    47c4:	10bff004 	addi	r2,r2,-64
    47c8:	11800817 	ldw	r6,32(r2)
    47cc:	11c00917 	ldw	r7,36(r2)
    47d0:	9009883a 	mov	r4,r18
    47d4:	980b883a 	mov	r5,r19
    47d8:	da801615 	stw	r10,88(sp)
    47dc:	dac01515 	stw	r11,84(sp)
    47e0:	000b8680 	call	b868 <__divdf3>
    47e4:	da801617 	ldw	r10,88(sp)
    47e8:	dac01517 	ldw	r11,84(sp)
    47ec:	bdc003cc 	andi	r23,r23,15
    47f0:	044000c4 	movi	r17,3
    47f4:	d8800e15 	stw	r2,56(sp)
    47f8:	182b883a 	mov	r21,r3
    47fc:	b8001126 	beq	r23,zero,4844 <_dtoa_r+0x43c>
    4800:	05000074 	movhi	r20,1
    4804:	a53ff004 	addi	r20,r20,-64
    4808:	5805883a 	mov	r2,r11
    480c:	5007883a 	mov	r3,r10
    4810:	b980004c 	andi	r6,r23,1
    4814:	1009883a 	mov	r4,r2
    4818:	b82fd07a 	srai	r23,r23,1
    481c:	180b883a 	mov	r5,r3
    4820:	30000426 	beq	r6,zero,4834 <_dtoa_r+0x42c>
    4824:	a1800017 	ldw	r6,0(r20)
    4828:	a1c00117 	ldw	r7,4(r20)
    482c:	8c400044 	addi	r17,r17,1
    4830:	000c3780 	call	c378 <__muldf3>
    4834:	a5000204 	addi	r20,r20,8
    4838:	b83ff51e 	bne	r23,zero,4810 <_dtoa_r+0x408>
    483c:	1017883a 	mov	r11,r2
    4840:	1815883a 	mov	r10,r3
    4844:	d9000e17 	ldw	r4,56(sp)
    4848:	a80b883a 	mov	r5,r21
    484c:	580d883a 	mov	r6,r11
    4850:	500f883a 	mov	r7,r10
    4854:	000b8680 	call	b868 <__divdf3>
    4858:	1029883a 	mov	r20,r2
    485c:	182b883a 	mov	r21,r3
    4860:	d9800c17 	ldw	r6,48(sp)
    4864:	30000626 	beq	r6,zero,4880 <_dtoa_r+0x478>
    4868:	a009883a 	mov	r4,r20
    486c:	a80b883a 	mov	r5,r21
    4870:	000d883a 	mov	r6,zero
    4874:	01cffc34 	movhi	r7,16368
    4878:	000c2980 	call	c298 <__ledf2>
    487c:	10043216 	blt	r2,zero,5948 <_dtoa_r+0x1540>
    4880:	8809883a 	mov	r4,r17
    4884:	000d3f40 	call	d3f4 <__floatsidf>
    4888:	1009883a 	mov	r4,r2
    488c:	180b883a 	mov	r5,r3
    4890:	a00d883a 	mov	r6,r20
    4894:	a80f883a 	mov	r7,r21
    4898:	000c3780 	call	c378 <__muldf3>
    489c:	000d883a 	mov	r6,zero
    48a0:	1009883a 	mov	r4,r2
    48a4:	180b883a 	mov	r5,r3
    48a8:	01d00734 	movhi	r7,16412
    48ac:	000afcc0 	call	afcc <__adddf3>
    48b0:	1023883a 	mov	r17,r2
    48b4:	d9800617 	ldw	r6,24(sp)
    48b8:	00bf3034 	movhi	r2,64704
    48bc:	1885883a 	add	r2,r3,r2
    48c0:	d8800e15 	stw	r2,56(sp)
    48c4:	30032e26 	beq	r6,zero,5580 <_dtoa_r+0x1178>
    48c8:	d8c00517 	ldw	r3,20(sp)
    48cc:	da800617 	ldw	r10,24(sp)
    48d0:	d8c01215 	stw	r3,72(sp)
    48d4:	d9000b17 	ldw	r4,44(sp)
    48d8:	2003b026 	beq	r4,zero,579c <_dtoa_r+0x1394>
    48dc:	50bfffc4 	addi	r2,r10,-1
    48e0:	100490fa 	slli	r2,r2,3
    48e4:	00c00074 	movhi	r3,1
    48e8:	18fffa04 	addi	r3,r3,-24
    48ec:	1885883a 	add	r2,r3,r2
    48f0:	11800017 	ldw	r6,0(r2)
    48f4:	11c00117 	ldw	r7,4(r2)
    48f8:	d8800717 	ldw	r2,28(sp)
    48fc:	0009883a 	mov	r4,zero
    4900:	014ff834 	movhi	r5,16352
    4904:	da801615 	stw	r10,88(sp)
    4908:	15c00044 	addi	r23,r2,1
    490c:	000b8680 	call	b868 <__divdf3>
    4910:	d9c00e17 	ldw	r7,56(sp)
    4914:	880d883a 	mov	r6,r17
    4918:	1009883a 	mov	r4,r2
    491c:	180b883a 	mov	r5,r3
    4920:	000ca9c0 	call	ca9c <__subdf3>
    4924:	a80b883a 	mov	r5,r21
    4928:	a009883a 	mov	r4,r20
    492c:	d8c01015 	stw	r3,64(sp)
    4930:	d8800e15 	stw	r2,56(sp)
    4934:	000d36c0 	call	d36c <__fixdfsi>
    4938:	1009883a 	mov	r4,r2
    493c:	d8801715 	stw	r2,92(sp)
    4940:	000d3f40 	call	d3f4 <__floatsidf>
    4944:	a009883a 	mov	r4,r20
    4948:	a80b883a 	mov	r5,r21
    494c:	100d883a 	mov	r6,r2
    4950:	180f883a 	mov	r7,r3
    4954:	000ca9c0 	call	ca9c <__subdf3>
    4958:	da001717 	ldw	r8,92(sp)
    495c:	1829883a 	mov	r20,r3
    4960:	d8c00717 	ldw	r3,28(sp)
    4964:	d9000e17 	ldw	r4,56(sp)
    4968:	d9401017 	ldw	r5,64(sp)
    496c:	42000c04 	addi	r8,r8,48
    4970:	1023883a 	mov	r17,r2
    4974:	1a000005 	stb	r8,0(r3)
    4978:	880d883a 	mov	r6,r17
    497c:	a00f883a 	mov	r7,r20
    4980:	402b883a 	mov	r21,r8
    4984:	000c1b80 	call	c1b8 <__gedf2>
    4988:	00844516 	blt	zero,r2,5aa0 <_dtoa_r+0x1698>
    498c:	0009883a 	mov	r4,zero
    4990:	014ffc34 	movhi	r5,16368
    4994:	880d883a 	mov	r6,r17
    4998:	a00f883a 	mov	r7,r20
    499c:	000ca9c0 	call	ca9c <__subdf3>
    49a0:	d9000e17 	ldw	r4,56(sp)
    49a4:	d9401017 	ldw	r5,64(sp)
    49a8:	100d883a 	mov	r6,r2
    49ac:	180f883a 	mov	r7,r3
    49b0:	000c1b80 	call	c1b8 <__gedf2>
    49b4:	da801617 	ldw	r10,88(sp)
    49b8:	00843616 	blt	zero,r2,5a94 <_dtoa_r+0x168c>
    49bc:	00800044 	movi	r2,1
    49c0:	12806e0e 	bge	r2,r10,4b7c <_dtoa_r+0x774>
    49c4:	d9000717 	ldw	r4,28(sp)
    49c8:	dd801315 	stw	r22,76(sp)
    49cc:	dc001115 	stw	r16,68(sp)
    49d0:	2295883a 	add	r10,r4,r10
    49d4:	dcc01415 	stw	r19,80(sp)
    49d8:	502d883a 	mov	r22,r10
    49dc:	dcc01017 	ldw	r19,64(sp)
    49e0:	b821883a 	mov	r16,r23
    49e4:	dc801015 	stw	r18,64(sp)
    49e8:	dc800e17 	ldw	r18,56(sp)
    49ec:	00000906 	br	4a14 <_dtoa_r+0x60c>
    49f0:	000ca9c0 	call	ca9c <__subdf3>
    49f4:	1009883a 	mov	r4,r2
    49f8:	180b883a 	mov	r5,r3
    49fc:	900d883a 	mov	r6,r18
    4a00:	980f883a 	mov	r7,r19
    4a04:	000c2980 	call	c298 <__ledf2>
    4a08:	10040e16 	blt	r2,zero,5a44 <_dtoa_r+0x163c>
    4a0c:	b821883a 	mov	r16,r23
    4a10:	bd841026 	beq	r23,r22,5a54 <_dtoa_r+0x164c>
    4a14:	9009883a 	mov	r4,r18
    4a18:	980b883a 	mov	r5,r19
    4a1c:	000d883a 	mov	r6,zero
    4a20:	01d00934 	movhi	r7,16420
    4a24:	000c3780 	call	c378 <__muldf3>
    4a28:	000d883a 	mov	r6,zero
    4a2c:	01d00934 	movhi	r7,16420
    4a30:	8809883a 	mov	r4,r17
    4a34:	a00b883a 	mov	r5,r20
    4a38:	1025883a 	mov	r18,r2
    4a3c:	1827883a 	mov	r19,r3
    4a40:	000c3780 	call	c378 <__muldf3>
    4a44:	180b883a 	mov	r5,r3
    4a48:	1009883a 	mov	r4,r2
    4a4c:	1823883a 	mov	r17,r3
    4a50:	1029883a 	mov	r20,r2
    4a54:	000d36c0 	call	d36c <__fixdfsi>
    4a58:	1009883a 	mov	r4,r2
    4a5c:	102b883a 	mov	r21,r2
    4a60:	000d3f40 	call	d3f4 <__floatsidf>
    4a64:	a009883a 	mov	r4,r20
    4a68:	880b883a 	mov	r5,r17
    4a6c:	100d883a 	mov	r6,r2
    4a70:	180f883a 	mov	r7,r3
    4a74:	000ca9c0 	call	ca9c <__subdf3>
    4a78:	ad400c04 	addi	r21,r21,48
    4a7c:	1009883a 	mov	r4,r2
    4a80:	180b883a 	mov	r5,r3
    4a84:	900d883a 	mov	r6,r18
    4a88:	980f883a 	mov	r7,r19
    4a8c:	85400005 	stb	r21,0(r16)
    4a90:	1023883a 	mov	r17,r2
    4a94:	1829883a 	mov	r20,r3
    4a98:	000c2980 	call	c298 <__ledf2>
    4a9c:	bdc00044 	addi	r23,r23,1
    4aa0:	0009883a 	mov	r4,zero
    4aa4:	014ffc34 	movhi	r5,16368
    4aa8:	880d883a 	mov	r6,r17
    4aac:	a00f883a 	mov	r7,r20
    4ab0:	103fcf0e 	bge	r2,zero,49f0 <_dtoa_r+0x5e8>
    4ab4:	d9801217 	ldw	r6,72(sp)
    4ab8:	dc001117 	ldw	r16,68(sp)
    4abc:	d9800515 	stw	r6,20(sp)
    4ac0:	8009883a 	mov	r4,r16
    4ac4:	e00b883a 	mov	r5,fp
    4ac8:	000720c0 	call	720c <_Bfree>
    4acc:	d8c00517 	ldw	r3,20(sp)
    4ad0:	d9002317 	ldw	r4,140(sp)
    4ad4:	d9802517 	ldw	r6,148(sp)
    4ad8:	b8000005 	stb	zero,0(r23)
    4adc:	18800044 	addi	r2,r3,1
    4ae0:	20800015 	stw	r2,0(r4)
    4ae4:	30027226 	beq	r6,zero,54b0 <_dtoa_r+0x10a8>
    4ae8:	35c00015 	stw	r23,0(r6)
    4aec:	d8800717 	ldw	r2,28(sp)
    4af0:	003e7406 	br	44c4 <_dtoa_r+0xbc>
    4af4:	00800434 	movhi	r2,16
    4af8:	10bfffc4 	addi	r2,r2,-1
    4afc:	a8aa703a 	and	r21,r21,r2
    4b00:	a83e801e 	bne	r21,zero,4504 <_dtoa_r+0xfc>
    4b04:	00800074 	movhi	r2,1
    4b08:	10bfdc04 	addi	r2,r2,-144
    4b0c:	003e7f06 	br	450c <_dtoa_r+0x104>
    4b10:	10c00204 	addi	r3,r2,8
    4b14:	003e8206 	br	4520 <_dtoa_r+0x118>
    4b18:	01400434 	movhi	r5,16
    4b1c:	297fffc4 	addi	r5,r5,-1
    4b20:	994a703a 	and	r5,r19,r5
    4b24:	9009883a 	mov	r4,r18
    4b28:	8c7f0044 	addi	r17,r17,-1023
    4b2c:	294ffc34 	orhi	r5,r5,16368
    4b30:	dd000217 	ldw	r20,8(sp)
    4b34:	d8000f15 	stw	zero,60(sp)
    4b38:	003e9f06 	br	45b8 <_dtoa_r+0x1b0>
    4b3c:	00800074 	movhi	r2,1
    4b40:	10bfd304 	addi	r2,r2,-180
    4b44:	003e5f06 	br	44c4 <_dtoa_r+0xbc>
    4b48:	80001115 	stw	zero,68(r16)
    4b4c:	8009883a 	mov	r4,r16
    4b50:	000b883a 	mov	r5,zero
    4b54:	00071640 	call	7164 <_Balloc>
    4b58:	01bfffc4 	movi	r6,-1
    4b5c:	d8800715 	stw	r2,28(sp)
    4b60:	80801015 	stw	r2,64(r16)
    4b64:	00800044 	movi	r2,1
    4b68:	d9800615 	stw	r6,24(sp)
    4b6c:	d8800b15 	stw	r2,44(sp)
    4b70:	d8002215 	stw	zero,136(sp)
    4b74:	d9800d15 	stw	r6,52(sp)
    4b78:	d8000315 	stw	zero,12(sp)
    4b7c:	d8800117 	ldw	r2,4(sp)
    4b80:	10008e16 	blt	r2,zero,4dbc <_dtoa_r+0x9b4>
    4b84:	d9000517 	ldw	r4,20(sp)
    4b88:	00c00384 	movi	r3,14
    4b8c:	19008b16 	blt	r3,r4,4dbc <_dtoa_r+0x9b4>
    4b90:	200490fa 	slli	r2,r4,3
    4b94:	00c00074 	movhi	r3,1
    4b98:	d9802217 	ldw	r6,136(sp)
    4b9c:	18fffa04 	addi	r3,r3,-24
    4ba0:	1885883a 	add	r2,r3,r2
    4ba4:	14400017 	ldw	r17,0(r2)
    4ba8:	15000117 	ldw	r20,4(r2)
    4bac:	3001c716 	blt	r6,zero,52cc <_dtoa_r+0xec4>
    4bb0:	880d883a 	mov	r6,r17
    4bb4:	a00f883a 	mov	r7,r20
    4bb8:	9009883a 	mov	r4,r18
    4bbc:	980b883a 	mov	r5,r19
    4bc0:	000b8680 	call	b868 <__divdf3>
    4bc4:	180b883a 	mov	r5,r3
    4bc8:	1009883a 	mov	r4,r2
    4bcc:	000d36c0 	call	d36c <__fixdfsi>
    4bd0:	1009883a 	mov	r4,r2
    4bd4:	102d883a 	mov	r22,r2
    4bd8:	000d3f40 	call	d3f4 <__floatsidf>
    4bdc:	1009883a 	mov	r4,r2
    4be0:	180b883a 	mov	r5,r3
    4be4:	880d883a 	mov	r6,r17
    4be8:	a00f883a 	mov	r7,r20
    4bec:	000c3780 	call	c378 <__muldf3>
    4bf0:	9009883a 	mov	r4,r18
    4bf4:	980b883a 	mov	r5,r19
    4bf8:	100d883a 	mov	r6,r2
    4bfc:	180f883a 	mov	r7,r3
    4c00:	000ca9c0 	call	ca9c <__subdf3>
    4c04:	d9000717 	ldw	r4,28(sp)
    4c08:	d9800617 	ldw	r6,24(sp)
    4c0c:	180b883a 	mov	r5,r3
    4c10:	b0c00c04 	addi	r3,r22,48
    4c14:	20c00005 	stb	r3,0(r4)
    4c18:	25c00044 	addi	r23,r4,1
    4c1c:	01000044 	movi	r4,1
    4c20:	1011883a 	mov	r8,r2
    4c24:	2807883a 	mov	r3,r5
    4c28:	31003d26 	beq	r6,r4,4d20 <_dtoa_r+0x918>
    4c2c:	000d883a 	mov	r6,zero
    4c30:	01d00934 	movhi	r7,16420
    4c34:	1009883a 	mov	r4,r2
    4c38:	000c3780 	call	c378 <__muldf3>
    4c3c:	1009883a 	mov	r4,r2
    4c40:	180b883a 	mov	r5,r3
    4c44:	000d883a 	mov	r6,zero
    4c48:	000f883a 	mov	r7,zero
    4c4c:	1027883a 	mov	r19,r2
    4c50:	182b883a 	mov	r21,r3
    4c54:	000c1340 	call	c134 <__eqdf2>
    4c58:	103f9926 	beq	r2,zero,4ac0 <_dtoa_r+0x6b8>
    4c5c:	d8c00617 	ldw	r3,24(sp)
    4c60:	d9000717 	ldw	r4,28(sp)
    4c64:	b825883a 	mov	r18,r23
    4c68:	18bfffc4 	addi	r2,r3,-1
    4c6c:	20ad883a 	add	r22,r4,r2
    4c70:	dc000315 	stw	r16,12(sp)
    4c74:	00000a06 	br	4ca0 <_dtoa_r+0x898>
    4c78:	000c3780 	call	c378 <__muldf3>
    4c7c:	1009883a 	mov	r4,r2
    4c80:	180b883a 	mov	r5,r3
    4c84:	000d883a 	mov	r6,zero
    4c88:	000f883a 	mov	r7,zero
    4c8c:	1027883a 	mov	r19,r2
    4c90:	182b883a 	mov	r21,r3
    4c94:	b825883a 	mov	r18,r23
    4c98:	000c1340 	call	c134 <__eqdf2>
    4c9c:	10022626 	beq	r2,zero,5538 <_dtoa_r+0x1130>
    4ca0:	880d883a 	mov	r6,r17
    4ca4:	a00f883a 	mov	r7,r20
    4ca8:	9809883a 	mov	r4,r19
    4cac:	a80b883a 	mov	r5,r21
    4cb0:	000b8680 	call	b868 <__divdf3>
    4cb4:	180b883a 	mov	r5,r3
    4cb8:	1009883a 	mov	r4,r2
    4cbc:	000d36c0 	call	d36c <__fixdfsi>
    4cc0:	1009883a 	mov	r4,r2
    4cc4:	1021883a 	mov	r16,r2
    4cc8:	000d3f40 	call	d3f4 <__floatsidf>
    4ccc:	1009883a 	mov	r4,r2
    4cd0:	180b883a 	mov	r5,r3
    4cd4:	880d883a 	mov	r6,r17
    4cd8:	a00f883a 	mov	r7,r20
    4cdc:	000c3780 	call	c378 <__muldf3>
    4ce0:	9809883a 	mov	r4,r19
    4ce4:	a80b883a 	mov	r5,r21
    4ce8:	100d883a 	mov	r6,r2
    4cec:	180f883a 	mov	r7,r3
    4cf0:	000ca9c0 	call	ca9c <__subdf3>
    4cf4:	82000c04 	addi	r8,r16,48
    4cf8:	92000005 	stb	r8,0(r18)
    4cfc:	1009883a 	mov	r4,r2
    4d00:	180b883a 	mov	r5,r3
    4d04:	000d883a 	mov	r6,zero
    4d08:	01d00934 	movhi	r7,16420
    4d0c:	1011883a 	mov	r8,r2
    4d10:	bdc00044 	addi	r23,r23,1
    4d14:	95bfd81e 	bne	r18,r22,4c78 <_dtoa_r+0x870>
    4d18:	802d883a 	mov	r22,r16
    4d1c:	dc000317 	ldw	r16,12(sp)
    4d20:	4009883a 	mov	r4,r8
    4d24:	180b883a 	mov	r5,r3
    4d28:	400d883a 	mov	r6,r8
    4d2c:	180f883a 	mov	r7,r3
    4d30:	000afcc0 	call	afcc <__adddf3>
    4d34:	8809883a 	mov	r4,r17
    4d38:	a00b883a 	mov	r5,r20
    4d3c:	100d883a 	mov	r6,r2
    4d40:	180f883a 	mov	r7,r3
    4d44:	1027883a 	mov	r19,r2
    4d48:	1825883a 	mov	r18,r3
    4d4c:	000c2980 	call	c298 <__ledf2>
    4d50:	10000816 	blt	r2,zero,4d74 <_dtoa_r+0x96c>
    4d54:	8809883a 	mov	r4,r17
    4d58:	a00b883a 	mov	r5,r20
    4d5c:	980d883a 	mov	r6,r19
    4d60:	900f883a 	mov	r7,r18
    4d64:	000c1340 	call	c134 <__eqdf2>
    4d68:	103f551e 	bne	r2,zero,4ac0 <_dtoa_r+0x6b8>
    4d6c:	b580004c 	andi	r22,r22,1
    4d70:	b03f5326 	beq	r22,zero,4ac0 <_dtoa_r+0x6b8>
    4d74:	bd7fffc3 	ldbu	r21,-1(r23)
    4d78:	b8bfffc4 	addi	r2,r23,-1
    4d7c:	1007883a 	mov	r3,r2
    4d80:	01400e44 	movi	r5,57
    4d84:	d9800717 	ldw	r6,28(sp)
    4d88:	00000506 	br	4da0 <_dtoa_r+0x998>
    4d8c:	18ffffc4 	addi	r3,r3,-1
    4d90:	30825e26 	beq	r6,r2,570c <_dtoa_r+0x1304>
    4d94:	1d400003 	ldbu	r21,0(r3)
    4d98:	102f883a 	mov	r23,r2
    4d9c:	10bfffc4 	addi	r2,r2,-1
    4da0:	a9003fcc 	andi	r4,r21,255
    4da4:	2100201c 	xori	r4,r4,128
    4da8:	213fe004 	addi	r4,r4,-128
    4dac:	217ff726 	beq	r4,r5,4d8c <_dtoa_r+0x984>
    4db0:	aa000044 	addi	r8,r21,1
    4db4:	12000005 	stb	r8,0(r2)
    4db8:	003f4106 	br	4ac0 <_dtoa_r+0x6b8>
    4dbc:	d8c00b17 	ldw	r3,44(sp)
    4dc0:	18006726 	beq	r3,zero,4f60 <_dtoa_r+0xb58>
    4dc4:	d9000317 	ldw	r4,12(sp)
    4dc8:	00c00044 	movi	r3,1
    4dcc:	19016a0e 	bge	r3,r4,5378 <_dtoa_r+0xf70>
    4dd0:	d8800617 	ldw	r2,24(sp)
    4dd4:	d8c00917 	ldw	r3,36(sp)
    4dd8:	157fffc4 	addi	r21,r2,-1
    4ddc:	1d420716 	blt	r3,r21,55fc <_dtoa_r+0x11f4>
    4de0:	1d6bc83a 	sub	r21,r3,r21
    4de4:	d8800617 	ldw	r2,24(sp)
    4de8:	1002c716 	blt	r2,zero,5908 <_dtoa_r+0x1500>
    4dec:	dd000817 	ldw	r20,32(sp)
    4df0:	d8800617 	ldw	r2,24(sp)
    4df4:	d9800817 	ldw	r6,32(sp)
    4df8:	8009883a 	mov	r4,r16
    4dfc:	01400044 	movi	r5,1
    4e00:	308d883a 	add	r6,r6,r2
    4e04:	d9800815 	stw	r6,32(sp)
    4e08:	b0ad883a 	add	r22,r22,r2
    4e0c:	00075640 	call	7564 <__i2b>
    4e10:	1023883a 	mov	r17,r2
    4e14:	a0000826 	beq	r20,zero,4e38 <_dtoa_r+0xa30>
    4e18:	0580070e 	bge	zero,r22,4e38 <_dtoa_r+0xa30>
    4e1c:	b005883a 	mov	r2,r22
    4e20:	a5812016 	blt	r20,r22,52a4 <_dtoa_r+0xe9c>
    4e24:	d8c00817 	ldw	r3,32(sp)
    4e28:	a0a9c83a 	sub	r20,r20,r2
    4e2c:	b0adc83a 	sub	r22,r22,r2
    4e30:	1887c83a 	sub	r3,r3,r2
    4e34:	d8c00815 	stw	r3,32(sp)
    4e38:	d9000917 	ldw	r4,36(sp)
    4e3c:	0100140e 	bge	zero,r4,4e90 <_dtoa_r+0xa88>
    4e40:	d9800b17 	ldw	r6,44(sp)
    4e44:	3001e526 	beq	r6,zero,55dc <_dtoa_r+0x11d4>
    4e48:	05400e0e 	bge	zero,r21,4e84 <_dtoa_r+0xa7c>
    4e4c:	880b883a 	mov	r5,r17
    4e50:	8009883a 	mov	r4,r16
    4e54:	a80d883a 	mov	r6,r21
    4e58:	000779c0 	call	779c <__pow5mult>
    4e5c:	e00d883a 	mov	r6,fp
    4e60:	8009883a 	mov	r4,r16
    4e64:	100b883a 	mov	r5,r2
    4e68:	1023883a 	mov	r17,r2
    4e6c:	00075a00 	call	75a0 <__multiply>
    4e70:	102f883a 	mov	r23,r2
    4e74:	e00b883a 	mov	r5,fp
    4e78:	8009883a 	mov	r4,r16
    4e7c:	000720c0 	call	720c <_Bfree>
    4e80:	b839883a 	mov	fp,r23
    4e84:	d8800917 	ldw	r2,36(sp)
    4e88:	154dc83a 	sub	r6,r2,r21
    4e8c:	3001281e 	bne	r6,zero,5330 <_dtoa_r+0xf28>
    4e90:	05c00044 	movi	r23,1
    4e94:	8009883a 	mov	r4,r16
    4e98:	b80b883a 	mov	r5,r23
    4e9c:	00075640 	call	7564 <__i2b>
    4ea0:	d8c00a17 	ldw	r3,40(sp)
    4ea4:	102b883a 	mov	r21,r2
    4ea8:	00c0310e 	bge	zero,r3,4f70 <_dtoa_r+0xb68>
    4eac:	8009883a 	mov	r4,r16
    4eb0:	100b883a 	mov	r5,r2
    4eb4:	180d883a 	mov	r6,r3
    4eb8:	000779c0 	call	779c <__pow5mult>
    4ebc:	d9000317 	ldw	r4,12(sp)
    4ec0:	102b883a 	mov	r21,r2
    4ec4:	b9011f0e 	bge	r23,r4,5344 <_dtoa_r+0xf3c>
    4ec8:	0027883a 	mov	r19,zero
    4ecc:	a8800417 	ldw	r2,16(r21)
    4ed0:	10800104 	addi	r2,r2,4
    4ed4:	1085883a 	add	r2,r2,r2
    4ed8:	1085883a 	add	r2,r2,r2
    4edc:	a885883a 	add	r2,r21,r2
    4ee0:	11000017 	ldw	r4,0(r2)
    4ee4:	000744c0 	call	744c <__hi0bits>
    4ee8:	00c00804 	movi	r3,32
    4eec:	1885c83a 	sub	r2,r3,r2
    4ef0:	00002506 	br	4f88 <_dtoa_r+0xb80>
    4ef4:	01800044 	movi	r6,1
    4ef8:	d9800c15 	stw	r6,48(sp)
    4efc:	003dec06 	br	46b0 <_dtoa_r+0x2a8>
    4f00:	d8c00817 	ldw	r3,32(sp)
    4f04:	d9000517 	ldw	r4,20(sp)
    4f08:	d8000a15 	stw	zero,40(sp)
    4f0c:	1907c83a 	sub	r3,r3,r4
    4f10:	010dc83a 	sub	r6,zero,r4
    4f14:	d8c00815 	stw	r3,32(sp)
    4f18:	d9800915 	stw	r6,36(sp)
    4f1c:	003ded06 	br	46d4 <_dtoa_r+0x2cc>
    4f20:	05adc83a 	sub	r22,zero,r22
    4f24:	dd800815 	stw	r22,32(sp)
    4f28:	002d883a 	mov	r22,zero
    4f2c:	003de406 	br	46c0 <_dtoa_r+0x2b8>
    4f30:	d9000517 	ldw	r4,20(sp)
    4f34:	000d3f40 	call	d3f4 <__floatsidf>
    4f38:	1009883a 	mov	r4,r2
    4f3c:	180b883a 	mov	r5,r3
    4f40:	b00d883a 	mov	r6,r22
    4f44:	a80f883a 	mov	r7,r21
    4f48:	000c1340 	call	c134 <__eqdf2>
    4f4c:	103dc726 	beq	r2,zero,466c <_dtoa_r+0x264>
    4f50:	d8800517 	ldw	r2,20(sp)
    4f54:	10bfffc4 	addi	r2,r2,-1
    4f58:	d8800515 	stw	r2,20(sp)
    4f5c:	003dc306 	br	466c <_dtoa_r+0x264>
    4f60:	dd400917 	ldw	r21,36(sp)
    4f64:	dd000817 	ldw	r20,32(sp)
    4f68:	0023883a 	mov	r17,zero
    4f6c:	003fa906 	br	4e14 <_dtoa_r+0xa0c>
    4f70:	d9800317 	ldw	r6,12(sp)
    4f74:	b981670e 	bge	r23,r6,5514 <_dtoa_r+0x110c>
    4f78:	0027883a 	mov	r19,zero
    4f7c:	d8c00a17 	ldw	r3,40(sp)
    4f80:	183fd21e 	bne	r3,zero,4ecc <_dtoa_r+0xac4>
    4f84:	00800044 	movi	r2,1
    4f88:	1585883a 	add	r2,r2,r22
    4f8c:	108007cc 	andi	r2,r2,31
    4f90:	10005f26 	beq	r2,zero,5110 <_dtoa_r+0xd08>
    4f94:	00c00804 	movi	r3,32
    4f98:	1887c83a 	sub	r3,r3,r2
    4f9c:	01000104 	movi	r4,4
    4fa0:	20c2dd0e 	bge	r4,r3,5b18 <_dtoa_r+0x1710>
    4fa4:	d9000817 	ldw	r4,32(sp)
    4fa8:	00c00704 	movi	r3,28
    4fac:	1885c83a 	sub	r2,r3,r2
    4fb0:	2089883a 	add	r4,r4,r2
    4fb4:	d9000815 	stw	r4,32(sp)
    4fb8:	a0a9883a 	add	r20,r20,r2
    4fbc:	b0ad883a 	add	r22,r22,r2
    4fc0:	d8800817 	ldw	r2,32(sp)
    4fc4:	0080050e 	bge	zero,r2,4fdc <_dtoa_r+0xbd4>
    4fc8:	e00b883a 	mov	r5,fp
    4fcc:	8009883a 	mov	r4,r16
    4fd0:	100d883a 	mov	r6,r2
    4fd4:	00078dc0 	call	78dc <__lshift>
    4fd8:	1039883a 	mov	fp,r2
    4fdc:	0580050e 	bge	zero,r22,4ff4 <_dtoa_r+0xbec>
    4fe0:	a80b883a 	mov	r5,r21
    4fe4:	8009883a 	mov	r4,r16
    4fe8:	b00d883a 	mov	r6,r22
    4fec:	00078dc0 	call	78dc <__lshift>
    4ff0:	102b883a 	mov	r21,r2
    4ff4:	d8c00c17 	ldw	r3,48(sp)
    4ff8:	1801161e 	bne	r3,zero,5454 <_dtoa_r+0x104c>
    4ffc:	d8c00617 	ldw	r3,24(sp)
    5000:	00c12d0e 	bge	zero,r3,54b8 <_dtoa_r+0x10b0>
    5004:	d8c00b17 	ldw	r3,44(sp)
    5008:	1800571e 	bne	r3,zero,5168 <_dtoa_r+0xd60>
    500c:	dc800717 	ldw	r18,28(sp)
    5010:	dcc00617 	ldw	r19,24(sp)
    5014:	9029883a 	mov	r20,r18
    5018:	00000206 	br	5024 <_dtoa_r+0xc1c>
    501c:	00072340 	call	7234 <__multadd>
    5020:	1039883a 	mov	fp,r2
    5024:	e009883a 	mov	r4,fp
    5028:	a80b883a 	mov	r5,r21
    502c:	00042080 	call	4208 <quorem>
    5030:	10800c04 	addi	r2,r2,48
    5034:	90800005 	stb	r2,0(r18)
    5038:	94800044 	addi	r18,r18,1
    503c:	9507c83a 	sub	r3,r18,r20
    5040:	8009883a 	mov	r4,r16
    5044:	e00b883a 	mov	r5,fp
    5048:	01800284 	movi	r6,10
    504c:	000f883a 	mov	r7,zero
    5050:	1cfff216 	blt	r3,r19,501c <_dtoa_r+0xc14>
    5054:	1011883a 	mov	r8,r2
    5058:	d8800617 	ldw	r2,24(sp)
    505c:	00822e0e 	bge	zero,r2,5918 <_dtoa_r+0x1510>
    5060:	d9000717 	ldw	r4,28(sp)
    5064:	0025883a 	mov	r18,zero
    5068:	20af883a 	add	r23,r4,r2
    506c:	e00b883a 	mov	r5,fp
    5070:	01800044 	movi	r6,1
    5074:	8009883a 	mov	r4,r16
    5078:	da001715 	stw	r8,92(sp)
    507c:	00078dc0 	call	78dc <__lshift>
    5080:	1009883a 	mov	r4,r2
    5084:	a80b883a 	mov	r5,r21
    5088:	1039883a 	mov	fp,r2
    508c:	0007a240 	call	7a24 <__mcmp>
    5090:	da001717 	ldw	r8,92(sp)
    5094:	00816e0e 	bge	zero,r2,5650 <_dtoa_r+0x1248>
    5098:	b93fffc3 	ldbu	r4,-1(r23)
    509c:	b8bfffc4 	addi	r2,r23,-1
    50a0:	1007883a 	mov	r3,r2
    50a4:	01800e44 	movi	r6,57
    50a8:	d9c00717 	ldw	r7,28(sp)
    50ac:	00000506 	br	50c4 <_dtoa_r+0xcbc>
    50b0:	18ffffc4 	addi	r3,r3,-1
    50b4:	38811926 	beq	r7,r2,551c <_dtoa_r+0x1114>
    50b8:	19000003 	ldbu	r4,0(r3)
    50bc:	102f883a 	mov	r23,r2
    50c0:	10bfffc4 	addi	r2,r2,-1
    50c4:	21403fcc 	andi	r5,r4,255
    50c8:	2940201c 	xori	r5,r5,128
    50cc:	297fe004 	addi	r5,r5,-128
    50d0:	29bff726 	beq	r5,r6,50b0 <_dtoa_r+0xca8>
    50d4:	21000044 	addi	r4,r4,1
    50d8:	11000005 	stb	r4,0(r2)
    50dc:	8009883a 	mov	r4,r16
    50e0:	a80b883a 	mov	r5,r21
    50e4:	000720c0 	call	720c <_Bfree>
    50e8:	883e7526 	beq	r17,zero,4ac0 <_dtoa_r+0x6b8>
    50ec:	90000426 	beq	r18,zero,5100 <_dtoa_r+0xcf8>
    50f0:	94400326 	beq	r18,r17,5100 <_dtoa_r+0xcf8>
    50f4:	8009883a 	mov	r4,r16
    50f8:	900b883a 	mov	r5,r18
    50fc:	000720c0 	call	720c <_Bfree>
    5100:	8009883a 	mov	r4,r16
    5104:	880b883a 	mov	r5,r17
    5108:	000720c0 	call	720c <_Bfree>
    510c:	003e6c06 	br	4ac0 <_dtoa_r+0x6b8>
    5110:	00800704 	movi	r2,28
    5114:	d9800817 	ldw	r6,32(sp)
    5118:	a0a9883a 	add	r20,r20,r2
    511c:	b0ad883a 	add	r22,r22,r2
    5120:	308d883a 	add	r6,r6,r2
    5124:	d9800815 	stw	r6,32(sp)
    5128:	003fa506 	br	4fc0 <_dtoa_r+0xbb8>
    512c:	013efb84 	movi	r4,-1042
    5130:	246bc83a 	sub	r21,r4,r17
    5134:	9548983a 	sll	r4,r18,r21
    5138:	003d1806 	br	459c <_dtoa_r+0x194>
    513c:	d8000c15 	stw	zero,48(sp)
    5140:	003d5b06 	br	46b0 <_dtoa_r+0x2a8>
    5144:	880b883a 	mov	r5,r17
    5148:	8009883a 	mov	r4,r16
    514c:	01800284 	movi	r6,10
    5150:	000f883a 	mov	r7,zero
    5154:	00072340 	call	7234 <__multadd>
    5158:	1023883a 	mov	r17,r2
    515c:	d8800d17 	ldw	r2,52(sp)
    5160:	0082550e 	bge	zero,r2,5ab8 <_dtoa_r+0x16b0>
    5164:	d8800615 	stw	r2,24(sp)
    5168:	0500050e 	bge	zero,r20,5180 <_dtoa_r+0xd78>
    516c:	880b883a 	mov	r5,r17
    5170:	8009883a 	mov	r4,r16
    5174:	a00d883a 	mov	r6,r20
    5178:	00078dc0 	call	78dc <__lshift>
    517c:	1023883a 	mov	r17,r2
    5180:	98016a1e 	bne	r19,zero,572c <_dtoa_r+0x1324>
    5184:	8829883a 	mov	r20,r17
    5188:	d9000617 	ldw	r4,24(sp)
    518c:	dcc00717 	ldw	r19,28(sp)
    5190:	9480004c 	andi	r18,r18,1
    5194:	20bfffc4 	addi	r2,r4,-1
    5198:	9885883a 	add	r2,r19,r2
    519c:	d8800415 	stw	r2,16(sp)
    51a0:	dc800615 	stw	r18,24(sp)
    51a4:	e009883a 	mov	r4,fp
    51a8:	a80b883a 	mov	r5,r21
    51ac:	00042080 	call	4208 <quorem>
    51b0:	e009883a 	mov	r4,fp
    51b4:	880b883a 	mov	r5,r17
    51b8:	102f883a 	mov	r23,r2
    51bc:	0007a240 	call	7a24 <__mcmp>
    51c0:	8009883a 	mov	r4,r16
    51c4:	a80b883a 	mov	r5,r21
    51c8:	a00d883a 	mov	r6,r20
    51cc:	102d883a 	mov	r22,r2
    51d0:	0007a840 	call	7a84 <__mdiff>
    51d4:	1007883a 	mov	r3,r2
    51d8:	10800317 	ldw	r2,12(r2)
    51dc:	bc800c04 	addi	r18,r23,48
    51e0:	1000971e 	bne	r2,zero,5440 <_dtoa_r+0x1038>
    51e4:	180b883a 	mov	r5,r3
    51e8:	e009883a 	mov	r4,fp
    51ec:	d8c01515 	stw	r3,84(sp)
    51f0:	0007a240 	call	7a24 <__mcmp>
    51f4:	d8c01517 	ldw	r3,84(sp)
    51f8:	8009883a 	mov	r4,r16
    51fc:	d8801515 	stw	r2,84(sp)
    5200:	180b883a 	mov	r5,r3
    5204:	000720c0 	call	720c <_Bfree>
    5208:	d8801517 	ldw	r2,84(sp)
    520c:	1000041e 	bne	r2,zero,5220 <_dtoa_r+0xe18>
    5210:	d9800317 	ldw	r6,12(sp)
    5214:	3000021e 	bne	r6,zero,5220 <_dtoa_r+0xe18>
    5218:	d8c00617 	ldw	r3,24(sp)
    521c:	18007626 	beq	r3,zero,53f8 <_dtoa_r+0xff0>
    5220:	b0005b16 	blt	r22,zero,5390 <_dtoa_r+0xf88>
    5224:	b000041e 	bne	r22,zero,5238 <_dtoa_r+0xe30>
    5228:	d9000317 	ldw	r4,12(sp)
    522c:	2000021e 	bne	r4,zero,5238 <_dtoa_r+0xe30>
    5230:	d8c00617 	ldw	r3,24(sp)
    5234:	18005626 	beq	r3,zero,5390 <_dtoa_r+0xf88>
    5238:	00814d16 	blt	zero,r2,5770 <_dtoa_r+0x1368>
    523c:	d8c00417 	ldw	r3,16(sp)
    5240:	9d800044 	addi	r22,r19,1
    5244:	9c800005 	stb	r18,0(r19)
    5248:	b02f883a 	mov	r23,r22
    524c:	98c14c26 	beq	r19,r3,5780 <_dtoa_r+0x1378>
    5250:	e00b883a 	mov	r5,fp
    5254:	8009883a 	mov	r4,r16
    5258:	01800284 	movi	r6,10
    525c:	000f883a 	mov	r7,zero
    5260:	00072340 	call	7234 <__multadd>
    5264:	1039883a 	mov	fp,r2
    5268:	8d006d26 	beq	r17,r20,5420 <_dtoa_r+0x1018>
    526c:	880b883a 	mov	r5,r17
    5270:	01800284 	movi	r6,10
    5274:	000f883a 	mov	r7,zero
    5278:	8009883a 	mov	r4,r16
    527c:	00072340 	call	7234 <__multadd>
    5280:	a00b883a 	mov	r5,r20
    5284:	8009883a 	mov	r4,r16
    5288:	01800284 	movi	r6,10
    528c:	000f883a 	mov	r7,zero
    5290:	1023883a 	mov	r17,r2
    5294:	00072340 	call	7234 <__multadd>
    5298:	1029883a 	mov	r20,r2
    529c:	b027883a 	mov	r19,r22
    52a0:	003fc006 	br	51a4 <_dtoa_r+0xd9c>
    52a4:	a005883a 	mov	r2,r20
    52a8:	003ede06 	br	4e24 <_dtoa_r+0xa1c>
    52ac:	01000044 	movi	r4,1
    52b0:	d9000b15 	stw	r4,44(sp)
    52b4:	d9802217 	ldw	r6,136(sp)
    52b8:	0180dc0e 	bge	zero,r6,562c <_dtoa_r+0x1224>
    52bc:	3023883a 	mov	r17,r6
    52c0:	d9800d15 	stw	r6,52(sp)
    52c4:	d9800615 	stw	r6,24(sp)
    52c8:	003d1e06 	br	4744 <_dtoa_r+0x33c>
    52cc:	d8800617 	ldw	r2,24(sp)
    52d0:	00be3716 	blt	zero,r2,4bb0 <_dtoa_r+0x7a8>
    52d4:	1000be1e 	bne	r2,zero,55d0 <_dtoa_r+0x11c8>
    52d8:	8809883a 	mov	r4,r17
    52dc:	a00b883a 	mov	r5,r20
    52e0:	000d883a 	mov	r6,zero
    52e4:	01d00534 	movhi	r7,16404
    52e8:	000c3780 	call	c378 <__muldf3>
    52ec:	1009883a 	mov	r4,r2
    52f0:	180b883a 	mov	r5,r3
    52f4:	900d883a 	mov	r6,r18
    52f8:	980f883a 	mov	r7,r19
    52fc:	000c1b80 	call	c1b8 <__gedf2>
    5300:	002b883a 	mov	r21,zero
    5304:	0023883a 	mov	r17,zero
    5308:	10007a16 	blt	r2,zero,54f4 <_dtoa_r+0x10ec>
    530c:	d9002217 	ldw	r4,136(sp)
    5310:	ddc00717 	ldw	r23,28(sp)
    5314:	0108303a 	nor	r4,zero,r4
    5318:	d9000515 	stw	r4,20(sp)
    531c:	8009883a 	mov	r4,r16
    5320:	a80b883a 	mov	r5,r21
    5324:	000720c0 	call	720c <_Bfree>
    5328:	883f751e 	bne	r17,zero,5100 <_dtoa_r+0xcf8>
    532c:	003de406 	br	4ac0 <_dtoa_r+0x6b8>
    5330:	e00b883a 	mov	r5,fp
    5334:	8009883a 	mov	r4,r16
    5338:	000779c0 	call	779c <__pow5mult>
    533c:	1039883a 	mov	fp,r2
    5340:	003ed306 	br	4e90 <_dtoa_r+0xa88>
    5344:	903ee01e 	bne	r18,zero,4ec8 <_dtoa_r+0xac0>
    5348:	00800434 	movhi	r2,16
    534c:	10bfffc4 	addi	r2,r2,-1
    5350:	9884703a 	and	r2,r19,r2
    5354:	103f081e 	bne	r2,zero,4f78 <_dtoa_r+0xb70>
    5358:	9cdffc2c 	andhi	r19,r19,32752
    535c:	983f0626 	beq	r19,zero,4f78 <_dtoa_r+0xb70>
    5360:	d8800817 	ldw	r2,32(sp)
    5364:	b5800044 	addi	r22,r22,1
    5368:	04c00044 	movi	r19,1
    536c:	10800044 	addi	r2,r2,1
    5370:	d8800815 	stw	r2,32(sp)
    5374:	003f0106 	br	4f7c <_dtoa_r+0xb74>
    5378:	d9800f17 	ldw	r6,60(sp)
    537c:	30016826 	beq	r6,zero,5920 <_dtoa_r+0x1518>
    5380:	10810cc4 	addi	r2,r2,1075
    5384:	dd400917 	ldw	r21,36(sp)
    5388:	dd000817 	ldw	r20,32(sp)
    538c:	003e9906 	br	4df4 <_dtoa_r+0x9ec>
    5390:	9011883a 	mov	r8,r18
    5394:	4007883a 	mov	r3,r8
    5398:	e02d883a 	mov	r22,fp
    539c:	0080100e 	bge	zero,r2,53e0 <_dtoa_r+0xfd8>
    53a0:	01800044 	movi	r6,1
    53a4:	8009883a 	mov	r4,r16
    53a8:	e00b883a 	mov	r5,fp
    53ac:	da001515 	stw	r8,84(sp)
    53b0:	da001715 	stw	r8,92(sp)
    53b4:	00078dc0 	call	78dc <__lshift>
    53b8:	1009883a 	mov	r4,r2
    53bc:	a80b883a 	mov	r5,r21
    53c0:	102d883a 	mov	r22,r2
    53c4:	0007a240 	call	7a24 <__mcmp>
    53c8:	d8c01517 	ldw	r3,84(sp)
    53cc:	da001717 	ldw	r8,92(sp)
    53d0:	0081a50e 	bge	zero,r2,5a68 <_dtoa_r+0x1660>
    53d4:	00800e44 	movi	r2,57
    53d8:	40817b26 	beq	r8,r2,59c8 <_dtoa_r+0x15c0>
    53dc:	40c00044 	addi	r3,r8,1
    53e0:	8825883a 	mov	r18,r17
    53e4:	9dc00044 	addi	r23,r19,1
    53e8:	98c00005 	stb	r3,0(r19)
    53ec:	a023883a 	mov	r17,r20
    53f0:	b039883a 	mov	fp,r22
    53f4:	003f3906 	br	50dc <_dtoa_r+0xcd4>
    53f8:	00800e44 	movi	r2,57
    53fc:	9011883a 	mov	r8,r18
    5400:	90817226 	beq	r18,r2,59cc <_dtoa_r+0x15c4>
    5404:	0580010e 	bge	zero,r22,540c <_dtoa_r+0x1004>
    5408:	ba000c44 	addi	r8,r23,49
    540c:	8825883a 	mov	r18,r17
    5410:	9dc00044 	addi	r23,r19,1
    5414:	9a000005 	stb	r8,0(r19)
    5418:	a023883a 	mov	r17,r20
    541c:	003f2f06 	br	50dc <_dtoa_r+0xcd4>
    5420:	880b883a 	mov	r5,r17
    5424:	8009883a 	mov	r4,r16
    5428:	01800284 	movi	r6,10
    542c:	000f883a 	mov	r7,zero
    5430:	00072340 	call	7234 <__multadd>
    5434:	1023883a 	mov	r17,r2
    5438:	1029883a 	mov	r20,r2
    543c:	003f9706 	br	529c <_dtoa_r+0xe94>
    5440:	8009883a 	mov	r4,r16
    5444:	180b883a 	mov	r5,r3
    5448:	000720c0 	call	720c <_Bfree>
    544c:	00800044 	movi	r2,1
    5450:	003f7306 	br	5220 <_dtoa_r+0xe18>
    5454:	e009883a 	mov	r4,fp
    5458:	a80b883a 	mov	r5,r21
    545c:	0007a240 	call	7a24 <__mcmp>
    5460:	103ee60e 	bge	r2,zero,4ffc <_dtoa_r+0xbf4>
    5464:	8009883a 	mov	r4,r16
    5468:	e00b883a 	mov	r5,fp
    546c:	01800284 	movi	r6,10
    5470:	000f883a 	mov	r7,zero
    5474:	00072340 	call	7234 <__multadd>
    5478:	d9000517 	ldw	r4,20(sp)
    547c:	d9800b17 	ldw	r6,44(sp)
    5480:	1039883a 	mov	fp,r2
    5484:	213fffc4 	addi	r4,r4,-1
    5488:	d9000515 	stw	r4,20(sp)
    548c:	303f2d1e 	bne	r6,zero,5144 <_dtoa_r+0xd3c>
    5490:	d9000d17 	ldw	r4,52(sp)
