Archive member included to satisfy reference by file (symbol)

/home/hadrien/altera/15.0/nios2eds/bin/gnu/H-x86_64-pc-linux-gnu/bin/../lib/gcc/nios2-elf/4.9.1/libgcc.a(lib2-divmod.o)
                              obj/default/hello_world.o (__divsi3)
/home/hadrien/altera/15.0/nios2eds/bin/gnu/H-x86_64-pc-linux-gnu/bin/../lib/gcc/nios2-elf/4.9.1/../../../../../H-x86_64-pc-linux-gnu/nios2-elf/lib/libc.a(lib_a-calloc.o)
                              obj/default/hello_world.o (calloc)
/home/hadrien/altera/15.0/nios2eds/bin/gnu/H-x86_64-pc-linux-gnu/bin/../lib/gcc/nios2-elf/4.9.1/../../../../../H-x86_64-pc-linux-gnu/nios2-elf/lib/libc.a(lib_a-callocr.o)
                              /home/hadrien/altera/15.0/nios2eds/bin/gnu/H-x86_64-pc-linux-gnu/bin/../lib/gcc/nios2-elf/4.9.1/../../../../../H-x86_64-pc-linux-gnu/nios2-elf/lib/libc.a(lib_a-calloc.o) (_calloc_r)
/home/hadrien/altera/15.0/nios2eds/bin/gnu/H-x86_64-pc-linux-gnu/bin/../lib/gcc/nios2-elf/4.9.1/../../../../../H-x86_64-pc-linux-gnu/nios2-elf/lib/libc.a(lib_a-impure.o)
                              obj/default/hello_world.o (_impure_ptr)
/home/hadrien/altera/15.0/nios2eds/bin/gnu/H-x86_64-pc-linux-gnu/bin/../lib/gcc/nios2-elf/4.9.1/../../../../../H-x86_64-pc-linux-gnu/nios2-elf/lib/libc.a(lib_a-mallocr.o)
                              /home/hadrien/altera/15.0/nios2eds/bin/gnu/H-x86_64-pc-linux-gnu/bin/../lib/gcc/nios2-elf/4.9.1/../../../../../H-x86_64-pc-linux-gnu/nios2-elf/lib/libc.a(lib_a-callocr.o) (_malloc_r)
/home/hadrien/altera/15.0/nios2eds/bin/gnu/H-x86_64-pc-linux-gnu/bin/../lib/gcc/nios2-elf/4.9.1/../../../../../H-x86_64-pc-linux-gnu/nios2-elf/lib/libc.a(lib_a-memset.o)
                              /home/hadrien/altera/15.0/nios2eds/bin/gnu/H-x86_64-pc-linux-gnu/bin/../lib/gcc/nios2-elf/4.9.1/../../../../../H-x86_64-pc-linux-gnu/nios2-elf/lib/libc.a(lib_a-callocr.o) (memset)
/home/hadrien/altera/15.0/nios2eds/bin/gnu/H-x86_64-pc-linux-gnu/bin/../lib/gcc/nios2-elf/4.9.1/../../../../../H-x86_64-pc-linux-gnu/nios2-elf/lib/libc.a(lib_a-printf.o)
                              obj/default/hello_world.o (printf)
/home/hadrien/altera/15.0/nios2eds/bin/gnu/H-x86_64-pc-linux-gnu/bin/../lib/gcc/nios2-elf/4.9.1/../../../../../H-x86_64-pc-linux-gnu/nios2-elf/lib/libc.a(lib_a-putc.o)
                              obj/default/hello_world.o (putc)
/home/hadrien/altera/15.0/nios2eds/bin/gnu/H-x86_64-pc-linux-gnu/bin/../lib/gcc/nios2-elf/4.9.1/../../../../../H-x86_64-pc-linux-gnu/nios2-elf/lib/libc.a(lib_a-puts.o)
                              obj/default/hello_world.o (puts)
/home/hadrien/altera/15.0/nios2eds/bin/gnu/H-x86_64-pc-linux-gnu/bin/../lib/gcc/nios2-elf/4.9.1/../../../../../H-x86_64-pc-linux-gnu/nios2-elf/lib/libc.a(lib_a-sbrkr.o)
                              /home/hadrien/altera/15.0/nios2eds/bin/gnu/H-x86_64-pc-linux-gnu/bin/../lib/gcc/nios2-elf/4.9.1/../../../../../H-x86_64-pc-linux-gnu/nios2-elf/lib/libc.a(lib_a-mallocr.o) (_sbrk_r)
/home/hadrien/altera/15.0/nios2eds/bin/gnu/H-x86_64-pc-linux-gnu/bin/../lib/gcc/nios2-elf/4.9.1/../../../../../H-x86_64-pc-linux-gnu/nios2-elf/lib/libc.a(lib_a-strlen.o)
                              /home/hadrien/altera/15.0/nios2eds/bin/gnu/H-x86_64-pc-linux-gnu/bin/../lib/gcc/nios2-elf/4.9.1/../../../../../H-x86_64-pc-linux-gnu/nios2-elf/lib/libc.a(lib_a-puts.o) (strlen)
/home/hadrien/altera/15.0/nios2eds/bin/gnu/H-x86_64-pc-linux-gnu/bin/../lib/gcc/nios2-elf/4.9.1/../../../../../H-x86_64-pc-linux-gnu/nios2-elf/lib/libc.a(lib_a-vfprintf.o)
                              /home/hadrien/altera/15.0/nios2eds/bin/gnu/H-x86_64-pc-linux-gnu/bin/../lib/gcc/nios2-elf/4.9.1/../../../../../H-x86_64-pc-linux-gnu/nios2-elf/lib/libc.a(lib_a-printf.o) (___vfprintf_internal_r)
/home/hadrien/altera/15.0/nios2eds/bin/gnu/H-x86_64-pc-linux-gnu/bin/../lib/gcc/nios2-elf/4.9.1/../../../../../H-x86_64-pc-linux-gnu/nios2-elf/lib/libc.a(lib_a-wbuf.o)
                              /home/hadrien/altera/15.0/nios2eds/bin/gnu/H-x86_64-pc-linux-gnu/bin/../lib/gcc/nios2-elf/4.9.1/../../../../../H-x86_64-pc-linux-gnu/nios2-elf/lib/libc.a(lib_a-putc.o) (__swbuf_r)
/home/hadrien/altera/15.0/nios2eds/bin/gnu/H-x86_64-pc-linux-gnu/bin/../lib/gcc/nios2-elf/4.9.1/../../../../../H-x86_64-pc-linux-gnu/nios2-elf/lib/libc.a(lib_a-wsetup.o)
                              /home/hadrien/altera/15.0/nios2eds/bin/gnu/H-x86_64-pc-linux-gnu/bin/../lib/gcc/nios2-elf/4.9.1/../../../../../H-x86_64-pc-linux-gnu/nios2-elf/lib/libc.a(lib_a-vfprintf.o) (__swsetup_r)
/home/hadrien/altera/15.0/nios2eds/bin/gnu/H-x86_64-pc-linux-gnu/bin/../lib/gcc/nios2-elf/4.9.1/../../../../../H-x86_64-pc-linux-gnu/nios2-elf/lib/libc.a(lib_a-dtoa.o)
                              /home/hadrien/altera/15.0/nios2eds/bin/gnu/H-x86_64-pc-linux-gnu/bin/../lib/gcc/nios2-elf/4.9.1/../../../../../H-x86_64-pc-linux-gnu/nios2-elf/lib/libc.a(lib_a-vfprintf.o) (_dtoa_r)
/home/hadrien/altera/15.0/nios2eds/bin/gnu/H-x86_64-pc-linux-gnu/bin/../lib/gcc/nios2-elf/4.9.1/../../../../../H-x86_64-pc-linux-gnu/nios2-elf/lib/libc.a(lib_a-fflush.o)
                              /home/hadrien/altera/15.0/nios2eds/bin/gnu/H-x86_64-pc-linux-gnu/bin/../lib/gcc/nios2-elf/4.9.1/../../../../../H-x86_64-pc-linux-gnu/nios2-elf/lib/libc.a(lib_a-vfprintf.o) (_fflush_r)
/home/hadrien/altera/15.0/nios2eds/bin/gnu/H-x86_64-pc-linux-gnu/bin/../lib/gcc/nios2-elf/4.9.1/../../../../../H-x86_64-pc-linux-gnu/nios2-elf/lib/libc.a(lib_a-findfp.o)
                              /home/hadrien/altera/15.0/nios2eds/bin/gnu/H-x86_64-pc-linux-gnu/bin/../lib/gcc/nios2-elf/4.9.1/../../../../../H-x86_64-pc-linux-gnu/nios2-elf/lib/libc.a(lib_a-putc.o) (__sinit)
/home/hadrien/altera/15.0/nios2eds/bin/gnu/H-x86_64-pc-linux-gnu/bin/../lib/gcc/nios2-elf/4.9.1/../../../../../H-x86_64-pc-linux-gnu/nios2-elf/lib/libc.a(lib_a-freer.o)
                              /home/hadrien/altera/15.0/nios2eds/bin/gnu/H-x86_64-pc-linux-gnu/bin/../lib/gcc/nios2-elf/4.9.1/../../../../../H-x86_64-pc-linux-gnu/nios2-elf/lib/libc.a(lib_a-mallocr.o) (_free_r)
/home/hadrien/altera/15.0/nios2eds/bin/gnu/H-x86_64-pc-linux-gnu/bin/../lib/gcc/nios2-elf/4.9.1/../../../../../H-x86_64-pc-linux-gnu/nios2-elf/lib/libc.a(lib_a-fvwrite.o)
                              /home/hadrien/altera/15.0/nios2eds/bin/gnu/H-x86_64-pc-linux-gnu/bin/../lib/gcc/nios2-elf/4.9.1/../../../../../H-x86_64-pc-linux-gnu/nios2-elf/lib/libc.a(lib_a-puts.o) (__sfvwrite_r)
/home/hadrien/altera/15.0/nios2eds/bin/gnu/H-x86_64-pc-linux-gnu/bin/../lib/gcc/nios2-elf/4.9.1/../../../../../H-x86_64-pc-linux-gnu/nios2-elf/lib/libc.a(lib_a-fwalk.o)
                              /home/hadrien/altera/15.0/nios2eds/bin/gnu/H-x86_64-pc-linux-gnu/bin/../lib/gcc/nios2-elf/4.9.1/../../../../../H-x86_64-pc-linux-gnu/nios2-elf/lib/libc.a(lib_a-findfp.o) (_fwalk)
/home/hadrien/altera/15.0/nios2eds/bin/gnu/H-x86_64-pc-linux-gnu/bin/../lib/gcc/nios2-elf/4.9.1/../../../../../H-x86_64-pc-linux-gnu/nios2-elf/lib/libc.a(lib_a-int_errno.o)
                              /home/hadrien/altera/15.0/nios2eds/bin/gnu/H-x86_64-pc-linux-gnu/bin/../lib/gcc/nios2-elf/4.9.1/../../../../../H-x86_64-pc-linux-gnu/nios2-elf/lib/libc.a(lib_a-sbrkr.o) (errno)
/home/hadrien/altera/15.0/nios2eds/bin/gnu/H-x86_64-pc-linux-gnu/bin/../lib/gcc/nios2-elf/4.9.1/../../../../../H-x86_64-pc-linux-gnu/nios2-elf/lib/libc.a(lib_a-locale.o)
                              /home/hadrien/altera/15.0/nios2eds/bin/gnu/H-x86_64-pc-linux-gnu/bin/../lib/gcc/nios2-elf/4.9.1/../../../../../H-x86_64-pc-linux-gnu/nios2-elf/lib/libc.a(lib_a-vfprintf.o) (_localeconv_r)
/home/hadrien/altera/15.0/nios2eds/bin/gnu/H-x86_64-pc-linux-gnu/bin/../lib/gcc/nios2-elf/4.9.1/../../../../../H-x86_64-pc-linux-gnu/nios2-elf/lib/libc.a(lib_a-makebuf.o)
                              /home/hadrien/altera/15.0/nios2eds/bin/gnu/H-x86_64-pc-linux-gnu/bin/../lib/gcc/nios2-elf/4.9.1/../../../../../H-x86_64-pc-linux-gnu/nios2-elf/lib/libc.a(lib_a-wsetup.o) (__smakebuf_r)
/home/hadrien/altera/15.0/nios2eds/bin/gnu/H-x86_64-pc-linux-gnu/bin/../lib/gcc/nios2-elf/4.9.1/../../../../../H-x86_64-pc-linux-gnu/nios2-elf/lib/libc.a(lib_a-memchr.o)
                              /home/hadrien/altera/15.0/nios2eds/bin/gnu/H-x86_64-pc-linux-gnu/bin/../lib/gcc/nios2-elf/4.9.1/../../../../../H-x86_64-pc-linux-gnu/nios2-elf/lib/libc.a(lib_a-vfprintf.o) (memchr)
/home/hadrien/altera/15.0/nios2eds/bin/gnu/H-x86_64-pc-linux-gnu/bin/../lib/gcc/nios2-elf/4.9.1/../../../../../H-x86_64-pc-linux-gnu/nios2-elf/lib/libc.a(lib_a-memcpy.o)
                              /home/hadrien/altera/15.0/nios2eds/bin/gnu/H-x86_64-pc-linux-gnu/bin/../lib/gcc/nios2-elf/4.9.1/../../../../../H-x86_64-pc-linux-gnu/nios2-elf/lib/libc.a(lib_a-dtoa.o) (memcpy)
/home/hadrien/altera/15.0/nios2eds/bin/gnu/H-x86_64-pc-linux-gnu/bin/../lib/gcc/nios2-elf/4.9.1/../../../../../H-x86_64-pc-linux-gnu/nios2-elf/lib/libc.a(lib_a-memmove.o)
                              /home/hadrien/altera/15.0/nios2eds/bin/gnu/H-x86_64-pc-linux-gnu/bin/../lib/gcc/nios2-elf/4.9.1/../../../../../H-x86_64-pc-linux-gnu/nios2-elf/lib/libc.a(lib_a-fvwrite.o) (memmove)
/home/hadrien/altera/15.0/nios2eds/bin/gnu/H-x86_64-pc-linux-gnu/bin/../lib/gcc/nios2-elf/4.9.1/../../../../../H-x86_64-pc-linux-gnu/nios2-elf/lib/libc.a(lib_a-mprec.o)
                              /home/hadrien/altera/15.0/nios2eds/bin/gnu/H-x86_64-pc-linux-gnu/bin/../lib/gcc/nios2-elf/4.9.1/../../../../../H-x86_64-pc-linux-gnu/nios2-elf/lib/libc.a(lib_a-dtoa.o) (_Balloc)
/home/hadrien/altera/15.0/nios2eds/bin/gnu/H-x86_64-pc-linux-gnu/bin/../lib/gcc/nios2-elf/4.9.1/../../../../../H-x86_64-pc-linux-gnu/nios2-elf/lib/libc.a(lib_a-reallocr.o)
                              /home/hadrien/altera/15.0/nios2eds/bin/gnu/H-x86_64-pc-linux-gnu/bin/../lib/gcc/nios2-elf/4.9.1/../../../../../H-x86_64-pc-linux-gnu/nios2-elf/lib/libc.a(lib_a-fvwrite.o) (_realloc_r)
/home/hadrien/altera/15.0/nios2eds/bin/gnu/H-x86_64-pc-linux-gnu/bin/../lib/gcc/nios2-elf/4.9.1/../../../../../H-x86_64-pc-linux-gnu/nios2-elf/lib/libc.a(lib_a-s_fpclassify.o)
                              /home/hadrien/altera/15.0/nios2eds/bin/gnu/H-x86_64-pc-linux-gnu/bin/../lib/gcc/nios2-elf/4.9.1/../../../../../H-x86_64-pc-linux-gnu/nios2-elf/lib/libc.a(lib_a-vfprintf.o) (__fpclassifyd)
/home/hadrien/altera/15.0/nios2eds/bin/gnu/H-x86_64-pc-linux-gnu/bin/../lib/gcc/nios2-elf/4.9.1/../../../../../H-x86_64-pc-linux-gnu/nios2-elf/lib/libc.a(lib_a-stdio.o)
                              /home/hadrien/altera/15.0/nios2eds/bin/gnu/H-x86_64-pc-linux-gnu/bin/../lib/gcc/nios2-elf/4.9.1/../../../../../H-x86_64-pc-linux-gnu/nios2-elf/lib/libc.a(lib_a-findfp.o) (__sread)
/home/hadrien/altera/15.0/nios2eds/bin/gnu/H-x86_64-pc-linux-gnu/bin/../lib/gcc/nios2-elf/4.9.1/../../../../../H-x86_64-pc-linux-gnu/nios2-elf/lib/libc.a(lib_a-strcmp.o)
                              /home/hadrien/altera/15.0/nios2eds/bin/gnu/H-x86_64-pc-linux-gnu/bin/../lib/gcc/nios2-elf/4.9.1/../../../../../H-x86_64-pc-linux-gnu/nios2-elf/lib/libc.a(lib_a-locale.o) (strcmp)
/home/hadrien/altera/15.0/nios2eds/bin/gnu/H-x86_64-pc-linux-gnu/bin/../lib/gcc/nios2-elf/4.9.1/../../../../../H-x86_64-pc-linux-gnu/nios2-elf/lib/libc.a(lib_a-vfiprintf.o)
                              /home/hadrien/altera/15.0/nios2eds/bin/gnu/H-x86_64-pc-linux-gnu/bin/../lib/gcc/nios2-elf/4.9.1/../../../../../H-x86_64-pc-linux-gnu/nios2-elf/lib/libc.a(lib_a-vfprintf.o) (__sprint_r)
/home/hadrien/altera/15.0/nios2eds/bin/gnu/H-x86_64-pc-linux-gnu/bin/../lib/gcc/nios2-elf/4.9.1/../../../../../H-x86_64-pc-linux-gnu/nios2-elf/lib/libc.a(lib_a-writer.o)
                              /home/hadrien/altera/15.0/nios2eds/bin/gnu/H-x86_64-pc-linux-gnu/bin/../lib/gcc/nios2-elf/4.9.1/../../../../../H-x86_64-pc-linux-gnu/nios2-elf/lib/libc.a(lib_a-stdio.o) (_write_r)
/home/hadrien/altera/15.0/nios2eds/bin/gnu/H-x86_64-pc-linux-gnu/bin/../lib/gcc/nios2-elf/4.9.1/../../../../../H-x86_64-pc-linux-gnu/nios2-elf/lib/libc.a(closer.o)
                              /home/hadrien/altera/15.0/nios2eds/bin/gnu/H-x86_64-pc-linux-gnu/bin/../lib/gcc/nios2-elf/4.9.1/../../../../../H-x86_64-pc-linux-gnu/nios2-elf/lib/libc.a(lib_a-stdio.o) (_close_r)
/home/hadrien/altera/15.0/nios2eds/bin/gnu/H-x86_64-pc-linux-gnu/bin/../lib/gcc/nios2-elf/4.9.1/../../../../../H-x86_64-pc-linux-gnu/nios2-elf/lib/libc.a(lib_a-fclose.o)
                              /home/hadrien/altera/15.0/nios2eds/bin/gnu/H-x86_64-pc-linux-gnu/bin/../lib/gcc/nios2-elf/4.9.1/../../../../../H-x86_64-pc-linux-gnu/nios2-elf/lib/libc.a(lib_a-findfp.o) (fclose)
/home/hadrien/altera/15.0/nios2eds/bin/gnu/H-x86_64-pc-linux-gnu/bin/../lib/gcc/nios2-elf/4.9.1/../../../../../H-x86_64-pc-linux-gnu/nios2-elf/lib/libc.a(lib_a-fputwc.o)
                              /home/hadrien/altera/15.0/nios2eds/bin/gnu/H-x86_64-pc-linux-gnu/bin/../lib/gcc/nios2-elf/4.9.1/../../../../../H-x86_64-pc-linux-gnu/nios2-elf/lib/libc.a(lib_a-vfiprintf.o) (_fputwc_r)
/home/hadrien/altera/15.0/nios2eds/bin/gnu/H-x86_64-pc-linux-gnu/bin/../lib/gcc/nios2-elf/4.9.1/../../../../../H-x86_64-pc-linux-gnu/nios2-elf/lib/libc.a(lib_a-fstatr.o)
                              /home/hadrien/altera/15.0/nios2eds/bin/gnu/H-x86_64-pc-linux-gnu/bin/../lib/gcc/nios2-elf/4.9.1/../../../../../H-x86_64-pc-linux-gnu/nios2-elf/lib/libc.a(lib_a-makebuf.o) (_fstat_r)
/home/hadrien/altera/15.0/nios2eds/bin/gnu/H-x86_64-pc-linux-gnu/bin/../lib/gcc/nios2-elf/4.9.1/../../../../../H-x86_64-pc-linux-gnu/nios2-elf/lib/libc.a(lib_a-isattyr.o)
                              /home/hadrien/altera/15.0/nios2eds/bin/gnu/H-x86_64-pc-linux-gnu/bin/../lib/gcc/nios2-elf/4.9.1/../../../../../H-x86_64-pc-linux-gnu/nios2-elf/lib/libc.a(lib_a-makebuf.o) (_isatty_r)
/home/hadrien/altera/15.0/nios2eds/bin/gnu/H-x86_64-pc-linux-gnu/bin/../lib/gcc/nios2-elf/4.9.1/../../../../../H-x86_64-pc-linux-gnu/nios2-elf/lib/libc.a(lib_a-lseekr.o)
                              /home/hadrien/altera/15.0/nios2eds/bin/gnu/H-x86_64-pc-linux-gnu/bin/../lib/gcc/nios2-elf/4.9.1/../../../../../H-x86_64-pc-linux-gnu/nios2-elf/lib/libc.a(lib_a-stdio.o) (_lseek_r)
/home/hadrien/altera/15.0/nios2eds/bin/gnu/H-x86_64-pc-linux-gnu/bin/../lib/gcc/nios2-elf/4.9.1/../../../../../H-x86_64-pc-linux-gnu/nios2-elf/lib/libc.a(lib_a-readr.o)
                              /home/hadrien/altera/15.0/nios2eds/bin/gnu/H-x86_64-pc-linux-gnu/bin/../lib/gcc/nios2-elf/4.9.1/../../../../../H-x86_64-pc-linux-gnu/nios2-elf/lib/libc.a(lib_a-stdio.o) (_read_r)
/home/hadrien/altera/15.0/nios2eds/bin/gnu/H-x86_64-pc-linux-gnu/bin/../lib/gcc/nios2-elf/4.9.1/../../../../../H-x86_64-pc-linux-gnu/nios2-elf/lib/libc.a(lib_a-wcrtomb.o)
                              /home/hadrien/altera/15.0/nios2eds/bin/gnu/H-x86_64-pc-linux-gnu/bin/../lib/gcc/nios2-elf/4.9.1/../../../../../H-x86_64-pc-linux-gnu/nios2-elf/lib/libc.a(lib_a-fputwc.o) (_wcrtomb_r)
/home/hadrien/altera/15.0/nios2eds/bin/gnu/H-x86_64-pc-linux-gnu/bin/../lib/gcc/nios2-elf/4.9.1/../../../../../H-x86_64-pc-linux-gnu/nios2-elf/lib/libc.a(lib_a-wctomb_r.o)
                              /home/hadrien/altera/15.0/nios2eds/bin/gnu/H-x86_64-pc-linux-gnu/bin/../lib/gcc/nios2-elf/4.9.1/../../../../../H-x86_64-pc-linux-gnu/nios2-elf/lib/libc.a(lib_a-wcrtomb.o) (__wctomb)
/home/hadrien/altera/15.0/nios2eds/bin/gnu/H-x86_64-pc-linux-gnu/bin/../lib/gcc/nios2-elf/4.9.1/libgcc.a(_udivdi3.o)
                              /home/hadrien/altera/15.0/nios2eds/bin/gnu/H-x86_64-pc-linux-gnu/bin/../lib/gcc/nios2-elf/4.9.1/../../../../../H-x86_64-pc-linux-gnu/nios2-elf/lib/libc.a(lib_a-vfprintf.o) (__udivdi3)
/home/hadrien/altera/15.0/nios2eds/bin/gnu/H-x86_64-pc-linux-gnu/bin/../lib/gcc/nios2-elf/4.9.1/libgcc.a(_umoddi3.o)
                              /home/hadrien/altera/15.0/nios2eds/bin/gnu/H-x86_64-pc-linux-gnu/bin/../lib/gcc/nios2-elf/4.9.1/../../../../../H-x86_64-pc-linux-gnu/nios2-elf/lib/libc.a(lib_a-vfprintf.o) (__umoddi3)
/home/hadrien/altera/15.0/nios2eds/bin/gnu/H-x86_64-pc-linux-gnu/bin/../lib/gcc/nios2-elf/4.9.1/libgcc.a(adddf3.o)
                              /home/hadrien/altera/15.0/nios2eds/bin/gnu/H-x86_64-pc-linux-gnu/bin/../lib/gcc/nios2-elf/4.9.1/../../../../../H-x86_64-pc-linux-gnu/nios2-elf/lib/libc.a(lib_a-dtoa.o) (__adddf3)
/home/hadrien/altera/15.0/nios2eds/bin/gnu/H-x86_64-pc-linux-gnu/bin/../lib/gcc/nios2-elf/4.9.1/libgcc.a(divdf3.o)
                              /home/hadrien/altera/15.0/nios2eds/bin/gnu/H-x86_64-pc-linux-gnu/bin/../lib/gcc/nios2-elf/4.9.1/../../../../../H-x86_64-pc-linux-gnu/nios2-elf/lib/libc.a(lib_a-dtoa.o) (__divdf3)
/home/hadrien/altera/15.0/nios2eds/bin/gnu/H-x86_64-pc-linux-gnu/bin/../lib/gcc/nios2-elf/4.9.1/libgcc.a(eqdf2.o)
                              /home/hadrien/altera/15.0/nios2eds/bin/gnu/H-x86_64-pc-linux-gnu/bin/../lib/gcc/nios2-elf/4.9.1/../../../../../H-x86_64-pc-linux-gnu/nios2-elf/lib/libc.a(lib_a-vfprintf.o) (__eqdf2)
/home/hadrien/altera/15.0/nios2eds/bin/gnu/H-x86_64-pc-linux-gnu/bin/../lib/gcc/nios2-elf/4.9.1/libgcc.a(gedf2.o)
                              /home/hadrien/altera/15.0/nios2eds/bin/gnu/H-x86_64-pc-linux-gnu/bin/../lib/gcc/nios2-elf/4.9.1/../../../../../H-x86_64-pc-linux-gnu/nios2-elf/lib/libc.a(lib_a-dtoa.o) (__gedf2)
/home/hadrien/altera/15.0/nios2eds/bin/gnu/H-x86_64-pc-linux-gnu/bin/../lib/gcc/nios2-elf/4.9.1/libgcc.a(ledf2.o)
                              /home/hadrien/altera/15.0/nios2eds/bin/gnu/H-x86_64-pc-linux-gnu/bin/../lib/gcc/nios2-elf/4.9.1/../../../../../H-x86_64-pc-linux-gnu/nios2-elf/lib/libc.a(lib_a-vfprintf.o) (__ltdf2)
/home/hadrien/altera/15.0/nios2eds/bin/gnu/H-x86_64-pc-linux-gnu/bin/../lib/gcc/nios2-elf/4.9.1/libgcc.a(muldf3.o)
                              /home/hadrien/altera/15.0/nios2eds/bin/gnu/H-x86_64-pc-linux-gnu/bin/../lib/gcc/nios2-elf/4.9.1/../../../../../H-x86_64-pc-linux-gnu/nios2-elf/lib/libc.a(lib_a-dtoa.o) (__muldf3)
/home/hadrien/altera/15.0/nios2eds/bin/gnu/H-x86_64-pc-linux-gnu/bin/../lib/gcc/nios2-elf/4.9.1/libgcc.a(subdf3.o)
                              /home/hadrien/altera/15.0/nios2eds/bin/gnu/H-x86_64-pc-linux-gnu/bin/../lib/gcc/nios2-elf/4.9.1/../../../../../H-x86_64-pc-linux-gnu/nios2-elf/lib/libc.a(lib_a-dtoa.o) (__subdf3)
/home/hadrien/altera/15.0/nios2eds/bin/gnu/H-x86_64-pc-linux-gnu/bin/../lib/gcc/nios2-elf/4.9.1/libgcc.a(fixdfsi.o)
                              /home/hadrien/altera/15.0/nios2eds/bin/gnu/H-x86_64-pc-linux-gnu/bin/../lib/gcc/nios2-elf/4.9.1/../../../../../H-x86_64-pc-linux-gnu/nios2-elf/lib/libc.a(lib_a-dtoa.o) (__fixdfsi)
/home/hadrien/altera/15.0/nios2eds/bin/gnu/H-x86_64-pc-linux-gnu/bin/../lib/gcc/nios2-elf/4.9.1/libgcc.a(floatsidf.o)
                              /home/hadrien/altera/15.0/nios2eds/bin/gnu/H-x86_64-pc-linux-gnu/bin/../lib/gcc/nios2-elf/4.9.1/../../../../../H-x86_64-pc-linux-gnu/nios2-elf/lib/libc.a(lib_a-dtoa.o) (__floatsidf)
/home/hadrien/altera/15.0/nios2eds/bin/gnu/H-x86_64-pc-linux-gnu/bin/../lib/gcc/nios2-elf/4.9.1/libgcc.a(floatunsidf.o)
                              /home/hadrien/altera/15.0/nios2eds/bin/gnu/H-x86_64-pc-linux-gnu/bin/../lib/gcc/nios2-elf/4.9.1/../../../../../H-x86_64-pc-linux-gnu/nios2-elf/lib/libc.a(lib_a-dtoa.o) (__floatunsidf)
/home/hadrien/altera/15.0/nios2eds/bin/gnu/H-x86_64-pc-linux-gnu/bin/../lib/gcc/nios2-elf/4.9.1/libgcc.a(_clz.o)
                              /home/hadrien/altera/15.0/nios2eds/bin/gnu/H-x86_64-pc-linux-gnu/bin/../lib/gcc/nios2-elf/4.9.1/libgcc.a(_udivdi3.o) (__clz_tab)
/home/hadrien/altera/15.0/nios2eds/bin/gnu/H-x86_64-pc-linux-gnu/bin/../lib/gcc/nios2-elf/4.9.1/libgcc.a(_clzsi2.o)
                              /home/hadrien/altera/15.0/nios2eds/bin/gnu/H-x86_64-pc-linux-gnu/bin/../lib/gcc/nios2-elf/4.9.1/libgcc.a(adddf3.o) (__clzsi2)
/data/workspace/ES/lab03/software/camera_app_bsp//libhal_bsp.a(alt_close.o)
                              /home/hadrien/altera/15.0/nios2eds/bin/gnu/H-x86_64-pc-linux-gnu/bin/../lib/gcc/nios2-elf/4.9.1/../../../../../H-x86_64-pc-linux-gnu/nios2-elf/lib/libc.a(closer.o) (close)
/data/workspace/ES/lab03/software/camera_app_bsp//libhal_bsp.a(alt_dev.o)
                              /data/workspace/ES/lab03/software/camera_app_bsp//libhal_bsp.a(alt_close.o) (alt_fd_list)
/data/workspace/ES/lab03/software/camera_app_bsp//libhal_bsp.a(alt_errno.o)
                              /data/workspace/ES/lab03/software/camera_app_bsp//libhal_bsp.a(alt_close.o) (alt_errno)
/data/workspace/ES/lab03/software/camera_app_bsp//libhal_bsp.a(alt_fstat.o)
                              /home/hadrien/altera/15.0/nios2eds/bin/gnu/H-x86_64-pc-linux-gnu/bin/../lib/gcc/nios2-elf/4.9.1/../../../../../H-x86_64-pc-linux-gnu/nios2-elf/lib/libc.a(lib_a-fstatr.o) (fstat)
/data/workspace/ES/lab03/software/camera_app_bsp//libhal_bsp.a(alt_isatty.o)
                              /home/hadrien/altera/15.0/nios2eds/bin/gnu/H-x86_64-pc-linux-gnu/bin/../lib/gcc/nios2-elf/4.9.1/../../../../../H-x86_64-pc-linux-gnu/nios2-elf/lib/libc.a(lib_a-isattyr.o) (isatty)
/data/workspace/ES/lab03/software/camera_app_bsp//libhal_bsp.a(alt_load.o)
                              /data/workspace/ES/lab03/software/camera_app_bsp//obj/HAL/src/crt0.o (alt_load)
/data/workspace/ES/lab03/software/camera_app_bsp//libhal_bsp.a(alt_lseek.o)
                              /home/hadrien/altera/15.0/nios2eds/bin/gnu/H-x86_64-pc-linux-gnu/bin/../lib/gcc/nios2-elf/4.9.1/../../../../../H-x86_64-pc-linux-gnu/nios2-elf/lib/libc.a(lib_a-lseekr.o) (lseek)
/data/workspace/ES/lab03/software/camera_app_bsp//libhal_bsp.a(alt_main.o)
                              /data/workspace/ES/lab03/software/camera_app_bsp//obj/HAL/src/crt0.o (alt_main)
/data/workspace/ES/lab03/software/camera_app_bsp//libhal_bsp.a(alt_malloc_lock.o)
                              /home/hadrien/altera/15.0/nios2eds/bin/gnu/H-x86_64-pc-linux-gnu/bin/../lib/gcc/nios2-elf/4.9.1/../../../../../H-x86_64-pc-linux-gnu/nios2-elf/lib/libc.a(lib_a-mallocr.o) (__malloc_lock)
/data/workspace/ES/lab03/software/camera_app_bsp//libhal_bsp.a(alt_read.o)
                              /home/hadrien/altera/15.0/nios2eds/bin/gnu/H-x86_64-pc-linux-gnu/bin/../lib/gcc/nios2-elf/4.9.1/../../../../../H-x86_64-pc-linux-gnu/nios2-elf/lib/libc.a(lib_a-readr.o) (read)
/data/workspace/ES/lab03/software/camera_app_bsp//libhal_bsp.a(alt_release_fd.o)
                              /data/workspace/ES/lab03/software/camera_app_bsp//libhal_bsp.a(alt_close.o) (alt_release_fd)
/data/workspace/ES/lab03/software/camera_app_bsp//libhal_bsp.a(alt_sbrk.o)
                              /home/hadrien/altera/15.0/nios2eds/bin/gnu/H-x86_64-pc-linux-gnu/bin/../lib/gcc/nios2-elf/4.9.1/../../../../../H-x86_64-pc-linux-gnu/nios2-elf/lib/libc.a(lib_a-sbrkr.o) (sbrk)
/data/workspace/ES/lab03/software/camera_app_bsp//libhal_bsp.a(alt_usleep.o)
                              obj/default/i2c/i2c.o (usleep)
/data/workspace/ES/lab03/software/camera_app_bsp//libhal_bsp.a(alt_write.o)
                              /home/hadrien/altera/15.0/nios2eds/bin/gnu/H-x86_64-pc-linux-gnu/bin/../lib/gcc/nios2-elf/4.9.1/../../../../../H-x86_64-pc-linux-gnu/nios2-elf/lib/libc.a(lib_a-writer.o) (write)
/data/workspace/ES/lab03/software/camera_app_bsp//libhal_bsp.a(alt_sys_init.o)
                              /data/workspace/ES/lab03/software/camera_app_bsp//libhal_bsp.a(alt_main.o) (alt_irq_init)
/data/workspace/ES/lab03/software/camera_app_bsp//libhal_bsp.a(altera_avalon_jtag_uart_fd.o)
                              /data/workspace/ES/lab03/software/camera_app_bsp//libhal_bsp.a(alt_sys_init.o) (altera_avalon_jtag_uart_read_fd)
/data/workspace/ES/lab03/software/camera_app_bsp//libhal_bsp.a(altera_avalon_jtag_uart_init.o)
                              /data/workspace/ES/lab03/software/camera_app_bsp//libhal_bsp.a(alt_sys_init.o) (altera_avalon_jtag_uart_init)
/data/workspace/ES/lab03/software/camera_app_bsp//libhal_bsp.a(altera_avalon_jtag_uart_ioctl.o)
                              /data/workspace/ES/lab03/software/camera_app_bsp//libhal_bsp.a(altera_avalon_jtag_uart_fd.o) (altera_avalon_jtag_uart_ioctl)
/data/workspace/ES/lab03/software/camera_app_bsp//libhal_bsp.a(altera_avalon_jtag_uart_read.o)
                              /data/workspace/ES/lab03/software/camera_app_bsp//libhal_bsp.a(altera_avalon_jtag_uart_fd.o) (altera_avalon_jtag_uart_read)
/data/workspace/ES/lab03/software/camera_app_bsp//libhal_bsp.a(altera_avalon_jtag_uart_write.o)
                              /data/workspace/ES/lab03/software/camera_app_bsp//libhal_bsp.a(altera_avalon_jtag_uart_fd.o) (altera_avalon_jtag_uart_write)
/data/workspace/ES/lab03/software/camera_app_bsp//libhal_bsp.a(alt_alarm_start.o)
                              /data/workspace/ES/lab03/software/camera_app_bsp//libhal_bsp.a(altera_avalon_jtag_uart_init.o) (alt_alarm_start)
/data/workspace/ES/lab03/software/camera_app_bsp//libhal_bsp.a(alt_busy_sleep.o)
                              /data/workspace/ES/lab03/software/camera_app_bsp//libhal_bsp.a(alt_usleep.o) (alt_busy_sleep)
/data/workspace/ES/lab03/software/camera_app_bsp//libhal_bsp.a(alt_dcache_flush_all.o)
                              /data/workspace/ES/lab03/software/camera_app_bsp//libhal_bsp.a(alt_load.o) (alt_dcache_flush_all)
/data/workspace/ES/lab03/software/camera_app_bsp//libhal_bsp.a(alt_dev_llist_insert.o)
                              /data/workspace/ES/lab03/software/camera_app_bsp//libhal_bsp.a(alt_sys_init.o) (alt_dev_llist_insert)
/data/workspace/ES/lab03/software/camera_app_bsp//libhal_bsp.a(alt_do_ctors.o)
                              /data/workspace/ES/lab03/software/camera_app_bsp//libhal_bsp.a(alt_main.o) (_do_ctors)
/data/workspace/ES/lab03/software/camera_app_bsp//libhal_bsp.a(alt_do_dtors.o)
                              /data/workspace/ES/lab03/software/camera_app_bsp//libhal_bsp.a(alt_main.o) (_do_dtors)
/data/workspace/ES/lab03/software/camera_app_bsp//libhal_bsp.a(alt_icache_flush_all.o)
                              /data/workspace/ES/lab03/software/camera_app_bsp//libhal_bsp.a(alt_load.o) (alt_icache_flush_all)
/data/workspace/ES/lab03/software/camera_app_bsp//libhal_bsp.a(alt_iic.o)
                              /data/workspace/ES/lab03/software/camera_app_bsp//libhal_bsp.a(altera_avalon_jtag_uart_init.o) (alt_ic_isr_register)
/data/workspace/ES/lab03/software/camera_app_bsp//libhal_bsp.a(alt_iic_isr_register.o)
                              /data/workspace/ES/lab03/software/camera_app_bsp//libhal_bsp.a(alt_iic.o) (alt_iic_isr_register)
/data/workspace/ES/lab03/software/camera_app_bsp//libhal_bsp.a(alt_io_redirect.o)
                              /data/workspace/ES/lab03/software/camera_app_bsp//libhal_bsp.a(alt_main.o) (alt_io_redirect)
/data/workspace/ES/lab03/software/camera_app_bsp//libhal_bsp.a(alt_irq_entry.o)
                              /data/workspace/ES/lab03/software/camera_app_bsp//libhal_bsp.a(alt_iic_isr_register.o) (alt_irq_entry)
/data/workspace/ES/lab03/software/camera_app_bsp//libhal_bsp.a(alt_irq_handler.o)
                              /data/workspace/ES/lab03/software/camera_app_bsp//libhal_bsp.a(alt_iic_isr_register.o) (alt_irq)
/data/workspace/ES/lab03/software/camera_app_bsp//libhal_bsp.a(alt_irq_vars.o)
                              /data/workspace/ES/lab03/software/camera_app_bsp//libhal_bsp.a(alt_iic.o) (alt_irq_active)
/data/workspace/ES/lab03/software/camera_app_bsp//libhal_bsp.a(alt_open.o)
                              /data/workspace/ES/lab03/software/camera_app_bsp//libhal_bsp.a(alt_io_redirect.o) (open)
/data/workspace/ES/lab03/software/camera_app_bsp//libhal_bsp.a(alt_tick.o)
                              /data/workspace/ES/lab03/software/camera_app_bsp//libhal_bsp.a(altera_avalon_jtag_uart_init.o) (_alt_tick_rate)
/data/workspace/ES/lab03/software/camera_app_bsp//libhal_bsp.a(altera_nios2_qsys_irq.o)
                              /data/workspace/ES/lab03/software/camera_app_bsp//libhal_bsp.a(alt_sys_init.o) (altera_nios2_qsys_irq_init)
/data/workspace/ES/lab03/software/camera_app_bsp//libhal_bsp.a(alt_exception_entry.o)
                              /data/workspace/ES/lab03/software/camera_app_bsp//libhal_bsp.a(alt_irq_entry.o) (alt_exception)
/data/workspace/ES/lab03/software/camera_app_bsp//libhal_bsp.a(alt_find_dev.o)
                              /data/workspace/ES/lab03/software/camera_app_bsp//libhal_bsp.a(alt_open.o) (alt_find_dev)
/data/workspace/ES/lab03/software/camera_app_bsp//libhal_bsp.a(alt_find_file.o)
                              /data/workspace/ES/lab03/software/camera_app_bsp//libhal_bsp.a(alt_open.o) (alt_find_file)
/data/workspace/ES/lab03/software/camera_app_bsp//libhal_bsp.a(alt_get_fd.o)
                              /data/workspace/ES/lab03/software/camera_app_bsp//libhal_bsp.a(alt_open.o) (alt_get_fd)
/data/workspace/ES/lab03/software/camera_app_bsp//libhal_bsp.a(alt_icache_flush.o)
                              /data/workspace/ES/lab03/software/camera_app_bsp//libhal_bsp.a(alt_icache_flush_all.o) (alt_icache_flush)
/home/hadrien/altera/15.0/nios2eds/bin/gnu/H-x86_64-pc-linux-gnu/bin/../lib/gcc/nios2-elf/4.9.1/../../../../../H-x86_64-pc-linux-gnu/nios2-elf/lib/libc.a(lib_a-atexit.o)
                              /data/workspace/ES/lab03/software/camera_app_bsp//libhal_bsp.a(alt_main.o) (atexit)
/home/hadrien/altera/15.0/nios2eds/bin/gnu/H-x86_64-pc-linux-gnu/bin/../lib/gcc/nios2-elf/4.9.1/../../../../../H-x86_64-pc-linux-gnu/nios2-elf/lib/libc.a(lib_a-exit.o)
                              /data/workspace/ES/lab03/software/camera_app_bsp//libhal_bsp.a(alt_main.o) (exit)
/home/hadrien/altera/15.0/nios2eds/bin/gnu/H-x86_64-pc-linux-gnu/bin/../lib/gcc/nios2-elf/4.9.1/../../../../../H-x86_64-pc-linux-gnu/nios2-elf/lib/libc.a(lib_a-memcmp.o)
                              /data/workspace/ES/lab03/software/camera_app_bsp//libhal_bsp.a(alt_find_dev.o) (memcmp)
/home/hadrien/altera/15.0/nios2eds/bin/gnu/H-x86_64-pc-linux-gnu/bin/../lib/gcc/nios2-elf/4.9.1/../../../../../H-x86_64-pc-linux-gnu/nios2-elf/lib/libc.a(lib_a-__atexit.o)
                              /home/hadrien/altera/15.0/nios2eds/bin/gnu/H-x86_64-pc-linux-gnu/bin/../lib/gcc/nios2-elf/4.9.1/../../../../../H-x86_64-pc-linux-gnu/nios2-elf/lib/libc.a(lib_a-atexit.o) (__register_exitproc)
/home/hadrien/altera/15.0/nios2eds/bin/gnu/H-x86_64-pc-linux-gnu/bin/../lib/gcc/nios2-elf/4.9.1/../../../../../H-x86_64-pc-linux-gnu/nios2-elf/lib/libc.a(lib_a-__call_atexit.o)
                              /home/hadrien/altera/15.0/nios2eds/bin/gnu/H-x86_64-pc-linux-gnu/bin/../lib/gcc/nios2-elf/4.9.1/../../../../../H-x86_64-pc-linux-gnu/nios2-elf/lib/libc.a(lib_a-exit.o) (__call_exitprocs)
/data/workspace/ES/lab03/software/camera_app_bsp//libhal_bsp.a(alt_exit.o)
                              /home/hadrien/altera/15.0/nios2eds/bin/gnu/H-x86_64-pc-linux-gnu/bin/../lib/gcc/nios2-elf/4.9.1/../../../../../H-x86_64-pc-linux-gnu/nios2-elf/lib/libc.a(lib_a-exit.o) (_exit)

Allocating common symbols
Common symbol       size              file

alt_irq             0x100             /data/workspace/ES/lab03/software/camera_app_bsp//libhal_bsp.a(alt_irq_handler.o)
errno               0x4               /home/hadrien/altera/15.0/nios2eds/bin/gnu/H-x86_64-pc-linux-gnu/bin/../lib/gcc/nios2-elf/4.9.1/../../../../../H-x86_64-pc-linux-gnu/nios2-elf/lib/libc.a(lib_a-int_errno.o)

Memory Configuration

Name             Origin             Length             Attributes
reset            0x0000000000000000 0x0000000000000020
sdram            0x0000000000000020 0x0000000001ffffe0
*default*        0x0000000000000000 0xffffffffffffffff

Linker script and memory map

LOAD /data/workspace/ES/lab03/software/camera_app_bsp//obj/HAL/src/crt0.o
LOAD obj/default/hello_world.o
LOAD obj/default/i2c/i2c.o
LOAD /home/hadrien/altera/15.0/nios2eds/bin/gnu/H-x86_64-pc-linux-gnu/bin/../lib/gcc/nios2-elf/4.9.1/../../../../../H-x86_64-pc-linux-gnu/nios2-elf/lib/libstdc++.a
LOAD /home/hadrien/altera/15.0/nios2eds/bin/gnu/H-x86_64-pc-linux-gnu/bin/../lib/gcc/nios2-elf/4.9.1/../../../../../H-x86_64-pc-linux-gnu/nios2-elf/lib/libm.a
LOAD /home/hadrien/altera/15.0/nios2eds/bin/gnu/H-x86_64-pc-linux-gnu/bin/../lib/gcc/nios2-elf/4.9.1/libgcc.a
START GROUP
LOAD /home/hadrien/altera/15.0/nios2eds/bin/gnu/H-x86_64-pc-linux-gnu/bin/../lib/gcc/nios2-elf/4.9.1/../../../../../H-x86_64-pc-linux-gnu/nios2-elf/lib/libc.a
LOAD /home/hadrien/altera/15.0/nios2eds/bin/gnu/H-x86_64-pc-linux-gnu/bin/../lib/gcc/nios2-elf/4.9.1/libgcc.a
LOAD /data/workspace/ES/lab03/software/camera_app_bsp//libhal_bsp.a
LOAD /home/hadrien/altera/15.0/nios2eds/bin/gnu/H-x86_64-pc-linux-gnu/bin/../lib/gcc/nios2-elf/4.9.1/../../../../../H-x86_64-pc-linux-gnu/nios2-elf/lib/libm.a
END GROUP
LOAD /home/hadrien/altera/15.0/nios2eds/bin/gnu/H-x86_64-pc-linux-gnu/bin/../lib/gcc/nios2-elf/4.9.1/libgcc.a
                0x0000000000000000                __alt_mem_sdram = 0x0

.entry          0x0000000000000000       0x20
 *(.entry)
 .entry         0x0000000000000000       0x20 /data/workspace/ES/lab03/software/camera_app_bsp//obj/HAL/src/crt0.o
                0x0000000000000000                __reset

.exceptions     0x0000000000000020      0x19c
                0x0000000000000020                PROVIDE (__ram_exceptions_start, ABSOLUTE (.))
                0x0000000000000020                . = ALIGN (0x20)
 *(.irq)
 *(.exceptions.entry.label)
 .exceptions.entry.label
                0x0000000000000020        0x0 /data/workspace/ES/lab03/software/camera_app_bsp//libhal_bsp.a(alt_irq_entry.o)
                0x0000000000000020                alt_irq_entry
 .exceptions.entry.label
                0x0000000000000020        0x0 /data/workspace/ES/lab03/software/camera_app_bsp//libhal_bsp.a(alt_exception_entry.o)
                0x0000000000000020                alt_exception
 *(.exceptions.entry.user)
 *(.exceptions.entry.ecc_fatal)
 *(.exceptions.entry)
 .exceptions.entry
                0x0000000000000020       0x54 /data/workspace/ES/lab03/software/camera_app_bsp//libhal_bsp.a(alt_exception_entry.o)
 *(.exceptions.irqtest.user)
 *(.exceptions.irqtest)
 .exceptions.irqtest
                0x0000000000000074       0x10 /data/workspace/ES/lab03/software/camera_app_bsp//libhal_bsp.a(alt_irq_entry.o)
 *(.exceptions.irqhandler.user)
 *(.exceptions.irqhandler)
 .exceptions.irqhandler
                0x0000000000000084        0x4 /data/workspace/ES/lab03/software/camera_app_bsp//libhal_bsp.a(alt_irq_entry.o)
 *(.exceptions.irqreturn.user)
 *(.exceptions.irqreturn)
 .exceptions.irqreturn
                0x0000000000000088        0x4 /data/workspace/ES/lab03/software/camera_app_bsp//libhal_bsp.a(alt_irq_entry.o)
 *(.exceptions.notirq.label)
 .exceptions.notirq.label
                0x000000000000008c        0x0 /data/workspace/ES/lab03/software/camera_app_bsp//libhal_bsp.a(alt_irq_entry.o)
 *(.exceptions.notirq.user)
 *(.exceptions.notirq)
 .exceptions.notirq
                0x000000000000008c        0x8 /data/workspace/ES/lab03/software/camera_app_bsp//libhal_bsp.a(alt_exception_entry.o)
 *(.exceptions.soft.user)
 *(.exceptions.soft)
 *(.exceptions.unknown.user)
 *(.exceptions.unknown)
 .exceptions.unknown
                0x0000000000000094        0x4 /data/workspace/ES/lab03/software/camera_app_bsp//libhal_bsp.a(alt_exception_entry.o)
 *(.exceptions.exit.label)
 .exceptions.exit.label
                0x0000000000000098        0x0 /data/workspace/ES/lab03/software/camera_app_bsp//libhal_bsp.a(alt_irq_entry.o)
 .exceptions.exit.label
                0x0000000000000098        0x0 /data/workspace/ES/lab03/software/camera_app_bsp//libhal_bsp.a(alt_exception_entry.o)
 *(.exceptions.exit.user)
 *(.exceptions.exit)
 .exceptions.exit
                0x0000000000000098       0x54 /data/workspace/ES/lab03/software/camera_app_bsp//libhal_bsp.a(alt_exception_entry.o)
 *(.exceptions)
 .exceptions    0x00000000000000ec       0xd0 /data/workspace/ES/lab03/software/camera_app_bsp//libhal_bsp.a(alt_irq_handler.o)
                0x00000000000000ec                alt_irq_handler
                0x00000000000001bc                PROVIDE (__ram_exceptions_end, ABSOLUTE (.))
                0x0000000000000020                PROVIDE (__flash_exceptions_start, LOADADDR (.exceptions))

.text           0x00000000000001bc     0xfc30
                0x00000000000001bc                PROVIDE (stext, ABSOLUTE (.))
 *(.interp)
 *(.hash)
 *(.dynsym)
 *(.dynstr)
 *(.gnu.version)
 *(.gnu.version_d)
 *(.gnu.version_r)
 *(.rel.init)
 *(.rela.init)
 *(.rel.text .rel.text.* .rel.gnu.linkonce.t.*)
 *(.rela.text .rela.text.* .rela.gnu.linkonce.t.*)
 *(.rel.fini)
 *(.rela.fini)
 *(.rel.rodata .rel.rodata.* .rel.gnu.linkonce.r.*)
 *(.rela.rodata .rela.rodata.* .rela.gnu.linkonce.r.*)
 *(.rel.data .rel.data.* .rel.gnu.linkonce.d.*)
 *(.rela.data .rela.data.* .rela.gnu.linkonce.d.*)
 *(.rel.tdata .rel.tdata.* .rel.gnu.linkonce.td.*)
 *(.rela.tdata .rela.tdata.* .rela.gnu.linkonce.td.*)
 *(.rel.tbss .rel.tbss.* .rel.gnu.linkonce.tb.*)
 *(.rela.tbss .rela.tbss.* .rela.gnu.linkonce.tb.*)
 *(.rel.ctors)
 *(.rela.ctors)
 *(.rel.dtors)
 *(.rela.dtors)
 *(.rel.got)
 *(.rela.got)
 *(.rel.sdata .rel.sdata.* .rel.gnu.linkonce.s.*)
 *(.rela.sdata .rela.sdata.* .rela.gnu.linkonce.s.*)
 *(.rel.sbss .rel.sbss.* .rel.gnu.linkonce.sb.*)
 *(.rela.sbss .rela.sbss.* .rela.gnu.linkonce.sb.*)
 *(.rel.sdata2 .rel.sdata2.* .rel.gnu.linkonce.s2.*)
 *(.rela.sdata2 .rela.sdata2.* .rela.gnu.linkonce.s2.*)
 *(.rel.sbss2 .rel.sbss2.* .rel.gnu.linkonce.sb2.*)
 *(.rela.sbss2 .rela.sbss2.* .rela.gnu.linkonce.sb2.*)
 *(.rel.bss .rel.bss.* .rel.gnu.linkonce.b.*)
 *(.rela.bss .rela.bss.* .rela.gnu.linkonce.b.*)
 *(.rel.plt)
 *(.rela.plt)
 *(.rel.dyn)
 *(.init)
 *(.plt)
 *(.text .stub .text.* .gnu.linkonce.t.*)
 .text          0x00000000000001bc       0x3c /data/workspace/ES/lab03/software/camera_app_bsp//obj/HAL/src/crt0.o
                0x00000000000001bc                _start
 .text          0x00000000000001f8      0x6f8 obj/default/hello_world.o
                0x00000000000001f8                cam_get_preset
                0x0000000000000250                printPreset
                0x0000000000000288                sleep_ms
                0x00000000000002ec                dump_word
                0x0000000000000334                dump_pcm_header
                0x000000000000038c                dump_pcm_data
                0x00000000000004cc                trdb_d5m_write
                0x0000000000000550                trdb_d5m_read
                0x00000000000005ec                main
 .text          0x00000000000008f0      0x7f8 obj/default/i2c/i2c.o
                0x0000000000000a30                i2c_inst
                0x0000000000000a5c                i2c_init
                0x0000000000000abc                i2c_configure
                0x0000000000000b38                i2c_write
                0x0000000000000c64                i2c_read
                0x0000000000000dac                i2c_write_array
                0x0000000000000f40                i2c_read_array
 .text          0x00000000000010e8      0x12c /home/hadrien/altera/15.0/nios2eds/bin/gnu/H-x86_64-pc-linux-gnu/bin/../lib/gcc/nios2-elf/4.9.1/libgcc.a(lib2-divmod.o)
                0x0000000000001154                __divsi3
                0x00000000000011a8                __modsi3
                0x0000000000001204                __udivsi3
                0x000000000000120c                __umodsi3
 .text          0x0000000000001214       0x1c /home/hadrien/altera/15.0/nios2eds/bin/gnu/H-x86_64-pc-linux-gnu/bin/../lib/gcc/nios2-elf/4.9.1/../../../../../H-x86_64-pc-linux-gnu/nios2-elf/lib/libc.a(lib_a-calloc.o)
                0x0000000000001214                calloc
 .text          0x0000000000001230       0xc4 /home/hadrien/altera/15.0/nios2eds/bin/gnu/H-x86_64-pc-linux-gnu/bin/../lib/gcc/nios2-elf/4.9.1/../../../../../H-x86_64-pc-linux-gnu/nios2-elf/lib/libc.a(lib_a-callocr.o)
                0x0000000000001230                _calloc_r
 .text          0x00000000000012f4        0x0 /home/hadrien/altera/15.0/nios2eds/bin/gnu/H-x86_64-pc-linux-gnu/bin/../lib/gcc/nios2-elf/4.9.1/../../../../../H-x86_64-pc-linux-gnu/nios2-elf/lib/libc.a(lib_a-impure.o)
 .text          0x00000000000012f4      0x7a8 /home/hadrien/altera/15.0/nios2eds/bin/gnu/H-x86_64-pc-linux-gnu/bin/../lib/gcc/nios2-elf/4.9.1/../../../../../H-x86_64-pc-linux-gnu/nios2-elf/lib/libc.a(lib_a-mallocr.o)
                0x00000000000012f4                _malloc_r
 .text          0x0000000000001a9c      0x124 /home/hadrien/altera/15.0/nios2eds/bin/gnu/H-x86_64-pc-linux-gnu/bin/../lib/gcc/nios2-elf/4.9.1/../../../../../H-x86_64-pc-linux-gnu/nios2-elf/lib/libc.a(lib_a-memset.o)
                0x0000000000001a9c                memset
 .text          0x0000000000001bc0       0x68 /home/hadrien/altera/15.0/nios2eds/bin/gnu/H-x86_64-pc-linux-gnu/bin/../lib/gcc/nios2-elf/4.9.1/../../../../../H-x86_64-pc-linux-gnu/nios2-elf/lib/libc.a(lib_a-printf.o)
                0x0000000000001bc0                _printf_r
                0x0000000000001bec                printf
 .text          0x0000000000001c28      0x168 /home/hadrien/altera/15.0/nios2eds/bin/gnu/H-x86_64-pc-linux-gnu/bin/../lib/gcc/nios2-elf/4.9.1/../../../../../H-x86_64-pc-linux-gnu/nios2-elf/lib/libc.a(lib_a-putc.o)
                0x0000000000001c28                _putc_r
                0x0000000000001cc8                putc
 .text          0x0000000000001d90       0xcc /home/hadrien/altera/15.0/nios2eds/bin/gnu/H-x86_64-pc-linux-gnu/bin/../lib/gcc/nios2-elf/4.9.1/../../../../../H-x86_64-pc-linux-gnu/nios2-elf/lib/libc.a(lib_a-puts.o)
                0x0000000000001d90                _puts_r
                0x0000000000001e48                puts
 .text          0x0000000000001e5c       0x54 /home/hadrien/altera/15.0/nios2eds/bin/gnu/H-x86_64-pc-linux-gnu/bin/../lib/gcc/nios2-elf/4.9.1/../../../../../H-x86_64-pc-linux-gnu/nios2-elf/lib/libc.a(lib_a-sbrkr.o)
                0x0000000000001e5c                _sbrk_r
 .text          0x0000000000001eb0       0x98 /home/hadrien/altera/15.0/nios2eds/bin/gnu/H-x86_64-pc-linux-gnu/bin/../lib/gcc/nios2-elf/4.9.1/../../../../../H-x86_64-pc-linux-gnu/nios2-elf/lib/libc.a(lib_a-strlen.o)
                0x0000000000001eb0                strlen
 .text          0x0000000000001f48     0x2020 /home/hadrien/altera/15.0/nios2eds/bin/gnu/H-x86_64-pc-linux-gnu/bin/../lib/gcc/nios2-elf/4.9.1/../../../../../H-x86_64-pc-linux-gnu/nios2-elf/lib/libc.a(lib_a-vfprintf.o)
                0x0000000000001f48                ___vfprintf_internal_r
                0x0000000000003f44                __vfprintf_internal
 .text          0x0000000000003f68      0x170 /home/hadrien/altera/15.0/nios2eds/bin/gnu/H-x86_64-pc-linux-gnu/bin/../lib/gcc/nios2-elf/4.9.1/../../../../../H-x86_64-pc-linux-gnu/nios2-elf/lib/libc.a(lib_a-wbuf.o)
                0x0000000000003f68                __swbuf_r
                0x00000000000040bc                __swbuf
 .text          0x00000000000040d8      0x130 /home/hadrien/altera/15.0/nios2eds/bin/gnu/H-x86_64-pc-linux-gnu/bin/../lib/gcc/nios2-elf/4.9.1/../../../../../H-x86_64-pc-linux-gnu/nios2-elf/lib/libc.a(lib_a-wsetup.o)
                0x00000000000040d8                __swsetup_r
 .text          0x0000000000004208     0x1928 /home/hadrien/altera/15.0/nios2eds/bin/gnu/H-x86_64-pc-linux-gnu/bin/../lib/gcc/nios2-elf/4.9.1/../../../../../H-x86_64-pc-linux-gnu/nios2-elf/lib/libc.a(lib_a-dtoa.o)
                0x0000000000004408                _dtoa_r
 .text          0x0000000000005b30      0x258 /home/hadrien/altera/15.0/nios2eds/bin/gnu/H-x86_64-pc-linux-gnu/bin/../lib/gcc/nios2-elf/4.9.1/../../../../../H-x86_64-pc-linux-gnu/nios2-elf/lib/libc.a(lib_a-fflush.o)
                0x0000000000005b30                _fflush_r
                0x0000000000005d58                fflush
 .text          0x0000000000005d88      0x3a0 /home/hadrien/altera/15.0/nios2eds/bin/gnu/H-x86_64-pc-linux-gnu/bin/../lib/gcc/nios2-elf/4.9.1/../../../../../H-x86_64-pc-linux-gnu/nios2-elf/lib/libc.a(lib_a-findfp.o)
                0x0000000000005d98                _cleanup_r
                0x0000000000005f44                __sfmoreglue
                0x0000000000005fa8                __sfp
                0x00000000000060c0                _cleanup
                0x00000000000060d8                __sinit
                0x00000000000060e8                __sfp_lock_acquire
                0x00000000000060ec                __sfp_lock_release
                0x00000000000060f0                __sinit_lock_acquire
                0x00000000000060f4                __sinit_lock_release
                0x00000000000060f8                __fp_lock_all
                0x0000000000006110                __fp_unlock_all
 .text          0x0000000000006128      0x414 /home/hadrien/altera/15.0/nios2eds/bin/gnu/H-x86_64-pc-linux-gnu/bin/../lib/gcc/nios2-elf/4.9.1/../../../../../H-x86_64-pc-linux-gnu/nios2-elf/lib/libc.a(lib_a-freer.o)
                0x0000000000006128                _malloc_trim_r
                0x000000000000624c                _free_r
 .text          0x000000000000653c      0x4a4 /home/hadrien/altera/15.0/nios2eds/bin/gnu/H-x86_64-pc-linux-gnu/bin/../lib/gcc/nios2-elf/4.9.1/../../../../../H-x86_64-pc-linux-gnu/nios2-elf/lib/libc.a(lib_a-fvwrite.o)
                0x000000000000653c                __sfvwrite_r
 .text          0x00000000000069e0      0x170 /home/hadrien/altera/15.0/nios2eds/bin/gnu/H-x86_64-pc-linux-gnu/bin/../lib/gcc/nios2-elf/4.9.1/../../../../../H-x86_64-pc-linux-gnu/nios2-elf/lib/libc.a(lib_a-fwalk.o)
                0x00000000000069e0                _fwalk
                0x0000000000006a98                _fwalk_reent
 .text          0x0000000000006b50        0x0 /home/hadrien/altera/15.0/nios2eds/bin/gnu/H-x86_64-pc-linux-gnu/bin/../lib/gcc/nios2-elf/4.9.1/../../../../../H-x86_64-pc-linux-gnu/nios2-elf/lib/libc.a(lib_a-int_errno.o)
 .text          0x0000000000006b50       0xe0 /home/hadrien/altera/15.0/nios2eds/bin/gnu/H-x86_64-pc-linux-gnu/bin/../lib/gcc/nios2-elf/4.9.1/../../../../../H-x86_64-pc-linux-gnu/nios2-elf/lib/libc.a(lib_a-locale.o)
                0x0000000000006b50                _setlocale_r
                0x0000000000006bcc                __locale_charset
                0x0000000000006bd8                __locale_mb_cur_max
                0x0000000000006be8                __locale_msgcharset
                0x0000000000006bf4                __locale_cjk_lang
                0x0000000000006bfc                _localeconv_r
                0x0000000000006c08                setlocale
                0x0000000000006c24                localeconv
 .text          0x0000000000006c30      0x1b8 /home/hadrien/altera/15.0/nios2eds/bin/gnu/H-x86_64-pc-linux-gnu/bin/../lib/gcc/nios2-elf/4.9.1/../../../../../H-x86_64-pc-linux-gnu/nios2-elf/lib/libc.a(lib_a-makebuf.o)
                0x0000000000006c30                __smakebuf_r
 .text          0x0000000000006de8       0xe8 /home/hadrien/altera/15.0/nios2eds/bin/gnu/H-x86_64-pc-linux-gnu/bin/../lib/gcc/nios2-elf/4.9.1/../../../../../H-x86_64-pc-linux-gnu/nios2-elf/lib/libc.a(lib_a-memchr.o)
                0x0000000000006de8                memchr
 .text          0x0000000000006ed0      0x138 /home/hadrien/altera/15.0/nios2eds/bin/gnu/H-x86_64-pc-linux-gnu/bin/../lib/gcc/nios2-elf/4.9.1/../../../../../H-x86_64-pc-linux-gnu/nios2-elf/lib/libc.a(lib_a-memcpy.o)
                0x0000000000006ed0                memcpy
 .text          0x0000000000007008      0x15c /home/hadrien/altera/15.0/nios2eds/bin/gnu/H-x86_64-pc-linux-gnu/bin/../lib/gcc/nios2-elf/4.9.1/../../../../../H-x86_64-pc-linux-gnu/nios2-elf/lib/libc.a(lib_a-memmove.o)
                0x0000000000007008                memmove
 .text          0x0000000000007164      0xf8c /home/hadrien/altera/15.0/nios2eds/bin/gnu/H-x86_64-pc-linux-gnu/bin/../lib/gcc/nios2-elf/4.9.1/../../../../../H-x86_64-pc-linux-gnu/nios2-elf/lib/libc.a(lib_a-mprec.o)
                0x0000000000007164                _Balloc
                0x000000000000720c                _Bfree
                0x0000000000007234                __multadd
                0x0000000000007348                __s2b
                0x000000000000744c                __hi0bits
                0x00000000000074b4                __lo0bits
                0x0000000000007564                __i2b
                0x00000000000075a0                __multiply
                0x000000000000779c                __pow5mult
                0x00000000000078dc                __lshift
                0x0000000000007a24                __mcmp
                0x0000000000007a84                __mdiff
                0x0000000000007c1c                __ulp
                0x0000000000007c7c                __b2d
                0x0000000000007d98                __d2b
                0x0000000000007ed4                __ratio
                0x0000000000007f78                _mprec_log10
                0x0000000000007fec                __copybits
                0x0000000000008064                __any_on
 .text          0x00000000000080f0      0x5a0 /home/hadrien/altera/15.0/nios2eds/bin/gnu/H-x86_64-pc-linux-gnu/bin/../lib/gcc/nios2-elf/4.9.1/../../../../../H-x86_64-pc-linux-gnu/nios2-elf/lib/libc.a(lib_a-reallocr.o)
                0x00000000000080f0                _realloc_r
 .text          0x0000000000008690       0x74 /home/hadrien/altera/15.0/nios2eds/bin/gnu/H-x86_64-pc-linux-gnu/bin/../lib/gcc/nios2-elf/4.9.1/../../../../../H-x86_64-pc-linux-gnu/nios2-elf/lib/libc.a(lib_a-s_fpclassify.o)
                0x0000000000008690                __fpclassifyd
 .text          0x0000000000008704      0x13c /home/hadrien/altera/15.0/nios2eds/bin/gnu/H-x86_64-pc-linux-gnu/bin/../lib/gcc/nios2-elf/4.9.1/../../../../../H-x86_64-pc-linux-gnu/nios2-elf/lib/libc.a(lib_a-stdio.o)
                0x0000000000008704                __sread
                0x0000000000008758                __seofread
                0x0000000000008760                __swrite
                0x00000000000087dc                __sseek
                0x0000000000008838                __sclose
 .text          0x0000000000008840       0xa4 /home/hadrien/altera/15.0/nios2eds/bin/gnu/H-x86_64-pc-linux-gnu/bin/../lib/gcc/nios2-elf/4.9.1/../../../../../H-x86_64-pc-linux-gnu/nios2-elf/lib/libc.a(lib_a-strcmp.o)
                0x0000000000008840                strcmp
 .text          0x00000000000088e4     0x1494 /home/hadrien/altera/15.0/nios2eds/bin/gnu/H-x86_64-pc-linux-gnu/bin/../lib/gcc/nios2-elf/4.9.1/../../../../../H-x86_64-pc-linux-gnu/nios2-elf/lib/libc.a(lib_a-vfiprintf.o)
                0x00000000000089e0                __sprint_r
                0x00000000000089f8                ___vfiprintf_internal_r
                0x0000000000009d54                __vfiprintf_internal
 .text          0x0000000000009d78       0x5c /home/hadrien/altera/15.0/nios2eds/bin/gnu/H-x86_64-pc-linux-gnu/bin/../lib/gcc/nios2-elf/4.9.1/../../../../../H-x86_64-pc-linux-gnu/nios2-elf/lib/libc.a(lib_a-writer.o)
                0x0000000000009d78                _write_r
 .text          0x0000000000009dd4       0x54 /home/hadrien/altera/15.0/nios2eds/bin/gnu/H-x86_64-pc-linux-gnu/bin/../lib/gcc/nios2-elf/4.9.1/../../../../../H-x86_64-pc-linux-gnu/nios2-elf/lib/libc.a(closer.o)
                0x0000000000009dd4                _close_r
 .text          0x0000000000009e28      0x114 /home/hadrien/altera/15.0/nios2eds/bin/gnu/H-x86_64-pc-linux-gnu/bin/../lib/gcc/nios2-elf/4.9.1/../../../../../H-x86_64-pc-linux-gnu/nios2-elf/lib/libc.a(lib_a-fclose.o)
                0x0000000000009e28                _fclose_r
                0x0000000000009f28                fclose
 .text          0x0000000000009f3c      0x1dc /home/hadrien/altera/15.0/nios2eds/bin/gnu/H-x86_64-pc-linux-gnu/bin/../lib/gcc/nios2-elf/4.9.1/../../../../../H-x86_64-pc-linux-gnu/nios2-elf/lib/libc.a(lib_a-fputwc.o)
                0x0000000000009f3c                _fputwc_r
                0x000000000000a0c0                fputwc
 .text          0x000000000000a118       0x58 /home/hadrien/altera/15.0/nios2eds/bin/gnu/H-x86_64-pc-linux-gnu/bin/../lib/gcc/nios2-elf/4.9.1/../../../../../H-x86_64-pc-linux-gnu/nios2-elf/lib/libc.a(lib_a-fstatr.o)
                0x000000000000a118                _fstat_r
 .text          0x000000000000a170       0x54 /home/hadrien/altera/15.0/nios2eds/bin/gnu/H-x86_64-pc-linux-gnu/bin/../lib/gcc/nios2-elf/4.9.1/../../../../../H-x86_64-pc-linux-gnu/nios2-elf/lib/libc.a(lib_a-isattyr.o)
                0x000000000000a170                _isatty_r
 .text          0x000000000000a1c4       0x5c /home/hadrien/altera/15.0/nios2eds/bin/gnu/H-x86_64-pc-linux-gnu/bin/../lib/gcc/nios2-elf/4.9.1/../../../../../H-x86_64-pc-linux-gnu/nios2-elf/lib/libc.a(lib_a-lseekr.o)
                0x000000000000a1c4                _lseek_r
 .text          0x000000000000a220       0x5c /home/hadrien/altera/15.0/nios2eds/bin/gnu/H-x86_64-pc-linux-gnu/bin/../lib/gcc/nios2-elf/4.9.1/../../../../../H-x86_64-pc-linux-gnu/nios2-elf/lib/libc.a(lib_a-readr.o)
                0x000000000000a220                _read_r
 .text          0x000000000000a27c      0x174 /home/hadrien/altera/15.0/nios2eds/bin/gnu/H-x86_64-pc-linux-gnu/bin/../lib/gcc/nios2-elf/4.9.1/../../../../../H-x86_64-pc-linux-gnu/nios2-elf/lib/libc.a(lib_a-wcrtomb.o)
                0x000000000000a27c                _wcrtomb_r
                0x000000000000a318                wcrtomb
 .text          0x000000000000a3f0       0x8c /home/hadrien/altera/15.0/nios2eds/bin/gnu/H-x86_64-pc-linux-gnu/bin/../lib/gcc/nios2-elf/4.9.1/../../../../../H-x86_64-pc-linux-gnu/nios2-elf/lib/libc.a(lib_a-wctomb_r.o)
                0x000000000000a3f0                __ascii_wctomb
                0x000000000000a420                _wctomb_r
 .text          0x000000000000a47c      0x5c0 /home/hadrien/altera/15.0/nios2eds/bin/gnu/H-x86_64-pc-linux-gnu/bin/../lib/gcc/nios2-elf/4.9.1/libgcc.a(_udivdi3.o)
                0x000000000000a47c                __udivdi3
 .text          0x000000000000aa3c      0x590 /home/hadrien/altera/15.0/nios2eds/bin/gnu/H-x86_64-pc-linux-gnu/bin/../lib/gcc/nios2-elf/4.9.1/libgcc.a(_umoddi3.o)
                0x000000000000aa3c                __umoddi3
 .text          0x000000000000afcc      0x89c /home/hadrien/altera/15.0/nios2eds/bin/gnu/H-x86_64-pc-linux-gnu/bin/../lib/gcc/nios2-elf/4.9.1/libgcc.a(adddf3.o)
                0x000000000000afcc                __adddf3
 .text          0x000000000000b868      0x8cc /home/hadrien/altera/15.0/nios2eds/bin/gnu/H-x86_64-pc-linux-gnu/bin/../lib/gcc/nios2-elf/4.9.1/libgcc.a(divdf3.o)
                0x000000000000b868                __divdf3
 .text          0x000000000000c134       0x84 /home/hadrien/altera/15.0/nios2eds/bin/gnu/H-x86_64-pc-linux-gnu/bin/../lib/gcc/nios2-elf/4.9.1/libgcc.a(eqdf2.o)
                0x000000000000c134                __eqdf2
                0x000000000000c134                __nedf2
 .text          0x000000000000c1b8       0xe0 /home/hadrien/altera/15.0/nios2eds/bin/gnu/H-x86_64-pc-linux-gnu/bin/../lib/gcc/nios2-elf/4.9.1/libgcc.a(gedf2.o)
                0x000000000000c1b8                __gtdf2
                0x000000000000c1b8                __gedf2
 .text          0x000000000000c298       0xe0 /home/hadrien/altera/15.0/nios2eds/bin/gnu/H-x86_64-pc-linux-gnu/bin/../lib/gcc/nios2-elf/4.9.1/libgcc.a(ledf2.o)
                0x000000000000c298                __ltdf2
                0x000000000000c298                __ledf2
 .text          0x000000000000c378      0x724 /home/hadrien/altera/15.0/nios2eds/bin/gnu/H-x86_64-pc-linux-gnu/bin/../lib/gcc/nios2-elf/4.9.1/libgcc.a(muldf3.o)
                0x000000000000c378                __muldf3
 .text          0x000000000000ca9c      0x8d0 /home/hadrien/altera/15.0/nios2eds/bin/gnu/H-x86_64-pc-linux-gnu/bin/../lib/gcc/nios2-elf/4.9.1/libgcc.a(subdf3.o)
                0x000000000000ca9c                __subdf3
 .text          0x000000000000d36c       0x88 /home/hadrien/altera/15.0/nios2eds/bin/gnu/H-x86_64-pc-linux-gnu/bin/../lib/gcc/nios2-elf/4.9.1/libgcc.a(fixdfsi.o)
                0x000000000000d36c                __fixdfsi
 .text          0x000000000000d3f4       0xd0 /home/hadrien/altera/15.0/nios2eds/bin/gnu/H-x86_64-pc-linux-gnu/bin/../lib/gcc/nios2-elf/4.9.1/libgcc.a(floatsidf.o)
                0x000000000000d3f4                __floatsidf
 .text          0x000000000000d4c4       0xa4 /home/hadrien/altera/15.0/nios2eds/bin/gnu/H-x86_64-pc-linux-gnu/bin/../lib/gcc/nios2-elf/4.9.1/libgcc.a(floatunsidf.o)
                0x000000000000d4c4                __floatunsidf
 .text          0x000000000000d568        0x0 /home/hadrien/altera/15.0/nios2eds/bin/gnu/H-x86_64-pc-linux-gnu/bin/../lib/gcc/nios2-elf/4.9.1/libgcc.a(_clz.o)
 .text          0x000000000000d568       0x64 /home/hadrien/altera/15.0/nios2eds/bin/gnu/H-x86_64-pc-linux-gnu/bin/../lib/gcc/nios2-elf/4.9.1/libgcc.a(_clzsi2.o)
                0x000000000000d568                __clzsi2
 .text          0x000000000000d5cc      0x120 /data/workspace/ES/lab03/software/camera_app_bsp//libhal_bsp.a(alt_close.o)
                0x000000000000d61c                close
 .text          0x000000000000d6ec       0x2c /data/workspace/ES/lab03/software/camera_app_bsp//libhal_bsp.a(alt_dev.o)
 .text          0x000000000000d718        0x0 /data/workspace/ES/lab03/software/camera_app_bsp//libhal_bsp.a(alt_errno.o)
 .text          0x000000000000d718      0x100 /data/workspace/ES/lab03/software/camera_app_bsp//libhal_bsp.a(alt_fstat.o)
                0x000000000000d768                fstat
 .text          0x000000000000d818       0xf4 /data/workspace/ES/lab03/software/camera_app_bsp//libhal_bsp.a(alt_isatty.o)
                0x000000000000d868                isatty
 .text          0x000000000000d90c       0xe4 /data/workspace/ES/lab03/software/camera_app_bsp//libhal_bsp.a(alt_load.o)
                0x000000000000d970                alt_load
 .text          0x000000000000d9f0      0x124 /data/workspace/ES/lab03/software/camera_app_bsp//libhal_bsp.a(alt_lseek.o)
                0x000000000000da40                lseek
 .text          0x000000000000db14       0x78 /data/workspace/ES/lab03/software/camera_app_bsp//libhal_bsp.a(alt_main.o)
                0x000000000000db14                alt_main
 .text          0x000000000000db8c       0x40 /data/workspace/ES/lab03/software/camera_app_bsp//libhal_bsp.a(alt_malloc_lock.o)
                0x000000000000db8c                __malloc_lock
                0x000000000000dbac                __malloc_unlock
 .text          0x000000000000dbcc      0x14c /data/workspace/ES/lab03/software/camera_app_bsp//libhal_bsp.a(alt_read.o)
                0x000000000000dc1c                read
 .text          0x000000000000dd18       0x60 /data/workspace/ES/lab03/software/camera_app_bsp//libhal_bsp.a(alt_release_fd.o)
                0x000000000000dd18                alt_release_fd
 .text          0x000000000000dd78       0xb0 /data/workspace/ES/lab03/software/camera_app_bsp//libhal_bsp.a(alt_sbrk.o)
                0x000000000000dd78                sbrk
 .text          0x000000000000de28       0x30 /data/workspace/ES/lab03/software/camera_app_bsp//libhal_bsp.a(alt_usleep.o)
                0x000000000000de28                usleep
 .text          0x000000000000de58      0x148 /data/workspace/ES/lab03/software/camera_app_bsp//libhal_bsp.a(alt_write.o)
                0x000000000000dea8                write
 .text          0x000000000000dfa0       0xb0 /data/workspace/ES/lab03/software/camera_app_bsp//libhal_bsp.a(alt_sys_init.o)
                0x000000000000dfd8                alt_irq_init
                0x000000000000e00c                alt_sys_init
 .text          0x000000000000e050      0x164 /data/workspace/ES/lab03/software/camera_app_bsp//libhal_bsp.a(altera_avalon_jtag_uart_fd.o)
                0x000000000000e050                altera_avalon_jtag_uart_read_fd
                0x000000000000e0b0                altera_avalon_jtag_uart_write_fd
                0x000000000000e110                altera_avalon_jtag_uart_close_fd
                0x000000000000e160                altera_avalon_jtag_uart_ioctl_fd
 .text          0x000000000000e1b4      0x3d8 /data/workspace/ES/lab03/software/camera_app_bsp//libhal_bsp.a(altera_avalon_jtag_uart_init.o)
                0x000000000000e1b4                altera_avalon_jtag_uart_init
                0x000000000000e524                altera_avalon_jtag_uart_close
 .text          0x000000000000e58c       0xec /data/workspace/ES/lab03/software/camera_app_bsp//libhal_bsp.a(altera_avalon_jtag_uart_ioctl.o)
                0x000000000000e58c                altera_avalon_jtag_uart_ioctl
 .text          0x000000000000e678      0x20c /data/workspace/ES/lab03/software/camera_app_bsp//libhal_bsp.a(altera_avalon_jtag_uart_read.o)
                0x000000000000e678                altera_avalon_jtag_uart_read
 .text          0x000000000000e884      0x218 /data/workspace/ES/lab03/software/camera_app_bsp//libhal_bsp.a(altera_avalon_jtag_uart_write.o)
                0x000000000000e884                altera_avalon_jtag_uart_write
 .text          0x000000000000ea9c      0x140 /data/workspace/ES/lab03/software/camera_app_bsp//libhal_bsp.a(alt_alarm_start.o)
                0x000000000000ea9c                alt_alarm_start
 .text          0x000000000000ebdc      0x158 /data/workspace/ES/lab03/software/camera_app_bsp//libhal_bsp.a(alt_busy_sleep.o)
                0x000000000000ebdc                alt_busy_sleep
 .text          0x000000000000ed34       0x1c /data/workspace/ES/lab03/software/camera_app_bsp//libhal_bsp.a(alt_dcache_flush_all.o)
                0x000000000000ed34                alt_dcache_flush_all
 .text          0x000000000000ed50       0xf4 /data/workspace/ES/lab03/software/camera_app_bsp//libhal_bsp.a(alt_dev_llist_insert.o)
                0x000000000000eda0                alt_dev_llist_insert
 .text          0x000000000000ee44       0x5c /data/workspace/ES/lab03/software/camera_app_bsp//libhal_bsp.a(alt_do_ctors.o)
                0x000000000000ee44                _do_ctors
 .text          0x000000000000eea0       0x5c /data/workspace/ES/lab03/software/camera_app_bsp//libhal_bsp.a(alt_do_dtors.o)
                0x000000000000eea0                _do_dtors
 .text          0x000000000000eefc       0x30 /data/workspace/ES/lab03/software/camera_app_bsp//libhal_bsp.a(alt_icache_flush_all.o)
                0x000000000000eefc                alt_icache_flush_all
 .text          0x000000000000ef2c      0x1e0 /data/workspace/ES/lab03/software/camera_app_bsp//libhal_bsp.a(alt_iic.o)
                0x000000000000ef2c                alt_ic_isr_register
                0x000000000000ef7c                alt_ic_irq_enable
                0x000000000000f01c                alt_ic_irq_disable
                0x000000000000f0c0                alt_ic_irq_enabled
 .text          0x000000000000f10c       0xf0 /data/workspace/ES/lab03/software/camera_app_bsp//libhal_bsp.a(alt_iic_isr_register.o)
                0x000000000000f10c                alt_iic_isr_register
 .text          0x000000000000f1fc      0x138 /data/workspace/ES/lab03/software/camera_app_bsp//libhal_bsp.a(alt_io_redirect.o)
                0x000000000000f2bc                alt_io_redirect
 .text          0x000000000000f334        0x0 /data/workspace/ES/lab03/software/camera_app_bsp//libhal_bsp.a(alt_irq_entry.o)
 .text          0x000000000000f334        0x0 /data/workspace/ES/lab03/software/camera_app_bsp//libhal_bsp.a(alt_irq_handler.o)
 .text          0x000000000000f334        0x0 /data/workspace/ES/lab03/software/camera_app_bsp//libhal_bsp.a(alt_irq_vars.o)
 .text          0x000000000000f334      0x274 /data/workspace/ES/lab03/software/camera_app_bsp//libhal_bsp.a(alt_open.o)
                0x000000000000f450                open
 .text          0x000000000000f5a8      0x19c /data/workspace/ES/lab03/software/camera_app_bsp//libhal_bsp.a(alt_tick.o)
                0x000000000000f5a8                alt_alarm_stop
                0x000000000000f640                alt_tick
 .text          0x000000000000f744       0x20 /data/workspace/ES/lab03/software/camera_app_bsp//libhal_bsp.a(altera_nios2_qsys_irq.o)
                0x000000000000f744                altera_nios2_qsys_irq_init
 .text          0x000000000000f764        0x0 /data/workspace/ES/lab03/software/camera_app_bsp//libhal_bsp.a(alt_exception_entry.o)
 .text          0x000000000000f764       0x90 /data/workspace/ES/lab03/software/camera_app_bsp//libhal_bsp.a(alt_find_dev.o)
                0x000000000000f764                alt_find_dev
 .text          0x000000000000f7f4      0x114 /data/workspace/ES/lab03/software/camera_app_bsp//libhal_bsp.a(alt_find_file.o)
                0x000000000000f7f4                alt_find_file
 .text          0x000000000000f908       0xb4 /data/workspace/ES/lab03/software/camera_app_bsp//libhal_bsp.a(alt_get_fd.o)
                0x000000000000f908                alt_get_fd
 .text          0x000000000000f9bc       0x8c /data/workspace/ES/lab03/software/camera_app_bsp//libhal_bsp.a(alt_icache_flush.o)
                0x000000000000f9bc                alt_icache_flush
 .text          0x000000000000fa48       0x14 /home/hadrien/altera/15.0/nios2eds/bin/gnu/H-x86_64-pc-linux-gnu/bin/../lib/gcc/nios2-elf/4.9.1/../../../../../H-x86_64-pc-linux-gnu/nios2-elf/lib/libc.a(lib_a-atexit.o)
                0x000000000000fa48                atexit
 .text          0x000000000000fa5c       0x38 /home/hadrien/altera/15.0/nios2eds/bin/gnu/H-x86_64-pc-linux-gnu/bin/../lib/gcc/nios2-elf/4.9.1/../../../../../H-x86_64-pc-linux-gnu/nios2-elf/lib/libc.a(lib_a-exit.o)
                0x000000000000fa5c                exit
 .text          0x000000000000fa94       0x7c /home/hadrien/altera/15.0/nios2eds/bin/gnu/H-x86_64-pc-linux-gnu/bin/../lib/gcc/nios2-elf/4.9.1/../../../../../H-x86_64-pc-linux-gnu/nios2-elf/lib/libc.a(lib_a-memcmp.o)
                0x000000000000fa94                memcmp
 .text          0x000000000000fb10      0x114 /home/hadrien/altera/15.0/nios2eds/bin/gnu/H-x86_64-pc-linux-gnu/bin/../lib/gcc/nios2-elf/4.9.1/../../../../../H-x86_64-pc-linux-gnu/nios2-elf/lib/libc.a(lib_a-__atexit.o)
                0x000000000000fb10                __register_exitproc
 .text          0x000000000000fc24      0x194 /home/hadrien/altera/15.0/nios2eds/bin/gnu/H-x86_64-pc-linux-gnu/bin/../lib/gcc/nios2-elf/4.9.1/../../../../../H-x86_64-pc-linux-gnu/nios2-elf/lib/libc.a(lib_a-__call_atexit.o)
                0x000000000000fc24                __call_exitprocs
 .text          0x000000000000fdb8       0x34 /data/workspace/ES/lab03/software/camera_app_bsp//libhal_bsp.a(alt_exit.o)
                0x000000000000fdb8                _exit
 *(.gnu.warning.*)
 *(.fini)
                0x000000000000fdec                PROVIDE (__etext, ABSOLUTE (.))
                0x000000000000fdec                PROVIDE (_etext, ABSOLUTE (.))
                0x000000000000fdec                PROVIDE (etext, ABSOLUTE (.))
 *(.eh_frame_hdr)
                0x000000000000fdec                . = ALIGN (0x4)
                0x000000000000fdec                PROVIDE (__preinit_array_start, ABSOLUTE (.))
 *(.preinit_array)
                0x000000000000fdec                PROVIDE (__preinit_array_end, ABSOLUTE (.))
                0x000000000000fdec                PROVIDE (__init_array_start, ABSOLUTE (.))
 *(.init_array)
                0x000000000000fdec                PROVIDE (__init_array_end, ABSOLUTE (.))
                0x000000000000fdec                PROVIDE (__fini_array_start, ABSOLUTE (.))
 *(.fini_array)
                0x000000000000fdec                PROVIDE (__fini_array_end, ABSOLUTE (.))
 *(.eh_frame)
 *(.gcc_except_table .gcc_except_table.*)
 *(.dynamic)
                0x000000000000fdec                PROVIDE (__CTOR_LIST__, ABSOLUTE (.))
 *(.ctors)
 *(SORT(.ctors.*))
                0x000000000000fdec                PROVIDE (__CTOR_END__, ABSOLUTE (.))
                0x000000000000fdec                PROVIDE (__DTOR_LIST__, ABSOLUTE (.))
 *(.dtors)
 *(SORT(.dtors.*))
                0x000000000000fdec                PROVIDE (__DTOR_END__, ABSOLUTE (.))
 *(.jcr)
                0x000000000000fdec                . = ALIGN (0x4)

.rodata         0x000000000000fdec      0x410
                0x000000000000fdec                PROVIDE (__ram_rodata_start, ABSOLUTE (.))
                0x000000000000fdec                . = ALIGN (0x4)
 *(.rodata .rodata.* .gnu.linkonce.r.*)
 .rodata        0x000000000000fdec      0x118 obj/default/hello_world.o
                0x000000000000fdec                cam_presets
 .rodata.str1.4
                0x000000000000ff04        0x2 /home/hadrien/altera/15.0/nios2eds/bin/gnu/H-x86_64-pc-linux-gnu/bin/../lib/gcc/nios2-elf/4.9.1/../../../../../H-x86_64-pc-linux-gnu/nios2-elf/lib/libc.a(lib_a-impure.o)
                                          0x4 (size before relaxing)
 *fill*         0x000000000000ff06        0x2 
 .rodata.str1.4
                0x000000000000ff08        0x2 /home/hadrien/altera/15.0/nios2eds/bin/gnu/H-x86_64-pc-linux-gnu/bin/../lib/gcc/nios2-elf/4.9.1/../../../../../H-x86_64-pc-linux-gnu/nios2-elf/lib/libc.a(lib_a-puts.o)
                                          0x4 (size before relaxing)
 *fill*         0x000000000000ff0a        0x2 
 .rodata.str1.4
                0x000000000000ff0c       0x42 /home/hadrien/altera/15.0/nios2eds/bin/gnu/H-x86_64-pc-linux-gnu/bin/../lib/gcc/nios2-elf/4.9.1/../../../../../H-x86_64-pc-linux-gnu/nios2-elf/lib/libc.a(lib_a-vfprintf.o)
                                         0x44 (size before relaxing)
 .rodata        0x000000000000ff4e       0x20 /home/hadrien/altera/15.0/nios2eds/bin/gnu/H-x86_64-pc-linux-gnu/bin/../lib/gcc/nios2-elf/4.9.1/../../../../../H-x86_64-pc-linux-gnu/nios2-elf/lib/libc.a(lib_a-vfprintf.o)
 *fill*         0x000000000000ff6e        0x2 
 .rodata.str1.4
                0x000000000000ff70       0x10 /home/hadrien/altera/15.0/nios2eds/bin/gnu/H-x86_64-pc-linux-gnu/bin/../lib/gcc/nios2-elf/4.9.1/../../../../../H-x86_64-pc-linux-gnu/nios2-elf/lib/libc.a(lib_a-dtoa.o)
                                         0x14 (size before relaxing)
 .rodata.str1.4
                0x000000000000ff80        0xc /home/hadrien/altera/15.0/nios2eds/bin/gnu/H-x86_64-pc-linux-gnu/bin/../lib/gcc/nios2-elf/4.9.1/../../../../../H-x86_64-pc-linux-gnu/nios2-elf/lib/libc.a(lib_a-locale.o)
                                         0x14 (size before relaxing)
 .rodata        0x000000000000ff8c      0x124 /home/hadrien/altera/15.0/nios2eds/bin/gnu/H-x86_64-pc-linux-gnu/bin/../lib/gcc/nios2-elf/4.9.1/../../../../../H-x86_64-pc-linux-gnu/nios2-elf/lib/libc.a(lib_a-mprec.o)
                0x000000000000ff98                __mprec_tinytens
                0x000000000000ffc0                __mprec_bigtens
                0x000000000000ffe8                __mprec_tens
 .rodata.str1.4
                0x0000000000000000       0x30 /home/hadrien/altera/15.0/nios2eds/bin/gnu/H-x86_64-pc-linux-gnu/bin/../lib/gcc/nios2-elf/4.9.1/../../../../../H-x86_64-pc-linux-gnu/nios2-elf/lib/libc.a(lib_a-vfiprintf.o)
 .rodata        0x00000000000100b0       0x20 /home/hadrien/altera/15.0/nios2eds/bin/gnu/H-x86_64-pc-linux-gnu/bin/../lib/gcc/nios2-elf/4.9.1/../../../../../H-x86_64-pc-linux-gnu/nios2-elf/lib/libc.a(lib_a-vfiprintf.o)
 .rodata        0x00000000000100d0      0x100 /home/hadrien/altera/15.0/nios2eds/bin/gnu/H-x86_64-pc-linux-gnu/bin/../lib/gcc/nios2-elf/4.9.1/libgcc.a(_clz.o)
                0x00000000000100d0                __clz_tab
 .rodata        0x00000000000101d0        0xc /data/workspace/ES/lab03/software/camera_app_bsp//libhal_bsp.a(alt_dev.o)
 .rodata        0x00000000000101dc       0x10 /data/workspace/ES/lab03/software/camera_app_bsp//libhal_bsp.a(alt_main.o)
 .rodata        0x00000000000101ec       0x10 /data/workspace/ES/lab03/software/camera_app_bsp//libhal_bsp.a(alt_sys_init.o)
 *(.rodata1)
                0x00000000000101fc                . = ALIGN (0x4)
                0x00000000000101fc                PROVIDE (__ram_rodata_end, ABSOLUTE (.))
                0x000000000000fdec                PROVIDE (__flash_rodata_start, LOADADDR (.rodata))

.rwdata         0x00000000000101fc     0x1aec load address 0x0000000000011ce8
                0x00000000000101fc                PROVIDE (__ram_rwdata_start, ABSOLUTE (.))
                0x00000000000101fc                . = ALIGN (0x4)
 *(.got.plt)
 *(.got)
 *(.data1)
 *(.data .data.* .gnu.linkonce.d.*)
 .data          0x00000000000101fc        0x0 /data/workspace/ES/lab03/software/camera_app_bsp//obj/HAL/src/crt0.o
 .data          0x00000000000101fc        0x0 obj/default/hello_world.o
 .data          0x00000000000101fc        0x0 obj/default/i2c/i2c.o
 .data          0x00000000000101fc        0x0 /home/hadrien/altera/15.0/nios2eds/bin/gnu/H-x86_64-pc-linux-gnu/bin/../lib/gcc/nios2-elf/4.9.1/libgcc.a(lib2-divmod.o)
 .data          0x00000000000101fc        0x0 /home/hadrien/altera/15.0/nios2eds/bin/gnu/H-x86_64-pc-linux-gnu/bin/../lib/gcc/nios2-elf/4.9.1/../../../../../H-x86_64-pc-linux-gnu/nios2-elf/lib/libc.a(lib_a-calloc.o)
 .data          0x00000000000101fc        0x0 /home/hadrien/altera/15.0/nios2eds/bin/gnu/H-x86_64-pc-linux-gnu/bin/../lib/gcc/nios2-elf/4.9.1/../../../../../H-x86_64-pc-linux-gnu/nios2-elf/lib/libc.a(lib_a-callocr.o)
 .data          0x00000000000101fc      0x424 /home/hadrien/altera/15.0/nios2eds/bin/gnu/H-x86_64-pc-linux-gnu/bin/../lib/gcc/nios2-elf/4.9.1/../../../../../H-x86_64-pc-linux-gnu/nios2-elf/lib/libc.a(lib_a-impure.o)
 .data          0x0000000000010620      0x408 /home/hadrien/altera/15.0/nios2eds/bin/gnu/H-x86_64-pc-linux-gnu/bin/../lib/gcc/nios2-elf/4.9.1/../../../../../H-x86_64-pc-linux-gnu/nios2-elf/lib/libc.a(lib_a-mallocr.o)
                0x0000000000010620                __malloc_av_
 .data          0x0000000000010a28        0x0 /home/hadrien/altera/15.0/nios2eds/bin/gnu/H-x86_64-pc-linux-gnu/bin/../lib/gcc/nios2-elf/4.9.1/../../../../../H-x86_64-pc-linux-gnu/nios2-elf/lib/libc.a(lib_a-memset.o)
 .data          0x0000000000010a28        0x0 /home/hadrien/altera/15.0/nios2eds/bin/gnu/H-x86_64-pc-linux-gnu/bin/../lib/gcc/nios2-elf/4.9.1/../../../../../H-x86_64-pc-linux-gnu/nios2-elf/lib/libc.a(lib_a-printf.o)
 .data          0x0000000000010a28        0x0 /home/hadrien/altera/15.0/nios2eds/bin/gnu/H-x86_64-pc-linux-gnu/bin/../lib/gcc/nios2-elf/4.9.1/../../../../../H-x86_64-pc-linux-gnu/nios2-elf/lib/libc.a(lib_a-putc.o)
 .data          0x0000000000010a28        0x0 /home/hadrien/altera/15.0/nios2eds/bin/gnu/H-x86_64-pc-linux-gnu/bin/../lib/gcc/nios2-elf/4.9.1/../../../../../H-x86_64-pc-linux-gnu/nios2-elf/lib/libc.a(lib_a-puts.o)
 .data          0x0000000000010a28        0x0 /home/hadrien/altera/15.0/nios2eds/bin/gnu/H-x86_64-pc-linux-gnu/bin/../lib/gcc/nios2-elf/4.9.1/../../../../../H-x86_64-pc-linux-gnu/nios2-elf/lib/libc.a(lib_a-sbrkr.o)
 .data          0x0000000000010a28        0x0 /home/hadrien/altera/15.0/nios2eds/bin/gnu/H-x86_64-pc-linux-gnu/bin/../lib/gcc/nios2-elf/4.9.1/../../../../../H-x86_64-pc-linux-gnu/nios2-elf/lib/libc.a(lib_a-strlen.o)
 .data          0x0000000000010a28        0x0 /home/hadrien/altera/15.0/nios2eds/bin/gnu/H-x86_64-pc-linux-gnu/bin/../lib/gcc/nios2-elf/4.9.1/../../../../../H-x86_64-pc-linux-gnu/nios2-elf/lib/libc.a(lib_a-vfprintf.o)
 .data          0x0000000000010a28        0x0 /home/hadrien/altera/15.0/nios2eds/bin/gnu/H-x86_64-pc-linux-gnu/bin/../lib/gcc/nios2-elf/4.9.1/../../../../../H-x86_64-pc-linux-gnu/nios2-elf/lib/libc.a(lib_a-wbuf.o)
 .data          0x0000000000010a28        0x0 /home/hadrien/altera/15.0/nios2eds/bin/gnu/H-x86_64-pc-linux-gnu/bin/../lib/gcc/nios2-elf/4.9.1/../../../../../H-x86_64-pc-linux-gnu/nios2-elf/lib/libc.a(lib_a-wsetup.o)
 .data          0x0000000000010a28        0x0 /home/hadrien/altera/15.0/nios2eds/bin/gnu/H-x86_64-pc-linux-gnu/bin/../lib/gcc/nios2-elf/4.9.1/../../../../../H-x86_64-pc-linux-gnu/nios2-elf/lib/libc.a(lib_a-dtoa.o)
 .data          0x0000000000010a28        0x0 /home/hadrien/altera/15.0/nios2eds/bin/gnu/H-x86_64-pc-linux-gnu/bin/../lib/gcc/nios2-elf/4.9.1/../../../../../H-x86_64-pc-linux-gnu/nios2-elf/lib/libc.a(lib_a-fflush.o)
 .data          0x0000000000010a28        0x0 /home/hadrien/altera/15.0/nios2eds/bin/gnu/H-x86_64-pc-linux-gnu/bin/../lib/gcc/nios2-elf/4.9.1/../../../../../H-x86_64-pc-linux-gnu/nios2-elf/lib/libc.a(lib_a-findfp.o)
 .data          0x0000000000010a28        0x0 /home/hadrien/altera/15.0/nios2eds/bin/gnu/H-x86_64-pc-linux-gnu/bin/../lib/gcc/nios2-elf/4.9.1/../../../../../H-x86_64-pc-linux-gnu/nios2-elf/lib/libc.a(lib_a-freer.o)
 .data          0x0000000000010a28        0x0 /home/hadrien/altera/15.0/nios2eds/bin/gnu/H-x86_64-pc-linux-gnu/bin/../lib/gcc/nios2-elf/4.9.1/../../../../../H-x86_64-pc-linux-gnu/nios2-elf/lib/libc.a(lib_a-fvwrite.o)
 .data          0x0000000000010a28        0x0 /home/hadrien/altera/15.0/nios2eds/bin/gnu/H-x86_64-pc-linux-gnu/bin/../lib/gcc/nios2-elf/4.9.1/../../../../../H-x86_64-pc-linux-gnu/nios2-elf/lib/libc.a(lib_a-fwalk.o)
 .data          0x0000000000010a28        0x0 /home/hadrien/altera/15.0/nios2eds/bin/gnu/H-x86_64-pc-linux-gnu/bin/../lib/gcc/nios2-elf/4.9.1/../../../../../H-x86_64-pc-linux-gnu/nios2-elf/lib/libc.a(lib_a-int_errno.o)
 .data          0x0000000000010a28       0x78 /home/hadrien/altera/15.0/nios2eds/bin/gnu/H-x86_64-pc-linux-gnu/bin/../lib/gcc/nios2-elf/4.9.1/../../../../../H-x86_64-pc-linux-gnu/nios2-elf/lib/libc.a(lib_a-locale.o)
 .data          0x0000000000010aa0        0x0 /home/hadrien/altera/15.0/nios2eds/bin/gnu/H-x86_64-pc-linux-gnu/bin/../lib/gcc/nios2-elf/4.9.1/../../../../../H-x86_64-pc-linux-gnu/nios2-elf/lib/libc.a(lib_a-makebuf.o)
 .data          0x0000000000010aa0        0x0 /home/hadrien/altera/15.0/nios2eds/bin/gnu/H-x86_64-pc-linux-gnu/bin/../lib/gcc/nios2-elf/4.9.1/../../../../../H-x86_64-pc-linux-gnu/nios2-elf/lib/libc.a(lib_a-memchr.o)
 .data          0x0000000000010aa0        0x0 /home/hadrien/altera/15.0/nios2eds/bin/gnu/H-x86_64-pc-linux-gnu/bin/../lib/gcc/nios2-elf/4.9.1/../../../../../H-x86_64-pc-linux-gnu/nios2-elf/lib/libc.a(lib_a-memcpy.o)
 .data          0x0000000000010aa0        0x0 /home/hadrien/altera/15.0/nios2eds/bin/gnu/H-x86_64-pc-linux-gnu/bin/../lib/gcc/nios2-elf/4.9.1/../../../../../H-x86_64-pc-linux-gnu/nios2-elf/lib/libc.a(lib_a-memmove.o)
 .data          0x0000000000010aa0        0x0 /home/hadrien/altera/15.0/nios2eds/bin/gnu/H-x86_64-pc-linux-gnu/bin/../lib/gcc/nios2-elf/4.9.1/../../../../../H-x86_64-pc-linux-gnu/nios2-elf/lib/libc.a(lib_a-mprec.o)
 .data          0x0000000000010aa0        0x0 /home/hadrien/altera/15.0/nios2eds/bin/gnu/H-x86_64-pc-linux-gnu/bin/../lib/gcc/nios2-elf/4.9.1/../../../../../H-x86_64-pc-linux-gnu/nios2-elf/lib/libc.a(lib_a-reallocr.o)
 .data          0x0000000000010aa0        0x0 /home/hadrien/altera/15.0/nios2eds/bin/gnu/H-x86_64-pc-linux-gnu/bin/../lib/gcc/nios2-elf/4.9.1/../../../../../H-x86_64-pc-linux-gnu/nios2-elf/lib/libc.a(lib_a-s_fpclassify.o)
 .data          0x0000000000010aa0        0x0 /home/hadrien/altera/15.0/nios2eds/bin/gnu/H-x86_64-pc-linux-gnu/bin/../lib/gcc/nios2-elf/4.9.1/../../../../../H-x86_64-pc-linux-gnu/nios2-elf/lib/libc.a(lib_a-stdio.o)
 .data          0x0000000000010aa0        0x0 /home/hadrien/altera/15.0/nios2eds/bin/gnu/H-x86_64-pc-linux-gnu/bin/../lib/gcc/nios2-elf/4.9.1/../../../../../H-x86_64-pc-linux-gnu/nios2-elf/lib/libc.a(lib_a-strcmp.o)
 .data          0x0000000000010aa0        0x0 /home/hadrien/altera/15.0/nios2eds/bin/gnu/H-x86_64-pc-linux-gnu/bin/../lib/gcc/nios2-elf/4.9.1/../../../../../H-x86_64-pc-linux-gnu/nios2-elf/lib/libc.a(lib_a-vfiprintf.o)
 .data          0x0000000000010aa0        0x0 /home/hadrien/altera/15.0/nios2eds/bin/gnu/H-x86_64-pc-linux-gnu/bin/../lib/gcc/nios2-elf/4.9.1/../../../../../H-x86_64-pc-linux-gnu/nios2-elf/lib/libc.a(lib_a-writer.o)
 .data          0x0000000000010aa0        0x0 /home/hadrien/altera/15.0/nios2eds/bin/gnu/H-x86_64-pc-linux-gnu/bin/../lib/gcc/nios2-elf/4.9.1/../../../../../H-x86_64-pc-linux-gnu/nios2-elf/lib/libc.a(closer.o)
 .data          0x0000000000010aa0        0x0 /home/hadrien/altera/15.0/nios2eds/bin/gnu/H-x86_64-pc-linux-gnu/bin/../lib/gcc/nios2-elf/4.9.1/../../../../../H-x86_64-pc-linux-gnu/nios2-elf/lib/libc.a(lib_a-fclose.o)
 .data          0x0000000000010aa0        0x0 /home/hadrien/altera/15.0/nios2eds/bin/gnu/H-x86_64-pc-linux-gnu/bin/../lib/gcc/nios2-elf/4.9.1/../../../../../H-x86_64-pc-linux-gnu/nios2-elf/lib/libc.a(lib_a-fputwc.o)
 .data          0x0000000000010aa0        0x0 /home/hadrien/altera/15.0/nios2eds/bin/gnu/H-x86_64-pc-linux-gnu/bin/../lib/gcc/nios2-elf/4.9.1/../../../../../H-x86_64-pc-linux-gnu/nios2-elf/lib/libc.a(lib_a-fstatr.o)
 .data          0x0000000000010aa0        0x0 /home/hadrien/altera/15.0/nios2eds/bin/gnu/H-x86_64-pc-linux-gnu/bin/../lib/gcc/nios2-elf/4.9.1/../../../../../H-x86_64-pc-linux-gnu/nios2-elf/lib/libc.a(lib_a-isattyr.o)
 .data          0x0000000000010aa0        0x0 /home/hadrien/altera/15.0/nios2eds/bin/gnu/H-x86_64-pc-linux-gnu/bin/../lib/gcc/nios2-elf/4.9.1/../../../../../H-x86_64-pc-linux-gnu/nios2-elf/lib/libc.a(lib_a-lseekr.o)
 .data          0x0000000000010aa0        0x0 /home/hadrien/altera/15.0/nios2eds/bin/gnu/H-x86_64-pc-linux-gnu/bin/../lib/gcc/nios2-elf/4.9.1/../../../../../H-x86_64-pc-linux-gnu/nios2-elf/lib/libc.a(lib_a-readr.o)
 .data          0x0000000000010aa0        0x0 /home/hadrien/altera/15.0/nios2eds/bin/gnu/H-x86_64-pc-linux-gnu/bin/../lib/gcc/nios2-elf/4.9.1/../../../../../H-x86_64-pc-linux-gnu/nios2-elf/lib/libc.a(lib_a-wcrtomb.o)
 .data          0x0000000000010aa0        0x0 /home/hadrien/altera/15.0/nios2eds/bin/gnu/H-x86_64-pc-linux-gnu/bin/../lib/gcc/nios2-elf/4.9.1/../../../../../H-x86_64-pc-linux-gnu/nios2-elf/lib/libc.a(lib_a-wctomb_r.o)
 .data          0x0000000000010aa0        0x0 /home/hadrien/altera/15.0/nios2eds/bin/gnu/H-x86_64-pc-linux-gnu/bin/../lib/gcc/nios2-elf/4.9.1/libgcc.a(_udivdi3.o)
 .data          0x0000000000010aa0        0x0 /home/hadrien/altera/15.0/nios2eds/bin/gnu/H-x86_64-pc-linux-gnu/bin/../lib/gcc/nios2-elf/4.9.1/libgcc.a(_umoddi3.o)
 .data          0x0000000000010aa0        0x0 /home/hadrien/altera/15.0/nios2eds/bin/gnu/H-x86_64-pc-linux-gnu/bin/../lib/gcc/nios2-elf/4.9.1/libgcc.a(adddf3.o)
 .data          0x0000000000010aa0        0x0 /home/hadrien/altera/15.0/nios2eds/bin/gnu/H-x86_64-pc-linux-gnu/bin/../lib/gcc/nios2-elf/4.9.1/libgcc.a(divdf3.o)
 .data          0x0000000000010aa0        0x0 /home/hadrien/altera/15.0/nios2eds/bin/gnu/H-x86_64-pc-linux-gnu/bin/../lib/gcc/nios2-elf/4.9.1/libgcc.a(eqdf2.o)
 .data          0x0000000000010aa0        0x0 /home/hadrien/altera/15.0/nios2eds/bin/gnu/H-x86_64-pc-linux-gnu/bin/../lib/gcc/nios2-elf/4.9.1/libgcc.a(gedf2.o)
 .data          0x0000000000010aa0        0x0 /home/hadrien/altera/15.0/nios2eds/bin/gnu/H-x86_64-pc-linux-gnu/bin/../lib/gcc/nios2-elf/4.9.1/libgcc.a(ledf2.o)
 .data          0x0000000000010aa0        0x0 /home/hadrien/altera/15.0/nios2eds/bin/gnu/H-x86_64-pc-linux-gnu/bin/../lib/gcc/nios2-elf/4.9.1/libgcc.a(muldf3.o)
 .data          0x0000000000010aa0        0x0 /home/hadrien/altera/15.0/nios2eds/bin/gnu/H-x86_64-pc-linux-gnu/bin/../lib/gcc/nios2-elf/4.9.1/libgcc.a(subdf3.o)
 .data          0x0000000000010aa0        0x0 /home/hadrien/altera/15.0/nios2eds/bin/gnu/H-x86_64-pc-linux-gnu/bin/../lib/gcc/nios2-elf/4.9.1/libgcc.a(fixdfsi.o)
 .data          0x0000000000010aa0        0x0 /home/hadrien/altera/15.0/nios2eds/bin/gnu/H-x86_64-pc-linux-gnu/bin/../lib/gcc/nios2-elf/4.9.1/libgcc.a(floatsidf.o)
 .data          0x0000000000010aa0        0x0 /home/hadrien/altera/15.0/nios2eds/bin/gnu/H-x86_64-pc-linux-gnu/bin/../lib/gcc/nios2-elf/4.9.1/libgcc.a(floatunsidf.o)
 .data          0x0000000000010aa0        0x0 /home/hadrien/altera/15.0/nios2eds/bin/gnu/H-x86_64-pc-linux-gnu/bin/../lib/gcc/nios2-elf/4.9.1/libgcc.a(_clz.o)
 .data          0x0000000000010aa0        0x0 /home/hadrien/altera/15.0/nios2eds/bin/gnu/H-x86_64-pc-linux-gnu/bin/../lib/gcc/nios2-elf/4.9.1/libgcc.a(_clzsi2.o)
 .data          0x0000000000010aa0        0x0 /data/workspace/ES/lab03/software/camera_app_bsp//libhal_bsp.a(alt_close.o)
 .data          0x0000000000010aa0      0x1a8 /data/workspace/ES/lab03/software/camera_app_bsp//libhal_bsp.a(alt_dev.o)
                0x0000000000010aa0                alt_dev_null
                0x0000000000010ac8                alt_fd_list
 .data          0x0000000000010c48        0x0 /data/workspace/ES/lab03/software/camera_app_bsp//libhal_bsp.a(alt_errno.o)
 .data          0x0000000000010c48        0x0 /data/workspace/ES/lab03/software/camera_app_bsp//libhal_bsp.a(alt_fstat.o)
 .data          0x0000000000010c48        0x0 /data/workspace/ES/lab03/software/camera_app_bsp//libhal_bsp.a(alt_isatty.o)
 .data          0x0000000000010c48        0x0 /data/workspace/ES/lab03/software/camera_app_bsp//libhal_bsp.a(alt_load.o)
 .data          0x0000000000010c48        0x0 /data/workspace/ES/lab03/software/camera_app_bsp//libhal_bsp.a(alt_lseek.o)
 .data          0x0000000000010c48        0x0 /data/workspace/ES/lab03/software/camera_app_bsp//libhal_bsp.a(alt_main.o)
 .data          0x0000000000010c48        0x0 /data/workspace/ES/lab03/software/camera_app_bsp//libhal_bsp.a(alt_malloc_lock.o)
 .data          0x0000000000010c48        0x0 /data/workspace/ES/lab03/software/camera_app_bsp//libhal_bsp.a(alt_read.o)
 .data          0x0000000000010c48        0x0 /data/workspace/ES/lab03/software/camera_app_bsp//libhal_bsp.a(alt_release_fd.o)
 .data          0x0000000000010c48        0x0 /data/workspace/ES/lab03/software/camera_app_bsp//libhal_bsp.a(alt_sbrk.o)
 .data          0x0000000000010c48        0x0 /data/workspace/ES/lab03/software/camera_app_bsp//libhal_bsp.a(alt_usleep.o)
 .data          0x0000000000010c48        0x0 /data/workspace/ES/lab03/software/camera_app_bsp//libhal_bsp.a(alt_write.o)
 .data          0x0000000000010c48     0x1060 /data/workspace/ES/lab03/software/camera_app_bsp//libhal_bsp.a(alt_sys_init.o)
 .data          0x0000000000011ca8        0x0 /data/workspace/ES/lab03/software/camera_app_bsp//libhal_bsp.a(altera_avalon_jtag_uart_fd.o)
 .data          0x0000000000011ca8        0x0 /data/workspace/ES/lab03/software/camera_app_bsp//libhal_bsp.a(altera_avalon_jtag_uart_init.o)
 .data          0x0000000000011ca8        0x0 /data/workspace/ES/lab03/software/camera_app_bsp//libhal_bsp.a(altera_avalon_jtag_uart_ioctl.o)
 .data          0x0000000000011ca8        0x0 /data/workspace/ES/lab03/software/camera_app_bsp//libhal_bsp.a(altera_avalon_jtag_uart_read.o)
 .data          0x0000000000011ca8        0x0 /data/workspace/ES/lab03/software/camera_app_bsp//libhal_bsp.a(altera_avalon_jtag_uart_write.o)
 .data          0x0000000000011ca8        0x0 /data/workspace/ES/lab03/software/camera_app_bsp//libhal_bsp.a(alt_alarm_start.o)
 .data          0x0000000000011ca8        0x0 /data/workspace/ES/lab03/software/camera_app_bsp//libhal_bsp.a(alt_busy_sleep.o)
 .data          0x0000000000011ca8        0x0 /data/workspace/ES/lab03/software/camera_app_bsp//libhal_bsp.a(alt_dcache_flush_all.o)
 .data          0x0000000000011ca8        0x0 /data/workspace/ES/lab03/software/camera_app_bsp//libhal_bsp.a(alt_dev_llist_insert.o)
 .data          0x0000000000011ca8        0x0 /data/workspace/ES/lab03/software/camera_app_bsp//libhal_bsp.a(alt_do_ctors.o)
 .data          0x0000000000011ca8        0x0 /data/workspace/ES/lab03/software/camera_app_bsp//libhal_bsp.a(alt_do_dtors.o)
 .data          0x0000000000011ca8        0x0 /data/workspace/ES/lab03/software/camera_app_bsp//libhal_bsp.a(alt_icache_flush_all.o)
 .data          0x0000000000011ca8        0x0 /data/workspace/ES/lab03/software/camera_app_bsp//libhal_bsp.a(alt_iic.o)
 .data          0x0000000000011ca8        0x0 /data/workspace/ES/lab03/software/camera_app_bsp//libhal_bsp.a(alt_iic_isr_register.o)
 .data          0x0000000000011ca8        0x0 /data/workspace/ES/lab03/software/camera_app_bsp//libhal_bsp.a(alt_io_redirect.o)
 .data          0x0000000000011ca8        0x0 /data/workspace/ES/lab03/software/camera_app_bsp//libhal_bsp.a(alt_irq_entry.o)
 .data          0x0000000000011ca8        0x0 /data/workspace/ES/lab03/software/camera_app_bsp//libhal_bsp.a(alt_irq_handler.o)
 .data          0x0000000000011ca8        0x0 /data/workspace/ES/lab03/software/camera_app_bsp//libhal_bsp.a(alt_irq_vars.o)
 .data          0x0000000000011ca8        0x0 /data/workspace/ES/lab03/software/camera_app_bsp//libhal_bsp.a(alt_open.o)
 .data          0x0000000000011ca8        0x0 /data/workspace/ES/lab03/software/camera_app_bsp//libhal_bsp.a(alt_tick.o)
 .data          0x0000000000011ca8        0x0 /data/workspace/ES/lab03/software/camera_app_bsp//libhal_bsp.a(altera_nios2_qsys_irq.o)
 .data          0x0000000000011ca8        0x0 /data/workspace/ES/lab03/software/camera_app_bsp//libhal_bsp.a(alt_exception_entry.o)
 .data          0x0000000000011ca8        0x0 /data/workspace/ES/lab03/software/camera_app_bsp//libhal_bsp.a(alt_find_dev.o)
 .data          0x0000000000011ca8        0x0 /data/workspace/ES/lab03/software/camera_app_bsp//libhal_bsp.a(alt_find_file.o)
 .data          0x0000000000011ca8        0x0 /data/workspace/ES/lab03/software/camera_app_bsp//libhal_bsp.a(alt_get_fd.o)
 .data          0x0000000000011ca8        0x0 /data/workspace/ES/lab03/software/camera_app_bsp//libhal_bsp.a(alt_icache_flush.o)
 .data          0x0000000000011ca8        0x0 /home/hadrien/altera/15.0/nios2eds/bin/gnu/H-x86_64-pc-linux-gnu/bin/../lib/gcc/nios2-elf/4.9.1/../../../../../H-x86_64-pc-linux-gnu/nios2-elf/lib/libc.a(lib_a-atexit.o)
 .data          0x0000000000011ca8        0x0 /home/hadrien/altera/15.0/nios2eds/bin/gnu/H-x86_64-pc-linux-gnu/bin/../lib/gcc/nios2-elf/4.9.1/../../../../../H-x86_64-pc-linux-gnu/nios2-elf/lib/libc.a(lib_a-exit.o)
 .data          0x0000000000011ca8        0x0 /home/hadrien/altera/15.0/nios2eds/bin/gnu/H-x86_64-pc-linux-gnu/bin/../lib/gcc/nios2-elf/4.9.1/../../../../../H-x86_64-pc-linux-gnu/nios2-elf/lib/libc.a(lib_a-memcmp.o)
 .data          0x0000000000011ca8        0x0 /home/hadrien/altera/15.0/nios2eds/bin/gnu/H-x86_64-pc-linux-gnu/bin/../lib/gcc/nios2-elf/4.9.1/../../../../../H-x86_64-pc-linux-gnu/nios2-elf/lib/libc.a(lib_a-__atexit.o)
 .data          0x0000000000011ca8        0x0 /home/hadrien/altera/15.0/nios2eds/bin/gnu/H-x86_64-pc-linux-gnu/bin/../lib/gcc/nios2-elf/4.9.1/../../../../../H-x86_64-pc-linux-gnu/nios2-elf/lib/libc.a(lib_a-__call_atexit.o)
 .data          0x0000000000011ca8        0x0 /data/workspace/ES/lab03/software/camera_app_bsp//libhal_bsp.a(alt_exit.o)
                0x0000000000019ca8                _gp = ABSOLUTE ((. + 0x8000))
                0x0000000000019ca8                PROVIDE (gp, _gp)
 *(.rwdata .rwdata.*)
 *(.sdata .sdata.* .gnu.linkonce.s.*)
 .sdata         0x0000000000011ca8        0x8 /home/hadrien/altera/15.0/nios2eds/bin/gnu/H-x86_64-pc-linux-gnu/bin/../lib/gcc/nios2-elf/4.9.1/../../../../../H-x86_64-pc-linux-gnu/nios2-elf/lib/libc.a(lib_a-impure.o)
                0x0000000000011ca8                _global_impure_ptr
                0x0000000000011cac                _impure_ptr
 .sdata         0x0000000000011cb0        0x8 /home/hadrien/altera/15.0/nios2eds/bin/gnu/H-x86_64-pc-linux-gnu/bin/../lib/gcc/nios2-elf/4.9.1/../../../../../H-x86_64-pc-linux-gnu/nios2-elf/lib/libc.a(lib_a-mallocr.o)
                0x0000000000011cb0                __malloc_sbrk_base
                0x0000000000011cb4                __malloc_trim_threshold
 .sdata         0x0000000000011cb8        0x4 /home/hadrien/altera/15.0/nios2eds/bin/gnu/H-x86_64-pc-linux-gnu/bin/../lib/gcc/nios2-elf/4.9.1/../../../../../H-x86_64-pc-linux-gnu/nios2-elf/lib/libc.a(lib_a-locale.o)
                0x0000000000011cb8                __mb_cur_max
 .sdata         0x0000000000011cbc        0x4 /home/hadrien/altera/15.0/nios2eds/bin/gnu/H-x86_64-pc-linux-gnu/bin/../lib/gcc/nios2-elf/4.9.1/../../../../../H-x86_64-pc-linux-gnu/nios2-elf/lib/libc.a(lib_a-wctomb_r.o)
                0x0000000000011cbc                __wctomb
 .sdata         0x0000000000011cc0       0x14 /data/workspace/ES/lab03/software/camera_app_bsp//libhal_bsp.a(alt_dev.o)
                0x0000000000011cc0                alt_fs_list
                0x0000000000011cc8                alt_dev_list
                0x0000000000011cd0                alt_max_fd
 .sdata         0x0000000000011cd4        0x4 /data/workspace/ES/lab03/software/camera_app_bsp//libhal_bsp.a(alt_errno.o)
                0x0000000000011cd4                alt_errno
 .sdata         0x0000000000011cd8        0x4 /data/workspace/ES/lab03/software/camera_app_bsp//libhal_bsp.a(alt_sbrk.o)
 .sdata         0x0000000000011cdc        0x4 /data/workspace/ES/lab03/software/camera_app_bsp//libhal_bsp.a(alt_irq_vars.o)
                0x0000000000011cdc                alt_priority_mask
 .sdata         0x0000000000011ce0        0x8 /data/workspace/ES/lab03/software/camera_app_bsp//libhal_bsp.a(alt_tick.o)
                0x0000000000011ce0                alt_alarm_list
 *(.sdata2 .sdata2.* .gnu.linkonce.s2.*)
                0x0000000000011ce8                . = ALIGN (0x4)
                0x0000000000011ce8                _edata = ABSOLUTE (.)
                0x0000000000011ce8                PROVIDE (edata, ABSOLUTE (.))
                0x0000000000011ce8                PROVIDE (__ram_rwdata_end, ABSOLUTE (.))
                0x0000000000011ce8                PROVIDE (__flash_rwdata_start, LOADADDR (.rwdata))

.bss            0x00000000000137d4      0x15c
                0x00000000000137d4                __bss_start = ABSOLUTE (.)
                0x00000000000137d4                PROVIDE (__sbss_start, ABSOLUTE (.))
                0x00000000000137d4                PROVIDE (___sbss_start, ABSOLUTE (.))
 *(.dynsbss)
 *(.sbss .sbss.* .gnu.linkonce.sb.*)
 .sbss          0x00000000000137d4        0xc /home/hadrien/altera/15.0/nios2eds/bin/gnu/H-x86_64-pc-linux-gnu/bin/../lib/gcc/nios2-elf/4.9.1/../../../../../H-x86_64-pc-linux-gnu/nios2-elf/lib/libc.a(lib_a-mallocr.o)
                0x00000000000137d4                __malloc_max_total_mem
                0x00000000000137d8                __malloc_max_sbrked_mem
                0x00000000000137dc                __malloc_top_pad
 .sbss          0x00000000000137e0        0x4 /home/hadrien/altera/15.0/nios2eds/bin/gnu/H-x86_64-pc-linux-gnu/bin/../lib/gcc/nios2-elf/4.9.1/../../../../../H-x86_64-pc-linux-gnu/nios2-elf/lib/libc.a(lib_a-int_errno.o)
                0x00000000000137e0                errno
 .sbss          0x00000000000137e4        0xc /home/hadrien/altera/15.0/nios2eds/bin/gnu/H-x86_64-pc-linux-gnu/bin/../lib/gcc/nios2-elf/4.9.1/../../../../../H-x86_64-pc-linux-gnu/nios2-elf/lib/libc.a(lib_a-locale.o)
                0x00000000000137e4                _PathLocale
                0x00000000000137e8                __mlocale_changed
                0x00000000000137ec                __nlocale_changed
 .sbss          0x00000000000137f0        0xc /data/workspace/ES/lab03/software/camera_app_bsp//libhal_bsp.a(alt_main.o)
                0x00000000000137f0                alt_argc
                0x00000000000137f4                alt_argv
                0x00000000000137f8                alt_envp
 .sbss          0x00000000000137fc        0x4 /data/workspace/ES/lab03/software/camera_app_bsp//libhal_bsp.a(alt_irq_vars.o)
                0x00000000000137fc                alt_irq_active
 .sbss          0x0000000000013800        0x8 /data/workspace/ES/lab03/software/camera_app_bsp//libhal_bsp.a(alt_tick.o)
                0x0000000000013800                _alt_tick_rate
                0x0000000000013804                _alt_nticks
 *(.sbss2 .sbss2.* .gnu.linkonce.sb2.*)
 *(.scommon)
                0x0000000000013808                PROVIDE (__sbss_end, ABSOLUTE (.))
                0x0000000000013808                PROVIDE (___sbss_end, ABSOLUTE (.))
 *(.dynbss)
 *(.bss .bss.* .gnu.linkonce.b.*)
 .bss           0x0000000000013808        0x0 /data/workspace/ES/lab03/software/camera_app_bsp//obj/HAL/src/crt0.o
 .bss           0x0000000000013808        0x0 obj/default/hello_world.o
 .bss           0x0000000000013808        0x0 obj/default/i2c/i2c.o
 .bss           0x0000000000013808        0x0 /home/hadrien/altera/15.0/nios2eds/bin/gnu/H-x86_64-pc-linux-gnu/bin/../lib/gcc/nios2-elf/4.9.1/libgcc.a(lib2-divmod.o)
 .bss           0x0000000000013808        0x0 /home/hadrien/altera/15.0/nios2eds/bin/gnu/H-x86_64-pc-linux-gnu/bin/../lib/gcc/nios2-elf/4.9.1/../../../../../H-x86_64-pc-linux-gnu/nios2-elf/lib/libc.a(lib_a-calloc.o)
 .bss           0x0000000000013808        0x0 /home/hadrien/altera/15.0/nios2eds/bin/gnu/H-x86_64-pc-linux-gnu/bin/../lib/gcc/nios2-elf/4.9.1/../../../../../H-x86_64-pc-linux-gnu/nios2-elf/lib/libc.a(lib_a-callocr.o)
 .bss           0x0000000000013808        0x0 /home/hadrien/altera/15.0/nios2eds/bin/gnu/H-x86_64-pc-linux-gnu/bin/../lib/gcc/nios2-elf/4.9.1/../../../../../H-x86_64-pc-linux-gnu/nios2-elf/lib/libc.a(lib_a-impure.o)
 .bss           0x0000000000013808       0x28 /home/hadrien/altera/15.0/nios2eds/bin/gnu/H-x86_64-pc-linux-gnu/bin/../lib/gcc/nios2-elf/4.9.1/../../../../../H-x86_64-pc-linux-gnu/nios2-elf/lib/libc.a(lib_a-mallocr.o)
                0x0000000000013808                __malloc_current_mallinfo
 .bss           0x0000000000013830        0x0 /home/hadrien/altera/15.0/nios2eds/bin/gnu/H-x86_64-pc-linux-gnu/bin/../lib/gcc/nios2-elf/4.9.1/../../../../../H-x86_64-pc-linux-gnu/nios2-elf/lib/libc.a(lib_a-memset.o)
 .bss           0x0000000000013830        0x0 /home/hadrien/altera/15.0/nios2eds/bin/gnu/H-x86_64-pc-linux-gnu/bin/../lib/gcc/nios2-elf/4.9.1/../../../../../H-x86_64-pc-linux-gnu/nios2-elf/lib/libc.a(lib_a-printf.o)
 .bss           0x0000000000013830        0x0 /home/hadrien/altera/15.0/nios2eds/bin/gnu/H-x86_64-pc-linux-gnu/bin/../lib/gcc/nios2-elf/4.9.1/../../../../../H-x86_64-pc-linux-gnu/nios2-elf/lib/libc.a(lib_a-putc.o)
 .bss           0x0000000000013830        0x0 /home/hadrien/altera/15.0/nios2eds/bin/gnu/H-x86_64-pc-linux-gnu/bin/../lib/gcc/nios2-elf/4.9.1/../../../../../H-x86_64-pc-linux-gnu/nios2-elf/lib/libc.a(lib_a-puts.o)
 .bss           0x0000000000013830        0x0 /home/hadrien/altera/15.0/nios2eds/bin/gnu/H-x86_64-pc-linux-gnu/bin/../lib/gcc/nios2-elf/4.9.1/../../../../../H-x86_64-pc-linux-gnu/nios2-elf/lib/libc.a(lib_a-sbrkr.o)
 .bss           0x0000000000013830        0x0 /home/hadrien/altera/15.0/nios2eds/bin/gnu/H-x86_64-pc-linux-gnu/bin/../lib/gcc/nios2-elf/4.9.1/../../../../../H-x86_64-pc-linux-gnu/nios2-elf/lib/libc.a(lib_a-strlen.o)
 .bss           0x0000000000013830        0x0 /home/hadrien/altera/15.0/nios2eds/bin/gnu/H-x86_64-pc-linux-gnu/bin/../lib/gcc/nios2-elf/4.9.1/../../../../../H-x86_64-pc-linux-gnu/nios2-elf/lib/libc.a(lib_a-vfprintf.o)
 .bss           0x0000000000013830        0x0 /home/hadrien/altera/15.0/nios2eds/bin/gnu/H-x86_64-pc-linux-gnu/bin/../lib/gcc/nios2-elf/4.9.1/../../../../../H-x86_64-pc-linux-gnu/nios2-elf/lib/libc.a(lib_a-wbuf.o)
 .bss           0x0000000000013830        0x0 /home/hadrien/altera/15.0/nios2eds/bin/gnu/H-x86_64-pc-linux-gnu/bin/../lib/gcc/nios2-elf/4.9.1/../../../../../H-x86_64-pc-linux-gnu/nios2-elf/lib/libc.a(lib_a-wsetup.o)
 .bss           0x0000000000013830        0x0 /home/hadrien/altera/15.0/nios2eds/bin/gnu/H-x86_64-pc-linux-gnu/bin/../lib/gcc/nios2-elf/4.9.1/../../../../../H-x86_64-pc-linux-gnu/nios2-elf/lib/libc.a(lib_a-dtoa.o)
 .bss           0x0000000000013830        0x0 /home/hadrien/altera/15.0/nios2eds/bin/gnu/H-x86_64-pc-linux-gnu/bin/../lib/gcc/nios2-elf/4.9.1/../../../../../H-x86_64-pc-linux-gnu/nios2-elf/lib/libc.a(lib_a-fflush.o)
 .bss           0x0000000000013830        0x0 /home/hadrien/altera/15.0/nios2eds/bin/gnu/H-x86_64-pc-linux-gnu/bin/../lib/gcc/nios2-elf/4.9.1/../../../../../H-x86_64-pc-linux-gnu/nios2-elf/lib/libc.a(lib_a-findfp.o)
 .bss           0x0000000000013830        0x0 /home/hadrien/altera/15.0/nios2eds/bin/gnu/H-x86_64-pc-linux-gnu/bin/../lib/gcc/nios2-elf/4.9.1/../../../../../H-x86_64-pc-linux-gnu/nios2-elf/lib/libc.a(lib_a-freer.o)
 .bss           0x0000000000013830        0x0 /home/hadrien/altera/15.0/nios2eds/bin/gnu/H-x86_64-pc-linux-gnu/bin/../lib/gcc/nios2-elf/4.9.1/../../../../../H-x86_64-pc-linux-gnu/nios2-elf/lib/libc.a(lib_a-fvwrite.o)
 .bss           0x0000000000013830        0x0 /home/hadrien/altera/15.0/nios2eds/bin/gnu/H-x86_64-pc-linux-gnu/bin/../lib/gcc/nios2-elf/4.9.1/../../../../../H-x86_64-pc-linux-gnu/nios2-elf/lib/libc.a(lib_a-fwalk.o)
 .bss           0x0000000000013830        0x0 /home/hadrien/altera/15.0/nios2eds/bin/gnu/H-x86_64-pc-linux-gnu/bin/../lib/gcc/nios2-elf/4.9.1/../../../../../H-x86_64-pc-linux-gnu/nios2-elf/lib/libc.a(lib_a-int_errno.o)
 .bss           0x0000000000013830        0x0 /home/hadrien/altera/15.0/nios2eds/bin/gnu/H-x86_64-pc-linux-gnu/bin/../lib/gcc/nios2-elf/4.9.1/../../../../../H-x86_64-pc-linux-gnu/nios2-elf/lib/libc.a(lib_a-locale.o)
 .bss           0x0000000000013830        0x0 /home/hadrien/altera/15.0/nios2eds/bin/gnu/H-x86_64-pc-linux-gnu/bin/../lib/gcc/nios2-elf/4.9.1/../../../../../H-x86_64-pc-linux-gnu/nios2-elf/lib/libc.a(lib_a-makebuf.o)
 .bss           0x0000000000013830        0x0 /home/hadrien/altera/15.0/nios2eds/bin/gnu/H-x86_64-pc-linux-gnu/bin/../lib/gcc/nios2-elf/4.9.1/../../../../../H-x86_64-pc-linux-gnu/nios2-elf/lib/libc.a(lib_a-memchr.o)
 .bss           0x0000000000013830        0x0 /home/hadrien/altera/15.0/nios2eds/bin/gnu/H-x86_64-pc-linux-gnu/bin/../lib/gcc/nios2-elf/4.9.1/../../../../../H-x86_64-pc-linux-gnu/nios2-elf/lib/libc.a(lib_a-memcpy.o)
 .bss           0x0000000000013830        0x0 /home/hadrien/altera/15.0/nios2eds/bin/gnu/H-x86_64-pc-linux-gnu/bin/../lib/gcc/nios2-elf/4.9.1/../../../../../H-x86_64-pc-linux-gnu/nios2-elf/lib/libc.a(lib_a-memmove.o)
 .bss           0x0000000000013830        0x0 /home/hadrien/altera/15.0/nios2eds/bin/gnu/H-x86_64-pc-linux-gnu/bin/../lib/gcc/nios2-elf/4.9.1/../../../../../H-x86_64-pc-linux-gnu/nios2-elf/lib/libc.a(lib_a-mprec.o)
 .bss           0x0000000000013830        0x0 /home/hadrien/altera/15.0/nios2eds/bin/gnu/H-x86_64-pc-linux-gnu/bin/../lib/gcc/nios2-elf/4.9.1/../../../../../H-x86_64-pc-linux-gnu/nios2-elf/lib/libc.a(lib_a-reallocr.o)
 .bss           0x0000000000013830        0x0 /home/hadrien/altera/15.0/nios2eds/bin/gnu/H-x86_64-pc-linux-gnu/bin/../lib/gcc/nios2-elf/4.9.1/../../../../../H-x86_64-pc-linux-gnu/nios2-elf/lib/libc.a(lib_a-s_fpclassify.o)
 .bss           0x0000000000013830        0x0 /home/hadrien/altera/15.0/nios2eds/bin/gnu/H-x86_64-pc-linux-gnu/bin/../lib/gcc/nios2-elf/4.9.1/../../../../../H-x86_64-pc-linux-gnu/nios2-elf/lib/libc.a(lib_a-stdio.o)
 .bss           0x0000000000013830        0x0 /home/hadrien/altera/15.0/nios2eds/bin/gnu/H-x86_64-pc-linux-gnu/bin/../lib/gcc/nios2-elf/4.9.1/../../../../../H-x86_64-pc-linux-gnu/nios2-elf/lib/libc.a(lib_a-strcmp.o)
 .bss           0x0000000000013830        0x0 /home/hadrien/altera/15.0/nios2eds/bin/gnu/H-x86_64-pc-linux-gnu/bin/../lib/gcc/nios2-elf/4.9.1/../../../../../H-x86_64-pc-linux-gnu/nios2-elf/lib/libc.a(lib_a-vfiprintf.o)
 .bss           0x0000000000013830        0x0 /home/hadrien/altera/15.0/nios2eds/bin/gnu/H-x86_64-pc-linux-gnu/bin/../lib/gcc/nios2-elf/4.9.1/../../../../../H-x86_64-pc-linux-gnu/nios2-elf/lib/libc.a(lib_a-writer.o)
 .bss           0x0000000000013830        0x0 /home/hadrien/altera/15.0/nios2eds/bin/gnu/H-x86_64-pc-linux-gnu/bin/../lib/gcc/nios2-elf/4.9.1/../../../../../H-x86_64-pc-linux-gnu/nios2-elf/lib/libc.a(closer.o)
 .bss           0x0000000000013830        0x0 /home/hadrien/altera/15.0/nios2eds/bin/gnu/H-x86_64-pc-linux-gnu/bin/../lib/gcc/nios2-elf/4.9.1/../../../../../H-x86_64-pc-linux-gnu/nios2-elf/lib/libc.a(lib_a-fclose.o)
 .bss           0x0000000000013830        0x0 /home/hadrien/altera/15.0/nios2eds/bin/gnu/H-x86_64-pc-linux-gnu/bin/../lib/gcc/nios2-elf/4.9.1/../../../../../H-x86_64-pc-linux-gnu/nios2-elf/lib/libc.a(lib_a-fputwc.o)
 .bss           0x0000000000013830        0x0 /home/hadrien/altera/15.0/nios2eds/bin/gnu/H-x86_64-pc-linux-gnu/bin/../lib/gcc/nios2-elf/4.9.1/../../../../../H-x86_64-pc-linux-gnu/nios2-elf/lib/libc.a(lib_a-fstatr.o)
 .bss           0x0000000000013830        0x0 /home/hadrien/altera/15.0/nios2eds/bin/gnu/H-x86_64-pc-linux-gnu/bin/../lib/gcc/nios2-elf/4.9.1/../../../../../H-x86_64-pc-linux-gnu/nios2-elf/lib/libc.a(lib_a-isattyr.o)
 .bss           0x0000000000013830        0x0 /home/hadrien/altera/15.0/nios2eds/bin/gnu/H-x86_64-pc-linux-gnu/bin/../lib/gcc/nios2-elf/4.9.1/../../../../../H-x86_64-pc-linux-gnu/nios2-elf/lib/libc.a(lib_a-lseekr.o)
 .bss           0x0000000000013830        0x0 /home/hadrien/altera/15.0/nios2eds/bin/gnu/H-x86_64-pc-linux-gnu/bin/../lib/gcc/nios2-elf/4.9.1/../../../../../H-x86_64-pc-linux-gnu/nios2-elf/lib/libc.a(lib_a-readr.o)
 .bss           0x0000000000013830        0x0 /home/hadrien/altera/15.0/nios2eds/bin/gnu/H-x86_64-pc-linux-gnu/bin/../lib/gcc/nios2-elf/4.9.1/../../../../../H-x86_64-pc-linux-gnu/nios2-elf/lib/libc.a(lib_a-wcrtomb.o)
 .bss           0x0000000000013830        0x0 /home/hadrien/altera/15.0/nios2eds/bin/gnu/H-x86_64-pc-linux-gnu/bin/../lib/gcc/nios2-elf/4.9.1/../../../../../H-x86_64-pc-linux-gnu/nios2-elf/lib/libc.a(lib_a-wctomb_r.o)
 .bss           0x0000000000013830        0x0 /home/hadrien/altera/15.0/nios2eds/bin/gnu/H-x86_64-pc-linux-gnu/bin/../lib/gcc/nios2-elf/4.9.1/libgcc.a(_udivdi3.o)
 .bss           0x0000000000013830        0x0 /home/hadrien/altera/15.0/nios2eds/bin/gnu/H-x86_64-pc-linux-gnu/bin/../lib/gcc/nios2-elf/4.9.1/libgcc.a(_umoddi3.o)
 .bss           0x0000000000013830        0x0 /home/hadrien/altera/15.0/nios2eds/bin/gnu/H-x86_64-pc-linux-gnu/bin/../lib/gcc/nios2-elf/4.9.1/libgcc.a(adddf3.o)
 .bss           0x0000000000013830        0x0 /home/hadrien/altera/15.0/nios2eds/bin/gnu/H-x86_64-pc-linux-gnu/bin/../lib/gcc/nios2-elf/4.9.1/libgcc.a(divdf3.o)
 .bss           0x0000000000013830        0x0 /home/hadrien/altera/15.0/nios2eds/bin/gnu/H-x86_64-pc-linux-gnu/bin/../lib/gcc/nios2-elf/4.9.1/libgcc.a(eqdf2.o)
 .bss           0x0000000000013830        0x0 /home/hadrien/altera/15.0/nios2eds/bin/gnu/H-x86_64-pc-linux-gnu/bin/../lib/gcc/nios2-elf/4.9.1/libgcc.a(gedf2.o)
 .bss           0x0000000000013830        0x0 /home/hadrien/altera/15.0/nios2eds/bin/gnu/H-x86_64-pc-linux-gnu/bin/../lib/gcc/nios2-elf/4.9.1/libgcc.a(ledf2.o)
 .bss           0x0000000000013830        0x0 /home/hadrien/altera/15.0/nios2eds/bin/gnu/H-x86_64-pc-linux-gnu/bin/../lib/gcc/nios2-elf/4.9.1/libgcc.a(muldf3.o)
 .bss           0x0000000000013830        0x0 /home/hadrien/altera/15.0/nios2eds/bin/gnu/H-x86_64-pc-linux-gnu/bin/../lib/gcc/nios2-elf/4.9.1/libgcc.a(subdf3.o)
 .bss           0x0000000000013830        0x0 /home/hadrien/altera/15.0/nios2eds/bin/gnu/H-x86_64-pc-linux-gnu/bin/../lib/gcc/nios2-elf/4.9.1/libgcc.a(fixdfsi.o)
 .bss           0x0000000000013830        0x0 /home/hadrien/altera/15.0/nios2eds/bin/gnu/H-x86_64-pc-linux-gnu/bin/../lib/gcc/nios2-elf/4.9.1/libgcc.a(floatsidf.o)
 .bss           0x0000000000013830        0x0 /home/hadrien/altera/15.0/nios2eds/bin/gnu/H-x86_64-pc-linux-gnu/bin/../lib/gcc/nios2-elf/4.9.1/libgcc.a(floatunsidf.o)
 .bss           0x0000000000013830        0x0 /home/hadrien/altera/15.0/nios2eds/bin/gnu/H-x86_64-pc-linux-gnu/bin/../lib/gcc/nios2-elf/4.9.1/libgcc.a(_clz.o)
 .bss           0x0000000000013830        0x0 /home/hadrien/altera/15.0/nios2eds/bin/gnu/H-x86_64-pc-linux-gnu/bin/../lib/gcc/nios2-elf/4.9.1/libgcc.a(_clzsi2.o)
 .bss           0x0000000000013830        0x0 /data/workspace/ES/lab03/software/camera_app_bsp//libhal_bsp.a(alt_close.o)
 .bss           0x0000000000013830        0x0 /data/workspace/ES/lab03/software/camera_app_bsp//libhal_bsp.a(alt_dev.o)
 .bss           0x0000000000013830        0x0 /data/workspace/ES/lab03/software/camera_app_bsp//libhal_bsp.a(alt_errno.o)
 .bss           0x0000000000013830        0x0 /data/workspace/ES/lab03/software/camera_app_bsp//libhal_bsp.a(alt_fstat.o)
 .bss           0x0000000000013830        0x0 /data/workspace/ES/lab03/software/camera_app_bsp//libhal_bsp.a(alt_isatty.o)
 .bss           0x0000000000013830        0x0 /data/workspace/ES/lab03/software/camera_app_bsp//libhal_bsp.a(alt_load.o)
 .bss           0x0000000000013830        0x0 /data/workspace/ES/lab03/software/camera_app_bsp//libhal_bsp.a(alt_lseek.o)
 .bss           0x0000000000013830        0x0 /data/workspace/ES/lab03/software/camera_app_bsp//libhal_bsp.a(alt_main.o)
 .bss           0x0000000000013830        0x0 /data/workspace/ES/lab03/software/camera_app_bsp//libhal_bsp.a(alt_malloc_lock.o)
 .bss           0x0000000000013830        0x0 /data/workspace/ES/lab03/software/camera_app_bsp//libhal_bsp.a(alt_read.o)
 .bss           0x0000000000013830        0x0 /data/workspace/ES/lab03/software/camera_app_bsp//libhal_bsp.a(alt_release_fd.o)
 .bss           0x0000000000013830        0x0 /data/workspace/ES/lab03/software/camera_app_bsp//libhal_bsp.a(alt_sbrk.o)
 .bss           0x0000000000013830        0x0 /data/workspace/ES/lab03/software/camera_app_bsp//libhal_bsp.a(alt_usleep.o)
 .bss           0x0000000000013830        0x0 /data/workspace/ES/lab03/software/camera_app_bsp//libhal_bsp.a(alt_write.o)
 .bss           0x0000000000013830        0x0 /data/workspace/ES/lab03/software/camera_app_bsp//libhal_bsp.a(alt_sys_init.o)
 .bss           0x0000000000013830        0x0 /data/workspace/ES/lab03/software/camera_app_bsp//libhal_bsp.a(altera_avalon_jtag_uart_fd.o)
 .bss           0x0000000000013830        0x0 /data/workspace/ES/lab03/software/camera_app_bsp//libhal_bsp.a(altera_avalon_jtag_uart_init.o)
 .bss           0x0000000000013830        0x0 /data/workspace/ES/lab03/software/camera_app_bsp//libhal_bsp.a(altera_avalon_jtag_uart_ioctl.o)
 .bss           0x0000000000013830        0x0 /data/workspace/ES/lab03/software/camera_app_bsp//libhal_bsp.a(altera_avalon_jtag_uart_read.o)
 .bss           0x0000000000013830        0x0 /data/workspace/ES/lab03/software/camera_app_bsp//libhal_bsp.a(altera_avalon_jtag_uart_write.o)
 .bss           0x0000000000013830        0x0 /data/workspace/ES/lab03/software/camera_app_bsp//libhal_bsp.a(alt_alarm_start.o)
 .bss           0x0000000000013830        0x0 /data/workspace/ES/lab03/software/camera_app_bsp//libhal_bsp.a(alt_busy_sleep.o)
 .bss           0x0000000000013830        0x0 /data/workspace/ES/lab03/software/camera_app_bsp//libhal_bsp.a(alt_dcache_flush_all.o)
 .bss           0x0000000000013830        0x0 /data/workspace/ES/lab03/software/camera_app_bsp//libhal_bsp.a(alt_dev_llist_insert.o)
 .bss           0x0000000000013830        0x0 /data/workspace/ES/lab03/software/camera_app_bsp//libhal_bsp.a(alt_do_ctors.o)
 .bss           0x0000000000013830        0x0 /data/workspace/ES/lab03/software/camera_app_bsp//libhal_bsp.a(alt_do_dtors.o)
 .bss           0x0000000000013830        0x0 /data/workspace/ES/lab03/software/camera_app_bsp//libhal_bsp.a(alt_icache_flush_all.o)
 .bss           0x0000000000013830        0x0 /data/workspace/ES/lab03/software/camera_app_bsp//libhal_bsp.a(alt_iic.o)
 .bss           0x0000000000013830        0x0 /data/workspace/ES/lab03/software/camera_app_bsp//libhal_bsp.a(alt_iic_isr_register.o)
 .bss           0x0000000000013830        0x0 /data/workspace/ES/lab03/software/camera_app_bsp//libhal_bsp.a(alt_io_redirect.o)
 .bss           0x0000000000013830        0x0 /data/workspace/ES/lab03/software/camera_app_bsp//libhal_bsp.a(alt_irq_entry.o)
 .bss           0x0000000000013830        0x0 /data/workspace/ES/lab03/software/camera_app_bsp//libhal_bsp.a(alt_irq_handler.o)
 .bss           0x0000000000013830        0x0 /data/workspace/ES/lab03/software/camera_app_bsp//libhal_bsp.a(alt_irq_vars.o)
 .bss           0x0000000000013830        0x0 /data/workspace/ES/lab03/software/camera_app_bsp//libhal_bsp.a(alt_open.o)
 .bss           0x0000000000013830        0x0 /data/workspace/ES/lab03/software/camera_app_bsp//libhal_bsp.a(alt_tick.o)
 .bss           0x0000000000013830        0x0 /data/workspace/ES/lab03/software/camera_app_bsp//libhal_bsp.a(altera_nios2_qsys_irq.o)
 .bss           0x0000000000013830        0x0 /data/workspace/ES/lab03/software/camera_app_bsp//libhal_bsp.a(alt_exception_entry.o)
 .bss           0x0000000000013830        0x0 /data/workspace/ES/lab03/software/camera_app_bsp//libhal_bsp.a(alt_find_dev.o)
 .bss           0x0000000000013830        0x0 /data/workspace/ES/lab03/software/camera_app_bsp//libhal_bsp.a(alt_find_file.o)
 .bss           0x0000000000013830        0x0 /data/workspace/ES/lab03/software/camera_app_bsp//libhal_bsp.a(alt_get_fd.o)
 .bss           0x0000000000013830        0x0 /data/workspace/ES/lab03/software/camera_app_bsp//libhal_bsp.a(alt_icache_flush.o)
 .bss           0x0000000000013830        0x0 /home/hadrien/altera/15.0/nios2eds/bin/gnu/H-x86_64-pc-linux-gnu/bin/../lib/gcc/nios2-elf/4.9.1/../../../../../H-x86_64-pc-linux-gnu/nios2-elf/lib/libc.a(lib_a-atexit.o)
 .bss           0x0000000000013830        0x0 /home/hadrien/altera/15.0/nios2eds/bin/gnu/H-x86_64-pc-linux-gnu/bin/../lib/gcc/nios2-elf/4.9.1/../../../../../H-x86_64-pc-linux-gnu/nios2-elf/lib/libc.a(lib_a-exit.o)
 .bss           0x0000000000013830        0x0 /home/hadrien/altera/15.0/nios2eds/bin/gnu/H-x86_64-pc-linux-gnu/bin/../lib/gcc/nios2-elf/4.9.1/../../../../../H-x86_64-pc-linux-gnu/nios2-elf/lib/libc.a(lib_a-memcmp.o)
 .bss           0x0000000000013830        0x0 /home/hadrien/altera/15.0/nios2eds/bin/gnu/H-x86_64-pc-linux-gnu/bin/../lib/gcc/nios2-elf/4.9.1/../../../../../H-x86_64-pc-linux-gnu/nios2-elf/lib/libc.a(lib_a-__atexit.o)
 .bss           0x0000000000013830        0x0 /home/hadrien/altera/15.0/nios2eds/bin/gnu/H-x86_64-pc-linux-gnu/bin/../lib/gcc/nios2-elf/4.9.1/../../../../../H-x86_64-pc-linux-gnu/nios2-elf/lib/libc.a(lib_a-__call_atexit.o)
 .bss           0x0000000000013830        0x0 /data/workspace/ES/lab03/software/camera_app_bsp//libhal_bsp.a(alt_exit.o)
 *(COMMON)
 COMMON         0x0000000000013830      0x100 /data/workspace/ES/lab03/software/camera_app_bsp//libhal_bsp.a(alt_irq_handler.o)
                0x0000000000013830                alt_irq
                0x0000000000013930                . = ALIGN (0x4)
                0x0000000000013930                __bss_end = ABSOLUTE (.)

.sdram          0x0000000000013930        0x0
                0x0000000000013930                PROVIDE (_alt_partition_sdram_start, ABSOLUTE (.))
 *(.sdram .sdram. sdram.*)
                0x0000000000013930                . = ALIGN (0x4)
                0x0000000000013930                PROVIDE (_alt_partition_sdram_end, ABSOLUTE (.))
                0x0000000000013930                _end = ABSOLUTE (.)
                0x0000000000013930                end = ABSOLUTE (.)
                0x0000000000013930                __alt_stack_base = ABSOLUTE (.)
                0x0000000000013930                PROVIDE (_alt_partition_sdram_load_addr, LOADADDR (.sdram))

.stab
 *(.stab)

.stabstr
 *(.stabstr)

.stab.excl
 *(.stab.excl)

.stab.exclstr
 *(.stab.exclstr)

.stab.index
 *(.stab.index)

.stab.indexstr
 *(.stab.indexstr)

.comment        0x0000000000000000       0x23
 *(.comment)
 .comment       0x0000000000000000       0x23 obj/default/hello_world.o
                                         0x24 (size before relaxing)
 .comment       0x0000000000000000       0x24 obj/default/i2c/i2c.o
 .comment       0x0000000000000000       0x24 /home/hadrien/altera/15.0/nios2eds/bin/gnu/H-x86_64-pc-linux-gnu/bin/../lib/gcc/nios2-elf/4.9.1/libgcc.a(lib2-divmod.o)
 .comment       0x0000000000000000       0x24 /home/hadrien/altera/15.0/nios2eds/bin/gnu/H-x86_64-pc-linux-gnu/bin/../lib/gcc/nios2-elf/4.9.1/../../../../../H-x86_64-pc-linux-gnu/nios2-elf/lib/libc.a(lib_a-calloc.o)
 .comment       0x0000000000000000       0x24 /home/hadrien/altera/15.0/nios2eds/bin/gnu/H-x86_64-pc-linux-gnu/bin/../lib/gcc/nios2-elf/4.9.1/../../../../../H-x86_64-pc-linux-gnu/nios2-elf/lib/libc.a(lib_a-callocr.o)
 .comment       0x0000000000000000       0x24 /home/hadrien/altera/15.0/nios2eds/bin/gnu/H-x86_64-pc-linux-gnu/bin/../lib/gcc/nios2-elf/4.9.1/../../../../../H-x86_64-pc-linux-gnu/nios2-elf/lib/libc.a(lib_a-impure.o)
 .comment       0x0000000000000000       0x24 /home/hadrien/altera/15.0/nios2eds/bin/gnu/H-x86_64-pc-linux-gnu/bin/../lib/gcc/nios2-elf/4.9.1/../../../../../H-x86_64-pc-linux-gnu/nios2-elf/lib/libc.a(lib_a-mallocr.o)
 .comment       0x0000000000000000       0x24 /home/hadrien/altera/15.0/nios2eds/bin/gnu/H-x86_64-pc-linux-gnu/bin/../lib/gcc/nios2-elf/4.9.1/../../../../../H-x86_64-pc-linux-gnu/nios2-elf/lib/libc.a(lib_a-memset.o)
 .comment       0x0000000000000000       0x24 /home/hadrien/altera/15.0/nios2eds/bin/gnu/H-x86_64-pc-linux-gnu/bin/../lib/gcc/nios2-elf/4.9.1/../../../../../H-x86_64-pc-linux-gnu/nios2-elf/lib/libc.a(lib_a-printf.o)
 .comment       0x0000000000000000       0x24 /home/hadrien/altera/15.0/nios2eds/bin/gnu/H-x86_64-pc-linux-gnu/bin/../lib/gcc/nios2-elf/4.9.1/../../../../../H-x86_64-pc-linux-gnu/nios2-elf/lib/libc.a(lib_a-putc.o)
 .comment       0x0000000000000000       0x24 /home/hadrien/altera/15.0/nios2eds/bin/gnu/H-x86_64-pc-linux-gnu/bin/../lib/gcc/nios2-elf/4.9.1/../../../../../H-x86_64-pc-linux-gnu/nios2-elf/lib/libc.a(lib_a-puts.o)
 .comment       0x0000000000000000       0x24 /home/hadrien/altera/15.0/nios2eds/bin/gnu/H-x86_64-pc-linux-gnu/bin/../lib/gcc/nios2-elf/4.9.1/../../../../../H-x86_64-pc-linux-gnu/nios2-elf/lib/libc.a(lib_a-sbrkr.o)
 .comment       0x0000000000000000       0x24 /home/hadrien/altera/15.0/nios2eds/bin/gnu/H-x86_64-pc-linux-gnu/bin/../lib/gcc/nios2-elf/4.9.1/../../../../../H-x86_64-pc-linux-gnu/nios2-elf/lib/libc.a(lib_a-strlen.o)
 .comment       0x0000000000000000       0x24 /home/hadrien/altera/15.0/nios2eds/bin/gnu/H-x86_64-pc-linux-gnu/bin/../lib/gcc/nios2-elf/4.9.1/../../../../../H-x86_64-pc-linux-gnu/nios2-elf/lib/libc.a(lib_a-vfprintf.o)
 .comment       0x0000000000000000       0x24 /home/hadrien/altera/15.0/nios2eds/bin/gnu/H-x86_64-pc-linux-gnu/bin/../lib/gcc/nios2-elf/4.9.1/../../../../../H-x86_64-pc-linux-gnu/nios2-elf/lib/libc.a(lib_a-wbuf.o)
 .comment       0x0000000000000000       0x24 /home/hadrien/altera/15.0/nios2eds/bin/gnu/H-x86_64-pc-linux-gnu/bin/../lib/gcc/nios2-elf/4.9.1/../../../../../H-x86_64-pc-linux-gnu/nios2-elf/lib/libc.a(lib_a-wsetup.o)
 .comment       0x0000000000000000       0x24 /home/hadrien/altera/15.0/nios2eds/bin/gnu/H-x86_64-pc-linux-gnu/bin/../lib/gcc/nios2-elf/4.9.1/../../../../../H-x86_64-pc-linux-gnu/nios2-elf/lib/libc.a(lib_a-dtoa.o)
 .comment       0x0000000000000000       0x24 /home/hadrien/altera/15.0/nios2eds/bin/gnu/H-x86_64-pc-linux-gnu/bin/../lib/gcc/nios2-elf/4.9.1/../../../../../H-x86_64-pc-linux-gnu/nios2-elf/lib/libc.a(lib_a-fflush.o)
 .comment       0x0000000000000000       0x24 /home/hadrien/altera/15.0/nios2eds/bin/gnu/H-x86_64-pc-linux-gnu/bin/../lib/gcc/nios2-elf/4.9.1/../../../../../H-x86_64-pc-linux-gnu/nios2-elf/lib/libc.a(lib_a-findfp.o)
 .comment       0x0000000000000000       0x24 /home/hadrien/altera/15.0/nios2eds/bin/gnu/H-x86_64-pc-linux-gnu/bin/../lib/gcc/nios2-elf/4.9.1/../../../../../H-x86_64-pc-linux-gnu/nios2-elf/lib/libc.a(lib_a-freer.o)
 .comment       0x0000000000000000       0x24 /home/hadrien/altera/15.0/nios2eds/bin/gnu/H-x86_64-pc-linux-gnu/bin/../lib/gcc/nios2-elf/4.9.1/../../../../../H-x86_64-pc-linux-gnu/nios2-elf/lib/libc.a(lib_a-fvwrite.o)
 .comment       0x0000000000000000       0x24 /home/hadrien/altera/15.0/nios2eds/bin/gnu/H-x86_64-pc-linux-gnu/bin/../lib/gcc/nios2-elf/4.9.1/../../../../../H-x86_64-pc-linux-gnu/nios2-elf/lib/libc.a(lib_a-fwalk.o)
 .comment       0x0000000000000000       0x24 /home/hadrien/altera/15.0/nios2eds/bin/gnu/H-x86_64-pc-linux-gnu/bin/../lib/gcc/nios2-elf/4.9.1/../../../../../H-x86_64-pc-linux-gnu/nios2-elf/lib/libc.a(lib_a-int_errno.o)
 .comment       0x0000000000000000       0x24 /home/hadrien/altera/15.0/nios2eds/bin/gnu/H-x86_64-pc-linux-gnu/bin/../lib/gcc/nios2-elf/4.9.1/../../../../../H-x86_64-pc-linux-gnu/nios2-elf/lib/libc.a(lib_a-locale.o)
 .comment       0x0000000000000000       0x24 /home/hadrien/altera/15.0/nios2eds/bin/gnu/H-x86_64-pc-linux-gnu/bin/../lib/gcc/nios2-elf/4.9.1/../../../../../H-x86_64-pc-linux-gnu/nios2-elf/lib/libc.a(lib_a-makebuf.o)
 .comment       0x0000000000000000       0x24 /home/hadrien/altera/15.0/nios2eds/bin/gnu/H-x86_64-pc-linux-gnu/bin/../lib/gcc/nios2-elf/4.9.1/../../../../../H-x86_64-pc-linux-gnu/nios2-elf/lib/libc.a(lib_a-memchr.o)
 .comment       0x0000000000000000       0x24 /home/hadrien/altera/15.0/nios2eds/bin/gnu/H-x86_64-pc-linux-gnu/bin/../lib/gcc/nios2-elf/4.9.1/../../../../../H-x86_64-pc-linux-gnu/nios2-elf/lib/libc.a(lib_a-memcpy.o)
 .comment       0x0000000000000000       0x24 /home/hadrien/altera/15.0/nios2eds/bin/gnu/H-x86_64-pc-linux-gnu/bin/../lib/gcc/nios2-elf/4.9.1/../../../../../H-x86_64-pc-linux-gnu/nios2-elf/lib/libc.a(lib_a-memmove.o)
 .comment       0x0000000000000000       0x24 /home/hadrien/altera/15.0/nios2eds/bin/gnu/H-x86_64-pc-linux-gnu/bin/../lib/gcc/nios2-elf/4.9.1/../../../../../H-x86_64-pc-linux-gnu/nios2-elf/lib/libc.a(lib_a-mprec.o)
 .comment       0x0000000000000000       0x24 /home/hadrien/altera/15.0/nios2eds/bin/gnu/H-x86_64-pc-linux-gnu/bin/../lib/gcc/nios2-elf/4.9.1/../../../../../H-x86_64-pc-linux-gnu/nios2-elf/lib/libc.a(lib_a-reallocr.o)
 .comment       0x0000000000000000       0x24 /home/hadrien/altera/15.0/nios2eds/bin/gnu/H-x86_64-pc-linux-gnu/bin/../lib/gcc/nios2-elf/4.9.1/../../../../../H-x86_64-pc-linux-gnu/nios2-elf/lib/libc.a(lib_a-s_fpclassify.o)
 .comment       0x0000000000000000       0x24 /home/hadrien/altera/15.0/nios2eds/bin/gnu/H-x86_64-pc-linux-gnu/bin/../lib/gcc/nios2-elf/4.9.1/../../../../../H-x86_64-pc-linux-gnu/nios2-elf/lib/libc.a(lib_a-stdio.o)
 .comment       0x0000000000000000       0x24 /home/hadrien/altera/15.0/nios2eds/bin/gnu/H-x86_64-pc-linux-gnu/bin/../lib/gcc/nios2-elf/4.9.1/../../../../../H-x86_64-pc-linux-gnu/nios2-elf/lib/libc.a(lib_a-strcmp.o)
 .comment       0x0000000000000000       0x24 /home/hadrien/altera/15.0/nios2eds/bin/gnu/H-x86_64-pc-linux-gnu/bin/../lib/gcc/nios2-elf/4.9.1/../../../../../H-x86_64-pc-linux-gnu/nios2-elf/lib/libc.a(lib_a-vfiprintf.o)
 .comment       0x0000000000000000       0x24 /home/hadrien/altera/15.0/nios2eds/bin/gnu/H-x86_64-pc-linux-gnu/bin/../lib/gcc/nios2-elf/4.9.1/../../../../../H-x86_64-pc-linux-gnu/nios2-elf/lib/libc.a(lib_a-writer.o)
 .comment       0x0000000000000000       0x24 /home/hadrien/altera/15.0/nios2eds/bin/gnu/H-x86_64-pc-linux-gnu/bin/../lib/gcc/nios2-elf/4.9.1/../../../../../H-x86_64-pc-linux-gnu/nios2-elf/lib/libc.a(closer.o)
 .comment       0x0000000000000000       0x24 /home/hadrien/altera/15.0/nios2eds/bin/gnu/H-x86_64-pc-linux-gnu/bin/../lib/gcc/nios2-elf/4.9.1/../../../../../H-x86_64-pc-linux-gnu/nios2-elf/lib/libc.a(lib_a-fclose.o)
 .comment       0x0000000000000000       0x24 /home/hadrien/altera/15.0/nios2eds/bin/gnu/H-x86_64-pc-linux-gnu/bin/../lib/gcc/nios2-elf/4.9.1/../../../../../H-x86_64-pc-linux-gnu/nios2-elf/lib/libc.a(lib_a-fputwc.o)
 .comment       0x0000000000000000       0x24 /home/hadrien/altera/15.0/nios2eds/bin/gnu/H-x86_64-pc-linux-gnu/bin/../lib/gcc/nios2-elf/4.9.1/../../../../../H-x86_64-pc-linux-gnu/nios2-elf/lib/libc.a(lib_a-fstatr.o)
 .comment       0x0000000000000000       0x24 /home/hadrien/altera/15.0/nios2eds/bin/gnu/H-x86_64-pc-linux-gnu/bin/../lib/gcc/nios2-elf/4.9.1/../../../../../H-x86_64-pc-linux-gnu/nios2-elf/lib/libc.a(lib_a-isattyr.o)
 .comment       0x0000000000000000       0x24 /home/hadrien/altera/15.0/nios2eds/bin/gnu/H-x86_64-pc-linux-gnu/bin/../lib/gcc/nios2-elf/4.9.1/../../../../../H-x86_64-pc-linux-gnu/nios2-elf/lib/libc.a(lib_a-lseekr.o)
 .comment       0x0000000000000000       0x24 /home/hadrien/altera/15.0/nios2eds/bin/gnu/H-x86_64-pc-linux-gnu/bin/../lib/gcc/nios2-elf/4.9.1/../../../../../H-x86_64-pc-linux-gnu/nios2-elf/lib/libc.a(lib_a-readr.o)
 .comment       0x0000000000000000       0x24 /home/hadrien/altera/15.0/nios2eds/bin/gnu/H-x86_64-pc-linux-gnu/bin/../lib/gcc/nios2-elf/4.9.1/../../../../../H-x86_64-pc-linux-gnu/nios2-elf/lib/libc.a(lib_a-wcrtomb.o)
 .comment       0x0000000000000000       0x24 /home/hadrien/altera/15.0/nios2eds/bin/gnu/H-x86_64-pc-linux-gnu/bin/../lib/gcc/nios2-elf/4.9.1/../../../../../H-x86_64-pc-linux-gnu/nios2-elf/lib/libc.a(lib_a-wctomb_r.o)
 .comment       0x0000000000000000       0x24 /home/hadrien/altera/15.0/nios2eds/bin/gnu/H-x86_64-pc-linux-gnu/bin/../lib/gcc/nios2-elf/4.9.1/libgcc.a(_udivdi3.o)
 .comment       0x0000000000000000       0x24 /home/hadrien/altera/15.0/nios2eds/bin/gnu/H-x86_64-pc-linux-gnu/bin/../lib/gcc/nios2-elf/4.9.1/libgcc.a(_umoddi3.o)
 .comment       0x0000000000000000       0x24 /home/hadrien/altera/15.0/nios2eds/bin/gnu/H-x86_64-pc-linux-gnu/bin/../lib/gcc/nios2-elf/4.9.1/libgcc.a(adddf3.o)
 .comment       0x0000000000000000       0x24 /home/hadrien/altera/15.0/nios2eds/bin/gnu/H-x86_64-pc-linux-gnu/bin/../lib/gcc/nios2-elf/4.9.1/libgcc.a(divdf3.o)
 .comment       0x0000000000000000       0x24 /home/hadrien/altera/15.0/nios2eds/bin/gnu/H-x86_64-pc-linux-gnu/bin/../lib/gcc/nios2-elf/4.9.1/libgcc.a(eqdf2.o)
 .comment       0x0000000000000000       0x24 /home/hadrien/altera/15.0/nios2eds/bin/gnu/H-x86_64-pc-linux-gnu/bin/../lib/gcc/nios2-elf/4.9.1/libgcc.a(gedf2.o)
 .comment       0x0000000000000000       0x24 /home/hadrien/altera/15.0/nios2eds/bin/gnu/H-x86_64-pc-linux-gnu/bin/../lib/gcc/nios2-elf/4.9.1/libgcc.a(ledf2.o)
 .comment       0x0000000000000000       0x24 /home/hadrien/altera/15.0/nios2eds/bin/gnu/H-x86_64-pc-linux-gnu/bin/../lib/gcc/nios2-elf/4.9.1/libgcc.a(muldf3.o)
 .comment       0x0000000000000000       0x24 /home/hadrien/altera/15.0/nios2eds/bin/gnu/H-x86_64-pc-linux-gnu/bin/../lib/gcc/nios2-elf/4.9.1/libgcc.a(subdf3.o)
 .comment       0x0000000000000000       0x24 /home/hadrien/altera/15.0/nios2eds/bin/gnu/H-x86_64-pc-linux-gnu/bin/../lib/gcc/nios2-elf/4.9.1/libgcc.a(fixdfsi.o)
 .comment       0x0000000000000000       0x24 /home/hadrien/altera/15.0/nios2eds/bin/gnu/H-x86_64-pc-linux-gnu/bin/../lib/gcc/nios2-elf/4.9.1/libgcc.a(floatsidf.o)
 .comment       0x0000000000000000       0x24 /home/hadrien/altera/15.0/nios2eds/bin/gnu/H-x86_64-pc-linux-gnu/bin/../lib/gcc/nios2-elf/4.9.1/libgcc.a(floatunsidf.o)
 .comment       0x0000000000000000       0x24 /home/hadrien/altera/15.0/nios2eds/bin/gnu/H-x86_64-pc-linux-gnu/bin/../lib/gcc/nios2-elf/4.9.1/libgcc.a(_clz.o)
 .comment       0x0000000000000000       0x24 /home/hadrien/altera/15.0/nios2eds/bin/gnu/H-x86_64-pc-linux-gnu/bin/../lib/gcc/nios2-elf/4.9.1/libgcc.a(_clzsi2.o)
 .comment       0x0000000000000000       0x24 /data/workspace/ES/lab03/software/camera_app_bsp//libhal_bsp.a(alt_close.o)
 .comment       0x0000000000000000       0x24 /data/workspace/ES/lab03/software/camera_app_bsp//libhal_bsp.a(alt_dev.o)
 .comment       0x0000000000000000       0x24 /data/workspace/ES/lab03/software/camera_app_bsp//libhal_bsp.a(alt_errno.o)
 .comment       0x0000000000000000       0x24 /data/workspace/ES/lab03/software/camera_app_bsp//libhal_bsp.a(alt_fstat.o)
 .comment       0x0000000000000000       0x24 /data/workspace/ES/lab03/software/camera_app_bsp//libhal_bsp.a(alt_isatty.o)
 .comment       0x0000000000000000       0x24 /data/workspace/ES/lab03/software/camera_app_bsp//libhal_bsp.a(alt_load.o)
 .comment       0x0000000000000000       0x24 /data/workspace/ES/lab03/software/camera_app_bsp//libhal_bsp.a(alt_lseek.o)
 .comment       0x0000000000000000       0x24 /data/workspace/ES/lab03/software/camera_app_bsp//libhal_bsp.a(alt_main.o)
 .comment       0x0000000000000000       0x24 /data/workspace/ES/lab03/software/camera_app_bsp//libhal_bsp.a(alt_malloc_lock.o)
 .comment       0x0000000000000000       0x24 /data/workspace/ES/lab03/software/camera_app_bsp//libhal_bsp.a(alt_read.o)
 .comment       0x0000000000000000       0x24 /data/workspace/ES/lab03/software/camera_app_bsp//libhal_bsp.a(alt_release_fd.o)
 .comment       0x0000000000000000       0x24 /data/workspace/ES/lab03/software/camera_app_bsp//libhal_bsp.a(alt_sbrk.o)
 .comment       0x0000000000000000       0x24 /data/workspace/ES/lab03/software/camera_app_bsp//libhal_bsp.a(alt_usleep.o)
 .comment       0x0000000000000000       0x24 /data/workspace/ES/lab03/software/camera_app_bsp//libhal_bsp.a(alt_write.o)
 .comment       0x0000000000000000       0x24 /data/workspace/ES/lab03/software/camera_app_bsp//libhal_bsp.a(alt_sys_init.o)
 .comment       0x0000000000000000       0x24 /data/workspace/ES/lab03/software/camera_app_bsp//libhal_bsp.a(altera_avalon_jtag_uart_fd.o)
 .comment       0x0000000000000000       0x24 /data/workspace/ES/lab03/software/camera_app_bsp//libhal_bsp.a(altera_avalon_jtag_uart_init.o)
 .comment       0x0000000000000000       0x24 /data/workspace/ES/lab03/software/camera_app_bsp//libhal_bsp.a(altera_avalon_jtag_uart_ioctl.o)
 .comment       0x0000000000000000       0x24 /data/workspace/ES/lab03/software/camera_app_bsp//libhal_bsp.a(altera_avalon_jtag_uart_read.o)
 .comment       0x0000000000000000       0x24 /data/workspace/ES/lab03/software/camera_app_bsp//libhal_bsp.a(altera_avalon_jtag_uart_write.o)
 .comment       0x0000000000000000       0x24 /data/workspace/ES/lab03/software/camera_app_bsp//libhal_bsp.a(alt_alarm_start.o)
 .comment       0x0000000000000000       0x24 /data/workspace/ES/lab03/software/camera_app_bsp//libhal_bsp.a(alt_busy_sleep.o)
 .comment       0x0000000000000000       0x24 /data/workspace/ES/lab03/software/camera_app_bsp//libhal_bsp.a(alt_dcache_flush_all.o)
 .comment       0x0000000000000000       0x24 /data/workspace/ES/lab03/software/camera_app_bsp//libhal_bsp.a(alt_dev_llist_insert.o)
 .comment       0x0000000000000000       0x24 /data/workspace/ES/lab03/software/camera_app_bsp//libhal_bsp.a(alt_do_ctors.o)
 .comment       0x0000000000000000       0x24 /data/workspace/ES/lab03/software/camera_app_bsp//libhal_bsp.a(alt_do_dtors.o)
 .comment       0x0000000000000000       0x24 /data/workspace/ES/lab03/software/camera_app_bsp//libhal_bsp.a(alt_icache_flush_all.o)
 .comment       0x0000000000000000       0x24 /data/workspace/ES/lab03/software/camera_app_bsp//libhal_bsp.a(alt_iic.o)
 .comment       0x0000000000000000       0x24 /data/workspace/ES/lab03/software/camera_app_bsp//libhal_bsp.a(alt_iic_isr_register.o)
 .comment       0x0000000000000000       0x24 /data/workspace/ES/lab03/software/camera_app_bsp//libhal_bsp.a(alt_io_redirect.o)
 .comment       0x0000000000000000       0x24 /data/workspace/ES/lab03/software/camera_app_bsp//libhal_bsp.a(alt_irq_handler.o)
 .comment       0x0000000000000000       0x24 /data/workspace/ES/lab03/software/camera_app_bsp//libhal_bsp.a(alt_irq_vars.o)
 .comment       0x0000000000000000       0x24 /data/workspace/ES/lab03/software/camera_app_bsp//libhal_bsp.a(alt_open.o)
 .comment       0x0000000000000000       0x24 /data/workspace/ES/lab03/software/camera_app_bsp//libhal_bsp.a(alt_tick.o)
 .comment       0x0000000000000000       0x24 /data/workspace/ES/lab03/software/camera_app_bsp//libhal_bsp.a(altera_nios2_qsys_irq.o)
 .comment       0x0000000000000000       0x24 /data/workspace/ES/lab03/software/camera_app_bsp//libhal_bsp.a(alt_find_dev.o)
 .comment       0x0000000000000000       0x24 /data/workspace/ES/lab03/software/camera_app_bsp//libhal_bsp.a(alt_find_file.o)
 .comment       0x0000000000000000       0x24 /data/workspace/ES/lab03/software/camera_app_bsp//libhal_bsp.a(alt_get_fd.o)
 .comment       0x0000000000000000       0x24 /data/workspace/ES/lab03/software/camera_app_bsp//libhal_bsp.a(alt_icache_flush.o)
 .comment       0x0000000000000000       0x24 /home/hadrien/altera/15.0/nios2eds/bin/gnu/H-x86_64-pc-linux-gnu/bin/../lib/gcc/nios2-elf/4.9.1/../../../../../H-x86_64-pc-linux-gnu/nios2-elf/lib/libc.a(lib_a-atexit.o)
 .comment       0x0000000000000000       0x24 /home/hadrien/altera/15.0/nios2eds/bin/gnu/H-x86_64-pc-linux-gnu/bin/../lib/gcc/nios2-elf/4.9.1/../../../../../H-x86_64-pc-linux-gnu/nios2-elf/lib/libc.a(lib_a-exit.o)
 .comment       0x0000000000000000       0x24 /home/hadrien/altera/15.0/nios2eds/bin/gnu/H-x86_64-pc-linux-gnu/bin/../lib/gcc/nios2-elf/4.9.1/../../../../../H-x86_64-pc-linux-gnu/nios2-elf/lib/libc.a(lib_a-memcmp.o)
 .comment       0x0000000000000000       0x24 /home/hadrien/altera/15.0/nios2eds/bin/gnu/H-x86_64-pc-linux-gnu/bin/../lib/gcc/nios2-elf/4.9.1/../../../../../H-x86_64-pc-linux-gnu/nios2-elf/lib/libc.a(lib_a-__atexit.o)
 .comment       0x0000000000000000       0x24 /home/hadrien/altera/15.0/nios2eds/bin/gnu/H-x86_64-pc-linux-gnu/bin/../lib/gcc/nios2-elf/4.9.1/../../../../../H-x86_64-pc-linux-gnu/nios2-elf/lib/libc.a(lib_a-__call_atexit.o)
 .comment       0x0000000000000000       0x24 /data/workspace/ES/lab03/software/camera_app_bsp//libhal_bsp.a(alt_exit.o)

.debug
 *(.debug)

.line
 *(.line)

.debug_srcinfo
 *(.debug_srcinfo)

.debug_sfnames
 *(.debug_sfnames)

.debug_aranges  0x0000000000000000      0xd48
 *(.debug_aranges)
 .debug_aranges
                0x0000000000000000       0x28 /data/workspace/ES/lab03/software/camera_app_bsp//obj/HAL/src/crt0.o
 .debug_aranges
                0x0000000000000028       0x20 obj/default/hello_world.o
 .debug_aranges
                0x0000000000000048       0x20 obj/default/i2c/i2c.o
 .debug_aranges
                0x0000000000000068       0x20 /home/hadrien/altera/15.0/nios2eds/bin/gnu/H-x86_64-pc-linux-gnu/bin/../lib/gcc/nios2-elf/4.9.1/libgcc.a(lib2-divmod.o)
 .debug_aranges
                0x0000000000000088       0x20 /home/hadrien/altera/15.0/nios2eds/bin/gnu/H-x86_64-pc-linux-gnu/bin/../lib/gcc/nios2-elf/4.9.1/../../../../../H-x86_64-pc-linux-gnu/nios2-elf/lib/libc.a(lib_a-calloc.o)
 .debug_aranges
                0x00000000000000a8       0x20 /home/hadrien/altera/15.0/nios2eds/bin/gnu/H-x86_64-pc-linux-gnu/bin/../lib/gcc/nios2-elf/4.9.1/../../../../../H-x86_64-pc-linux-gnu/nios2-elf/lib/libc.a(lib_a-callocr.o)
 .debug_aranges
                0x00000000000000c8       0x18 /home/hadrien/altera/15.0/nios2eds/bin/gnu/H-x86_64-pc-linux-gnu/bin/../lib/gcc/nios2-elf/4.9.1/../../../../../H-x86_64-pc-linux-gnu/nios2-elf/lib/libc.a(lib_a-impure.o)
 .debug_aranges
                0x00000000000000e0       0x20 /home/hadrien/altera/15.0/nios2eds/bin/gnu/H-x86_64-pc-linux-gnu/bin/../lib/gcc/nios2-elf/4.9.1/../../../../../H-x86_64-pc-linux-gnu/nios2-elf/lib/libc.a(lib_a-mallocr.o)
 .debug_aranges
                0x0000000000000100       0x20 /home/hadrien/altera/15.0/nios2eds/bin/gnu/H-x86_64-pc-linux-gnu/bin/../lib/gcc/nios2-elf/4.9.1/../../../../../H-x86_64-pc-linux-gnu/nios2-elf/lib/libc.a(lib_a-memset.o)
 .debug_aranges
                0x0000000000000120       0x20 /home/hadrien/altera/15.0/nios2eds/bin/gnu/H-x86_64-pc-linux-gnu/bin/../lib/gcc/nios2-elf/4.9.1/../../../../../H-x86_64-pc-linux-gnu/nios2-elf/lib/libc.a(lib_a-printf.o)
 .debug_aranges
                0x0000000000000140       0x20 /home/hadrien/altera/15.0/nios2eds/bin/gnu/H-x86_64-pc-linux-gnu/bin/../lib/gcc/nios2-elf/4.9.1/../../../../../H-x86_64-pc-linux-gnu/nios2-elf/lib/libc.a(lib_a-putc.o)
 .debug_aranges
                0x0000000000000160       0x20 /home/hadrien/altera/15.0/nios2eds/bin/gnu/H-x86_64-pc-linux-gnu/bin/../lib/gcc/nios2-elf/4.9.1/../../../../../H-x86_64-pc-linux-gnu/nios2-elf/lib/libc.a(lib_a-puts.o)
 .debug_aranges
                0x0000000000000180       0x20 /home/hadrien/altera/15.0/nios2eds/bin/gnu/H-x86_64-pc-linux-gnu/bin/../lib/gcc/nios2-elf/4.9.1/../../../../../H-x86_64-pc-linux-gnu/nios2-elf/lib/libc.a(lib_a-sbrkr.o)
 .debug_aranges
                0x00000000000001a0       0x20 /home/hadrien/altera/15.0/nios2eds/bin/gnu/H-x86_64-pc-linux-gnu/bin/../lib/gcc/nios2-elf/4.9.1/../../../../../H-x86_64-pc-linux-gnu/nios2-elf/lib/libc.a(lib_a-strlen.o)
 .debug_aranges
                0x00000000000001c0       0x20 /home/hadrien/altera/15.0/nios2eds/bin/gnu/H-x86_64-pc-linux-gnu/bin/../lib/gcc/nios2-elf/4.9.1/../../../../../H-x86_64-pc-linux-gnu/nios2-elf/lib/libc.a(lib_a-vfprintf.o)
 .debug_aranges
                0x00000000000001e0       0x20 /home/hadrien/altera/15.0/nios2eds/bin/gnu/H-x86_64-pc-linux-gnu/bin/../lib/gcc/nios2-elf/4.9.1/../../../../../H-x86_64-pc-linux-gnu/nios2-elf/lib/libc.a(lib_a-wbuf.o)
 .debug_aranges
                0x0000000000000200       0x20 /home/hadrien/altera/15.0/nios2eds/bin/gnu/H-x86_64-pc-linux-gnu/bin/../lib/gcc/nios2-elf/4.9.1/../../../../../H-x86_64-pc-linux-gnu/nios2-elf/lib/libc.a(lib_a-wsetup.o)
 .debug_aranges
                0x0000000000000220       0x20 /home/hadrien/altera/15.0/nios2eds/bin/gnu/H-x86_64-pc-linux-gnu/bin/../lib/gcc/nios2-elf/4.9.1/../../../../../H-x86_64-pc-linux-gnu/nios2-elf/lib/libc.a(lib_a-dtoa.o)
 .debug_aranges
                0x0000000000000240       0x20 /home/hadrien/altera/15.0/nios2eds/bin/gnu/H-x86_64-pc-linux-gnu/bin/../lib/gcc/nios2-elf/4.9.1/../../../../../H-x86_64-pc-linux-gnu/nios2-elf/lib/libc.a(lib_a-fflush.o)
 .debug_aranges
                0x0000000000000260       0x20 /home/hadrien/altera/15.0/nios2eds/bin/gnu/H-x86_64-pc-linux-gnu/bin/../lib/gcc/nios2-elf/4.9.1/../../../../../H-x86_64-pc-linux-gnu/nios2-elf/lib/libc.a(lib_a-findfp.o)
 .debug_aranges
                0x0000000000000280       0x20 /home/hadrien/altera/15.0/nios2eds/bin/gnu/H-x86_64-pc-linux-gnu/bin/../lib/gcc/nios2-elf/4.9.1/../../../../../H-x86_64-pc-linux-gnu/nios2-elf/lib/libc.a(lib_a-freer.o)
 .debug_aranges
                0x00000000000002a0       0x20 /home/hadrien/altera/15.0/nios2eds/bin/gnu/H-x86_64-pc-linux-gnu/bin/../lib/gcc/nios2-elf/4.9.1/../../../../../H-x86_64-pc-linux-gnu/nios2-elf/lib/libc.a(lib_a-fvwrite.o)
 .debug_aranges
                0x00000000000002c0       0x20 /home/hadrien/altera/15.0/nios2eds/bin/gnu/H-x86_64-pc-linux-gnu/bin/../lib/gcc/nios2-elf/4.9.1/../../../../../H-x86_64-pc-linux-gnu/nios2-elf/lib/libc.a(lib_a-fwalk.o)
 .debug_aranges
                0x00000000000002e0       0x18 /home/hadrien/altera/15.0/nios2eds/bin/gnu/H-x86_64-pc-linux-gnu/bin/../lib/gcc/nios2-elf/4.9.1/../../../../../H-x86_64-pc-linux-gnu/nios2-elf/lib/libc.a(lib_a-int_errno.o)
 .debug_aranges
                0x00000000000002f8       0x20 /home/hadrien/altera/15.0/nios2eds/bin/gnu/H-x86_64-pc-linux-gnu/bin/../lib/gcc/nios2-elf/4.9.1/../../../../../H-x86_64-pc-linux-gnu/nios2-elf/lib/libc.a(lib_a-locale.o)
 .debug_aranges
                0x0000000000000318       0x20 /home/hadrien/altera/15.0/nios2eds/bin/gnu/H-x86_64-pc-linux-gnu/bin/../lib/gcc/nios2-elf/4.9.1/../../../../../H-x86_64-pc-linux-gnu/nios2-elf/lib/libc.a(lib_a-makebuf.o)
 .debug_aranges
                0x0000000000000338       0x20 /home/hadrien/altera/15.0/nios2eds/bin/gnu/H-x86_64-pc-linux-gnu/bin/../lib/gcc/nios2-elf/4.9.1/../../../../../H-x86_64-pc-linux-gnu/nios2-elf/lib/libc.a(lib_a-memchr.o)
 .debug_aranges
                0x0000000000000358       0x20 /home/hadrien/altera/15.0/nios2eds/bin/gnu/H-x86_64-pc-linux-gnu/bin/../lib/gcc/nios2-elf/4.9.1/../../../../../H-x86_64-pc-linux-gnu/nios2-elf/lib/libc.a(lib_a-memcpy.o)
 .debug_aranges
                0x0000000000000378       0x20 /home/hadrien/altera/15.0/nios2eds/bin/gnu/H-x86_64-pc-linux-gnu/bin/../lib/gcc/nios2-elf/4.9.1/../../../../../H-x86_64-pc-linux-gnu/nios2-elf/lib/libc.a(lib_a-memmove.o)
 .debug_aranges
                0x0000000000000398       0x20 /home/hadrien/altera/15.0/nios2eds/bin/gnu/H-x86_64-pc-linux-gnu/bin/../lib/gcc/nios2-elf/4.9.1/../../../../../H-x86_64-pc-linux-gnu/nios2-elf/lib/libc.a(lib_a-mprec.o)
 .debug_aranges
                0x00000000000003b8       0x20 /home/hadrien/altera/15.0/nios2eds/bin/gnu/H-x86_64-pc-linux-gnu/bin/../lib/gcc/nios2-elf/4.9.1/../../../../../H-x86_64-pc-linux-gnu/nios2-elf/lib/libc.a(lib_a-reallocr.o)
 .debug_aranges
                0x00000000000003d8       0x20 /home/hadrien/altera/15.0/nios2eds/bin/gnu/H-x86_64-pc-linux-gnu/bin/../lib/gcc/nios2-elf/4.9.1/../../../../../H-x86_64-pc-linux-gnu/nios2-elf/lib/libc.a(lib_a-s_fpclassify.o)
 .debug_aranges
                0x00000000000003f8       0x20 /home/hadrien/altera/15.0/nios2eds/bin/gnu/H-x86_64-pc-linux-gnu/bin/../lib/gcc/nios2-elf/4.9.1/../../../../../H-x86_64-pc-linux-gnu/nios2-elf/lib/libc.a(lib_a-stdio.o)
 .debug_aranges
                0x0000000000000418       0x20 /home/hadrien/altera/15.0/nios2eds/bin/gnu/H-x86_64-pc-linux-gnu/bin/../lib/gcc/nios2-elf/4.9.1/../../../../../H-x86_64-pc-linux-gnu/nios2-elf/lib/libc.a(lib_a-strcmp.o)
 .debug_aranges
                0x0000000000000438       0x20 /home/hadrien/altera/15.0/nios2eds/bin/gnu/H-x86_64-pc-linux-gnu/bin/../lib/gcc/nios2-elf/4.9.1/../../../../../H-x86_64-pc-linux-gnu/nios2-elf/lib/libc.a(lib_a-vfiprintf.o)
 .debug_aranges
                0x0000000000000458       0x20 /home/hadrien/altera/15.0/nios2eds/bin/gnu/H-x86_64-pc-linux-gnu/bin/../lib/gcc/nios2-elf/4.9.1/../../../../../H-x86_64-pc-linux-gnu/nios2-elf/lib/libc.a(lib_a-writer.o)
 .debug_aranges
                0x0000000000000478       0x20 /home/hadrien/altera/15.0/nios2eds/bin/gnu/H-x86_64-pc-linux-gnu/bin/../lib/gcc/nios2-elf/4.9.1/../../../../../H-x86_64-pc-linux-gnu/nios2-elf/lib/libc.a(closer.o)
 .debug_aranges
                0x0000000000000498       0x20 /home/hadrien/altera/15.0/nios2eds/bin/gnu/H-x86_64-pc-linux-gnu/bin/../lib/gcc/nios2-elf/4.9.1/../../../../../H-x86_64-pc-linux-gnu/nios2-elf/lib/libc.a(lib_a-fclose.o)
 .debug_aranges
                0x00000000000004b8       0x20 /home/hadrien/altera/15.0/nios2eds/bin/gnu/H-x86_64-pc-linux-gnu/bin/../lib/gcc/nios2-elf/4.9.1/../../../../../H-x86_64-pc-linux-gnu/nios2-elf/lib/libc.a(lib_a-fputwc.o)
 .debug_aranges
                0x00000000000004d8       0x20 /home/hadrien/altera/15.0/nios2eds/bin/gnu/H-x86_64-pc-linux-gnu/bin/../lib/gcc/nios2-elf/4.9.1/../../../../../H-x86_64-pc-linux-gnu/nios2-elf/lib/libc.a(lib_a-fstatr.o)
 .debug_aranges
                0x00000000000004f8       0x20 /home/hadrien/altera/15.0/nios2eds/bin/gnu/H-x86_64-pc-linux-gnu/bin/../lib/gcc/nios2-elf/4.9.1/../../../../../H-x86_64-pc-linux-gnu/nios2-elf/lib/libc.a(lib_a-isattyr.o)
 .debug_aranges
                0x0000000000000518       0x20 /home/hadrien/altera/15.0/nios2eds/bin/gnu/H-x86_64-pc-linux-gnu/bin/../lib/gcc/nios2-elf/4.9.1/../../../../../H-x86_64-pc-linux-gnu/nios2-elf/lib/libc.a(lib_a-lseekr.o)
 .debug_aranges
                0x0000000000000538       0x20 /home/hadrien/altera/15.0/nios2eds/bin/gnu/H-x86_64-pc-linux-gnu/bin/../lib/gcc/nios2-elf/4.9.1/../../../../../H-x86_64-pc-linux-gnu/nios2-elf/lib/libc.a(lib_a-readr.o)
 .debug_aranges
                0x0000000000000558       0x20 /home/hadrien/altera/15.0/nios2eds/bin/gnu/H-x86_64-pc-linux-gnu/bin/../lib/gcc/nios2-elf/4.9.1/../../../../../H-x86_64-pc-linux-gnu/nios2-elf/lib/libc.a(lib_a-wcrtomb.o)
 .debug_aranges
                0x0000000000000578       0x20 /home/hadrien/altera/15.0/nios2eds/bin/gnu/H-x86_64-pc-linux-gnu/bin/../lib/gcc/nios2-elf/4.9.1/../../../../../H-x86_64-pc-linux-gnu/nios2-elf/lib/libc.a(lib_a-wctomb_r.o)
 .debug_aranges
                0x0000000000000598       0x20 /home/hadrien/altera/15.0/nios2eds/bin/gnu/H-x86_64-pc-linux-gnu/bin/../lib/gcc/nios2-elf/4.9.1/libgcc.a(_udivdi3.o)
 .debug_aranges
                0x00000000000005b8       0x20 /home/hadrien/altera/15.0/nios2eds/bin/gnu/H-x86_64-pc-linux-gnu/bin/../lib/gcc/nios2-elf/4.9.1/libgcc.a(_umoddi3.o)
 .debug_aranges
                0x00000000000005d8       0x20 /home/hadrien/altera/15.0/nios2eds/bin/gnu/H-x86_64-pc-linux-gnu/bin/../lib/gcc/nios2-elf/4.9.1/libgcc.a(adddf3.o)
 .debug_aranges
                0x00000000000005f8       0x20 /home/hadrien/altera/15.0/nios2eds/bin/gnu/H-x86_64-pc-linux-gnu/bin/../lib/gcc/nios2-elf/4.9.1/libgcc.a(divdf3.o)
 .debug_aranges
                0x0000000000000618       0x20 /home/hadrien/altera/15.0/nios2eds/bin/gnu/H-x86_64-pc-linux-gnu/bin/../lib/gcc/nios2-elf/4.9.1/libgcc.a(eqdf2.o)
 .debug_aranges
                0x0000000000000638       0x20 /home/hadrien/altera/15.0/nios2eds/bin/gnu/H-x86_64-pc-linux-gnu/bin/../lib/gcc/nios2-elf/4.9.1/libgcc.a(gedf2.o)
 .debug_aranges
                0x0000000000000658       0x20 /home/hadrien/altera/15.0/nios2eds/bin/gnu/H-x86_64-pc-linux-gnu/bin/../lib/gcc/nios2-elf/4.9.1/libgcc.a(ledf2.o)
 .debug_aranges
                0x0000000000000678       0x20 /home/hadrien/altera/15.0/nios2eds/bin/gnu/H-x86_64-pc-linux-gnu/bin/../lib/gcc/nios2-elf/4.9.1/libgcc.a(muldf3.o)
 .debug_aranges
                0x0000000000000698       0x20 /home/hadrien/altera/15.0/nios2eds/bin/gnu/H-x86_64-pc-linux-gnu/bin/../lib/gcc/nios2-elf/4.9.1/libgcc.a(subdf3.o)
 .debug_aranges
                0x00000000000006b8       0x20 /home/hadrien/altera/15.0/nios2eds/bin/gnu/H-x86_64-pc-linux-gnu/bin/../lib/gcc/nios2-elf/4.9.1/libgcc.a(fixdfsi.o)
 .debug_aranges
                0x00000000000006d8       0x20 /home/hadrien/altera/15.0/nios2eds/bin/gnu/H-x86_64-pc-linux-gnu/bin/../lib/gcc/nios2-elf/4.9.1/libgcc.a(floatsidf.o)
 .debug_aranges
                0x00000000000006f8       0x20 /home/hadrien/altera/15.0/nios2eds/bin/gnu/H-x86_64-pc-linux-gnu/bin/../lib/gcc/nios2-elf/4.9.1/libgcc.a(floatunsidf.o)
 .debug_aranges
                0x0000000000000718       0x18 /home/hadrien/altera/15.0/nios2eds/bin/gnu/H-x86_64-pc-linux-gnu/bin/../lib/gcc/nios2-elf/4.9.1/libgcc.a(_clz.o)
 .debug_aranges
                0x0000000000000730       0x20 /home/hadrien/altera/15.0/nios2eds/bin/gnu/H-x86_64-pc-linux-gnu/bin/../lib/gcc/nios2-elf/4.9.1/libgcc.a(_clzsi2.o)
 .debug_aranges
                0x0000000000000750       0x20 /data/workspace/ES/lab03/software/camera_app_bsp//libhal_bsp.a(alt_close.o)
 .debug_aranges
                0x0000000000000770       0x20 /data/workspace/ES/lab03/software/camera_app_bsp//libhal_bsp.a(alt_dev.o)
 .debug_aranges
                0x0000000000000790       0x18 /data/workspace/ES/lab03/software/camera_app_bsp//libhal_bsp.a(alt_errno.o)
 .debug_aranges
                0x00000000000007a8       0x20 /data/workspace/ES/lab03/software/camera_app_bsp//libhal_bsp.a(alt_fstat.o)
 .debug_aranges
                0x00000000000007c8       0x20 /data/workspace/ES/lab03/software/camera_app_bsp//libhal_bsp.a(alt_isatty.o)
 .debug_aranges
                0x00000000000007e8       0x20 /data/workspace/ES/lab03/software/camera_app_bsp//libhal_bsp.a(alt_load.o)
 .debug_aranges
                0x0000000000000808       0x20 /data/workspace/ES/lab03/software/camera_app_bsp//libhal_bsp.a(alt_lseek.o)
 .debug_aranges
                0x0000000000000828       0x20 /data/workspace/ES/lab03/software/camera_app_bsp//libhal_bsp.a(alt_main.o)
 .debug_aranges
                0x0000000000000848       0x20 /data/workspace/ES/lab03/software/camera_app_bsp//libhal_bsp.a(alt_malloc_lock.o)
 .debug_aranges
                0x0000000000000868       0x20 /data/workspace/ES/lab03/software/camera_app_bsp//libhal_bsp.a(alt_read.o)
 .debug_aranges
                0x0000000000000888       0x20 /data/workspace/ES/lab03/software/camera_app_bsp//libhal_bsp.a(alt_release_fd.o)
 .debug_aranges
                0x00000000000008a8       0x20 /data/workspace/ES/lab03/software/camera_app_bsp//libhal_bsp.a(alt_sbrk.o)
 .debug_aranges
                0x00000000000008c8       0x20 /data/workspace/ES/lab03/software/camera_app_bsp//libhal_bsp.a(alt_usleep.o)
 .debug_aranges
                0x00000000000008e8       0x20 /data/workspace/ES/lab03/software/camera_app_bsp//libhal_bsp.a(alt_write.o)
 .debug_aranges
                0x0000000000000908       0x20 /data/workspace/ES/lab03/software/camera_app_bsp//libhal_bsp.a(alt_sys_init.o)
 .debug_aranges
                0x0000000000000928       0x20 /data/workspace/ES/lab03/software/camera_app_bsp//libhal_bsp.a(altera_avalon_jtag_uart_fd.o)
 .debug_aranges
                0x0000000000000948       0x20 /data/workspace/ES/lab03/software/camera_app_bsp//libhal_bsp.a(altera_avalon_jtag_uart_init.o)
 .debug_aranges
                0x0000000000000968       0x20 /data/workspace/ES/lab03/software/camera_app_bsp//libhal_bsp.a(altera_avalon_jtag_uart_ioctl.o)
 .debug_aranges
                0x0000000000000988       0x20 /data/workspace/ES/lab03/software/camera_app_bsp//libhal_bsp.a(altera_avalon_jtag_uart_read.o)
 .debug_aranges
                0x00000000000009a8       0x20 /data/workspace/ES/lab03/software/camera_app_bsp//libhal_bsp.a(altera_avalon_jtag_uart_write.o)
 .debug_aranges
                0x00000000000009c8       0x20 /data/workspace/ES/lab03/software/camera_app_bsp//libhal_bsp.a(alt_alarm_start.o)
 .debug_aranges
                0x00000000000009e8       0x20 /data/workspace/ES/lab03/software/camera_app_bsp//libhal_bsp.a(alt_busy_sleep.o)
 .debug_aranges
                0x0000000000000a08       0x20 /data/workspace/ES/lab03/software/camera_app_bsp//libhal_bsp.a(alt_dcache_flush_all.o)
 .debug_aranges
                0x0000000000000a28       0x20 /data/workspace/ES/lab03/software/camera_app_bsp//libhal_bsp.a(alt_dev_llist_insert.o)
 .debug_aranges
                0x0000000000000a48       0x20 /data/workspace/ES/lab03/software/camera_app_bsp//libhal_bsp.a(alt_do_ctors.o)
 .debug_aranges
                0x0000000000000a68       0x20 /data/workspace/ES/lab03/software/camera_app_bsp//libhal_bsp.a(alt_do_dtors.o)
 .debug_aranges
                0x0000000000000a88       0x20 /data/workspace/ES/lab03/software/camera_app_bsp//libhal_bsp.a(alt_icache_flush_all.o)
 .debug_aranges
                0x0000000000000aa8       0x20 /data/workspace/ES/lab03/software/camera_app_bsp//libhal_bsp.a(alt_iic.o)
 .debug_aranges
                0x0000000000000ac8       0x20 /data/workspace/ES/lab03/software/camera_app_bsp//libhal_bsp.a(alt_iic_isr_register.o)
 .debug_aranges
                0x0000000000000ae8       0x20 /data/workspace/ES/lab03/software/camera_app_bsp//libhal_bsp.a(alt_io_redirect.o)
 .debug_aranges
                0x0000000000000b08       0x30 /data/workspace/ES/lab03/software/camera_app_bsp//libhal_bsp.a(alt_irq_entry.o)
 .debug_aranges
                0x0000000000000b38       0x20 /data/workspace/ES/lab03/software/camera_app_bsp//libhal_bsp.a(alt_irq_handler.o)
 .debug_aranges
                0x0000000000000b58       0x18 /data/workspace/ES/lab03/software/camera_app_bsp//libhal_bsp.a(alt_irq_vars.o)
 .debug_aranges
                0x0000000000000b70       0x20 /data/workspace/ES/lab03/software/camera_app_bsp//libhal_bsp.a(alt_open.o)
 .debug_aranges
                0x0000000000000b90       0x20 /data/workspace/ES/lab03/software/camera_app_bsp//libhal_bsp.a(alt_tick.o)
 .debug_aranges
                0x0000000000000bb0       0x20 /data/workspace/ES/lab03/software/camera_app_bsp//libhal_bsp.a(altera_nios2_qsys_irq.o)
 .debug_aranges
                0x0000000000000bd0       0x38 /data/workspace/ES/lab03/software/camera_app_bsp//libhal_bsp.a(alt_exception_entry.o)
 .debug_aranges
                0x0000000000000c08       0x20 /data/workspace/ES/lab03/software/camera_app_bsp//libhal_bsp.a(alt_find_dev.o)
 .debug_aranges
                0x0000000000000c28       0x20 /data/workspace/ES/lab03/software/camera_app_bsp//libhal_bsp.a(alt_find_file.o)
 .debug_aranges
                0x0000000000000c48       0x20 /data/workspace/ES/lab03/software/camera_app_bsp//libhal_bsp.a(alt_get_fd.o)
 .debug_aranges
                0x0000000000000c68       0x20 /data/workspace/ES/lab03/software/camera_app_bsp//libhal_bsp.a(alt_icache_flush.o)
 .debug_aranges
                0x0000000000000c88       0x20 /home/hadrien/altera/15.0/nios2eds/bin/gnu/H-x86_64-pc-linux-gnu/bin/../lib/gcc/nios2-elf/4.9.1/../../../../../H-x86_64-pc-linux-gnu/nios2-elf/lib/libc.a(lib_a-atexit.o)
 .debug_aranges
                0x0000000000000ca8       0x20 /home/hadrien/altera/15.0/nios2eds/bin/gnu/H-x86_64-pc-linux-gnu/bin/../lib/gcc/nios2-elf/4.9.1/../../../../../H-x86_64-pc-linux-gnu/nios2-elf/lib/libc.a(lib_a-exit.o)
 .debug_aranges
                0x0000000000000cc8       0x20 /home/hadrien/altera/15.0/nios2eds/bin/gnu/H-x86_64-pc-linux-gnu/bin/../lib/gcc/nios2-elf/4.9.1/../../../../../H-x86_64-pc-linux-gnu/nios2-elf/lib/libc.a(lib_a-memcmp.o)
 .debug_aranges
                0x0000000000000ce8       0x20 /home/hadrien/altera/15.0/nios2eds/bin/gnu/H-x86_64-pc-linux-gnu/bin/../lib/gcc/nios2-elf/4.9.1/../../../../../H-x86_64-pc-linux-gnu/nios2-elf/lib/libc.a(lib_a-__atexit.o)
 .debug_aranges
                0x0000000000000d08       0x20 /home/hadrien/altera/15.0/nios2eds/bin/gnu/H-x86_64-pc-linux-gnu/bin/../lib/gcc/nios2-elf/4.9.1/../../../../../H-x86_64-pc-linux-gnu/nios2-elf/lib/libc.a(lib_a-__call_atexit.o)
 .debug_aranges
                0x0000000000000d28       0x20 /data/workspace/ES/lab03/software/camera_app_bsp//libhal_bsp.a(alt_exit.o)

.debug_pubnames
 *(.debug_pubnames)

.debug_info     0x0000000000000000    0x253d1
 *(.debug_info .gnu.linkonce.wi.*)
 .debug_info    0x0000000000000000       0x65 /data/workspace/ES/lab03/software/camera_app_bsp//obj/HAL/src/crt0.o
 .debug_info    0x0000000000000065      0xc1c obj/default/hello_world.o
 .debug_info    0x0000000000000c81      0x3b3 obj/default/i2c/i2c.o
 .debug_info    0x0000000000001034      0x234 /home/hadrien/altera/15.0/nios2eds/bin/gnu/H-x86_64-pc-linux-gnu/bin/../lib/gcc/nios2-elf/4.9.1/libgcc.a(lib2-divmod.o)
 .debug_info    0x0000000000001268      0x8dd /home/hadrien/altera/15.0/nios2eds/bin/gnu/H-x86_64-pc-linux-gnu/bin/../lib/gcc/nios2-elf/4.9.1/../../../../../H-x86_64-pc-linux-gnu/nios2-elf/lib/libc.a(lib_a-calloc.o)
 .debug_info    0x0000000000001b45      0x9e1 /home/hadrien/altera/15.0/nios2eds/bin/gnu/H-x86_64-pc-linux-gnu/bin/../lib/gcc/nios2-elf/4.9.1/../../../../../H-x86_64-pc-linux-gnu/nios2-elf/lib/libc.a(lib_a-callocr.o)
 .debug_info    0x0000000000002526      0x88f /home/hadrien/altera/15.0/nios2eds/bin/gnu/H-x86_64-pc-linux-gnu/bin/../lib/gcc/nios2-elf/4.9.1/../../../../../H-x86_64-pc-linux-gnu/nios2-elf/lib/libc.a(lib_a-impure.o)
 .debug_info    0x0000000000002db5      0xd71 /home/hadrien/altera/15.0/nios2eds/bin/gnu/H-x86_64-pc-linux-gnu/bin/../lib/gcc/nios2-elf/4.9.1/../../../../../H-x86_64-pc-linux-gnu/nios2-elf/lib/libc.a(lib_a-mallocr.o)
 .debug_info    0x0000000000003b26      0x11a /home/hadrien/altera/15.0/nios2eds/bin/gnu/H-x86_64-pc-linux-gnu/bin/../lib/gcc/nios2-elf/4.9.1/../../../../../H-x86_64-pc-linux-gnu/nios2-elf/lib/libc.a(lib_a-memset.o)
 .debug_info    0x0000000000003c40      0x9af /home/hadrien/altera/15.0/nios2eds/bin/gnu/H-x86_64-pc-linux-gnu/bin/../lib/gcc/nios2-elf/4.9.1/../../../../../H-x86_64-pc-linux-gnu/nios2-elf/lib/libc.a(lib_a-printf.o)
 .debug_info    0x00000000000045ef      0x977 /home/hadrien/altera/15.0/nios2eds/bin/gnu/H-x86_64-pc-linux-gnu/bin/../lib/gcc/nios2-elf/4.9.1/../../../../../H-x86_64-pc-linux-gnu/nios2-elf/lib/libc.a(lib_a-putc.o)
 .debug_info    0x0000000000004f66      0x9f4 /home/hadrien/altera/15.0/nios2eds/bin/gnu/H-x86_64-pc-linux-gnu/bin/../lib/gcc/nios2-elf/4.9.1/../../../../../H-x86_64-pc-linux-gnu/nios2-elf/lib/libc.a(lib_a-puts.o)
 .debug_info    0x000000000000595a      0x8ef /home/hadrien/altera/15.0/nios2eds/bin/gnu/H-x86_64-pc-linux-gnu/bin/../lib/gcc/nios2-elf/4.9.1/../../../../../H-x86_64-pc-linux-gnu/nios2-elf/lib/libc.a(lib_a-sbrkr.o)
 .debug_info    0x0000000000006249       0xdb /home/hadrien/altera/15.0/nios2eds/bin/gnu/H-x86_64-pc-linux-gnu/bin/../lib/gcc/nios2-elf/4.9.1/../../../../../H-x86_64-pc-linux-gnu/nios2-elf/lib/libc.a(lib_a-strlen.o)
 .debug_info    0x0000000000006324     0x17d1 /home/hadrien/altera/15.0/nios2eds/bin/gnu/H-x86_64-pc-linux-gnu/bin/../lib/gcc/nios2-elf/4.9.1/../../../../../H-x86_64-pc-linux-gnu/nios2-elf/lib/libc.a(lib_a-vfprintf.o)
 .debug_info    0x0000000000007af5      0x9b2 /home/hadrien/altera/15.0/nios2eds/bin/gnu/H-x86_64-pc-linux-gnu/bin/../lib/gcc/nios2-elf/4.9.1/../../../../../H-x86_64-pc-linux-gnu/nios2-elf/lib/libc.a(lib_a-wbuf.o)
 .debug_info    0x00000000000084a7      0x91d /home/hadrien/altera/15.0/nios2eds/bin/gnu/H-x86_64-pc-linux-gnu/bin/../lib/gcc/nios2-elf/4.9.1/../../../../../H-x86_64-pc-linux-gnu/nios2-elf/lib/libc.a(lib_a-wsetup.o)
 .debug_info    0x0000000000008dc4     0x1348 /home/hadrien/altera/15.0/nios2eds/bin/gnu/H-x86_64-pc-linux-gnu/bin/../lib/gcc/nios2-elf/4.9.1/../../../../../H-x86_64-pc-linux-gnu/nios2-elf/lib/libc.a(lib_a-dtoa.o)
 .debug_info    0x000000000000a10c      0xa3a /home/hadrien/altera/15.0/nios2eds/bin/gnu/H-x86_64-pc-linux-gnu/bin/../lib/gcc/nios2-elf/4.9.1/../../../../../H-x86_64-pc-linux-gnu/nios2-elf/lib/libc.a(lib_a-fflush.o)
 .debug_info    0x000000000000ab46      0xd38 /home/hadrien/altera/15.0/nios2eds/bin/gnu/H-x86_64-pc-linux-gnu/bin/../lib/gcc/nios2-elf/4.9.1/../../../../../H-x86_64-pc-linux-gnu/nios2-elf/lib/libc.a(lib_a-findfp.o)
 .debug_info    0x000000000000b87e      0xc02 /home/hadrien/altera/15.0/nios2eds/bin/gnu/H-x86_64-pc-linux-gnu/bin/../lib/gcc/nios2-elf/4.9.1/../../../../../H-x86_64-pc-linux-gnu/nios2-elf/lib/libc.a(lib_a-freer.o)
 .debug_info    0x000000000000c480      0xc31 /home/hadrien/altera/15.0/nios2eds/bin/gnu/H-x86_64-pc-linux-gnu/bin/../lib/gcc/nios2-elf/4.9.1/../../../../../H-x86_64-pc-linux-gnu/nios2-elf/lib/libc.a(lib_a-fvwrite.o)
 .debug_info    0x000000000000d0b1      0xab7 /home/hadrien/altera/15.0/nios2eds/bin/gnu/H-x86_64-pc-linux-gnu/bin/../lib/gcc/nios2-elf/4.9.1/../../../../../H-x86_64-pc-linux-gnu/nios2-elf/lib/libc.a(lib_a-fwalk.o)
 .debug_info    0x000000000000db68       0x83 /home/hadrien/altera/15.0/nios2eds/bin/gnu/H-x86_64-pc-linux-gnu/bin/../lib/gcc/nios2-elf/4.9.1/../../../../../H-x86_64-pc-linux-gnu/nios2-elf/lib/libc.a(lib_a-int_errno.o)
 .debug_info    0x000000000000dbeb      0xc19 /home/hadrien/altera/15.0/nios2eds/bin/gnu/H-x86_64-pc-linux-gnu/bin/../lib/gcc/nios2-elf/4.9.1/../../../../../H-x86_64-pc-linux-gnu/nios2-elf/lib/libc.a(lib_a-locale.o)
 .debug_info    0x000000000000e804      0xaff /home/hadrien/altera/15.0/nios2eds/bin/gnu/H-x86_64-pc-linux-gnu/bin/../lib/gcc/nios2-elf/4.9.1/../../../../../H-x86_64-pc-linux-gnu/nios2-elf/lib/libc.a(lib_a-makebuf.o)
 .debug_info    0x000000000000f303      0x12b /home/hadrien/altera/15.0/nios2eds/bin/gnu/H-x86_64-pc-linux-gnu/bin/../lib/gcc/nios2-elf/4.9.1/../../../../../H-x86_64-pc-linux-gnu/nios2-elf/lib/libc.a(lib_a-memchr.o)
 .debug_info    0x000000000000f42e      0x133 /home/hadrien/altera/15.0/nios2eds/bin/gnu/H-x86_64-pc-linux-gnu/bin/../lib/gcc/nios2-elf/4.9.1/../../../../../H-x86_64-pc-linux-gnu/nios2-elf/lib/libc.a(lib_a-memcpy.o)
 .debug_info    0x000000000000f561      0x133 /home/hadrien/altera/15.0/nios2eds/bin/gnu/H-x86_64-pc-linux-gnu/bin/../lib/gcc/nios2-elf/4.9.1/../../../../../H-x86_64-pc-linux-gnu/nios2-elf/lib/libc.a(lib_a-memmove.o)
 .debug_info    0x000000000000f694     0x1680 /home/hadrien/altera/15.0/nios2eds/bin/gnu/H-x86_64-pc-linux-gnu/bin/../lib/gcc/nios2-elf/4.9.1/../../../../../H-x86_64-pc-linux-gnu/nios2-elf/lib/libc.a(lib_a-mprec.o)
 .debug_info    0x0000000000010d14      0xcc6 /home/hadrien/altera/15.0/nios2eds/bin/gnu/H-x86_64-pc-linux-gnu/bin/../lib/gcc/nios2-elf/4.9.1/../../../../../H-x86_64-pc-linux-gnu/nios2-elf/lib/libc.a(lib_a-reallocr.o)
 .debug_info    0x00000000000119da       0xdc /home/hadrien/altera/15.0/nios2eds/bin/gnu/H-x86_64-pc-linux-gnu/bin/../lib/gcc/nios2-elf/4.9.1/../../../../../H-x86_64-pc-linux-gnu/nios2-elf/lib/libc.a(lib_a-s_fpclassify.o)
 .debug_info    0x0000000000011ab6      0xb83 /home/hadrien/altera/15.0/nios2eds/bin/gnu/H-x86_64-pc-linux-gnu/bin/../lib/gcc/nios2-elf/4.9.1/../../../../../H-x86_64-pc-linux-gnu/nios2-elf/lib/libc.a(lib_a-stdio.o)
 .debug_info    0x0000000000012639       0xdd /home/hadrien/altera/15.0/nios2eds/bin/gnu/H-x86_64-pc-linux-gnu/bin/../lib/gcc/nios2-elf/4.9.1/../../../../../H-x86_64-pc-linux-gnu/nios2-elf/lib/libc.a(lib_a-strcmp.o)
 .debug_info    0x0000000000012716     0x1567 /home/hadrien/altera/15.0/nios2eds/bin/gnu/H-x86_64-pc-linux-gnu/bin/../lib/gcc/nios2-elf/4.9.1/../../../../../H-x86_64-pc-linux-gnu/nios2-elf/lib/libc.a(lib_a-vfiprintf.o)
 .debug_info    0x0000000000013c7d      0x921 /home/hadrien/altera/15.0/nios2eds/bin/gnu/H-x86_64-pc-linux-gnu/bin/../lib/gcc/nios2-elf/4.9.1/../../../../../H-x86_64-pc-linux-gnu/nios2-elf/lib/libc.a(lib_a-writer.o)
 .debug_info    0x000000000001459e      0x8ce /home/hadrien/altera/15.0/nios2eds/bin/gnu/H-x86_64-pc-linux-gnu/bin/../lib/gcc/nios2-elf/4.9.1/../../../../../H-x86_64-pc-linux-gnu/nios2-elf/lib/libc.a(closer.o)
 .debug_info    0x0000000000014e6c      0xa12 /home/hadrien/altera/15.0/nios2eds/bin/gnu/H-x86_64-pc-linux-gnu/bin/../lib/gcc/nios2-elf/4.9.1/../../../../../H-x86_64-pc-linux-gnu/nios2-elf/lib/libc.a(lib_a-fclose.o)
 .debug_info    0x000000000001587e      0xaac /home/hadrien/altera/15.0/nios2eds/bin/gnu/H-x86_64-pc-linux-gnu/bin/../lib/gcc/nios2-elf/4.9.1/../../../../../H-x86_64-pc-linux-gnu/nios2-elf/lib/libc.a(lib_a-fputwc.o)
 .debug_info    0x000000000001632a      0xa5c /home/hadrien/altera/15.0/nios2eds/bin/gnu/H-x86_64-pc-linux-gnu/bin/../lib/gcc/nios2-elf/4.9.1/../../../../../H-x86_64-pc-linux-gnu/nios2-elf/lib/libc.a(lib_a-fstatr.o)
 .debug_info    0x0000000000016d86      0x8ce /home/hadrien/altera/15.0/nios2eds/bin/gnu/H-x86_64-pc-linux-gnu/bin/../lib/gcc/nios2-elf/4.9.1/../../../../../H-x86_64-pc-linux-gnu/nios2-elf/lib/libc.a(lib_a-isattyr.o)
 .debug_info    0x0000000000017654      0x91a /home/hadrien/altera/15.0/nios2eds/bin/gnu/H-x86_64-pc-linux-gnu/bin/../lib/gcc/nios2-elf/4.9.1/../../../../../H-x86_64-pc-linux-gnu/nios2-elf/lib/libc.a(lib_a-lseekr.o)
 .debug_info    0x0000000000017f6e      0x91a /home/hadrien/altera/15.0/nios2eds/bin/gnu/H-x86_64-pc-linux-gnu/bin/../lib/gcc/nios2-elf/4.9.1/../../../../../H-x86_64-pc-linux-gnu/nios2-elf/lib/libc.a(lib_a-readr.o)
 .debug_info    0x0000000000018888      0xa52 /home/hadrien/altera/15.0/nios2eds/bin/gnu/H-x86_64-pc-linux-gnu/bin/../lib/gcc/nios2-elf/4.9.1/../../../../../H-x86_64-pc-linux-gnu/nios2-elf/lib/libc.a(lib_a-wcrtomb.o)
 .debug_info    0x00000000000192da      0x99a /home/hadrien/altera/15.0/nios2eds/bin/gnu/H-x86_64-pc-linux-gnu/bin/../lib/gcc/nios2-elf/4.9.1/../../../../../H-x86_64-pc-linux-gnu/nios2-elf/lib/libc.a(lib_a-wctomb_r.o)
 .debug_info    0x0000000000019c74      0x70c /home/hadrien/altera/15.0/nios2eds/bin/gnu/H-x86_64-pc-linux-gnu/bin/../lib/gcc/nios2-elf/4.9.1/libgcc.a(_udivdi3.o)
 .debug_info    0x000000000001a380      0x765 /home/hadrien/altera/15.0/nios2eds/bin/gnu/H-x86_64-pc-linux-gnu/bin/../lib/gcc/nios2-elf/4.9.1/libgcc.a(_umoddi3.o)
 .debug_info    0x000000000001aae5      0x485 /home/hadrien/altera/15.0/nios2eds/bin/gnu/H-x86_64-pc-linux-gnu/bin/../lib/gcc/nios2-elf/4.9.1/libgcc.a(adddf3.o)
 .debug_info    0x000000000001af6a      0x5c6 /home/hadrien/altera/15.0/nios2eds/bin/gnu/H-x86_64-pc-linux-gnu/bin/../lib/gcc/nios2-elf/4.9.1/libgcc.a(divdf3.o)
 .debug_info    0x000000000001b530      0x1e2 /home/hadrien/altera/15.0/nios2eds/bin/gnu/H-x86_64-pc-linux-gnu/bin/../lib/gcc/nios2-elf/4.9.1/libgcc.a(eqdf2.o)
 .debug_info    0x000000000001b712      0x202 /home/hadrien/altera/15.0/nios2eds/bin/gnu/H-x86_64-pc-linux-gnu/bin/../lib/gcc/nios2-elf/4.9.1/libgcc.a(gedf2.o)
 .debug_info    0x000000000001b914      0x202 /home/hadrien/altera/15.0/nios2eds/bin/gnu/H-x86_64-pc-linux-gnu/bin/../lib/gcc/nios2-elf/4.9.1/libgcc.a(ledf2.o)
 .debug_info    0x000000000001bb16      0x5f2 /home/hadrien/altera/15.0/nios2eds/bin/gnu/H-x86_64-pc-linux-gnu/bin/../lib/gcc/nios2-elf/4.9.1/libgcc.a(muldf3.o)
 .debug_info    0x000000000001c108      0x4a2 /home/hadrien/altera/15.0/nios2eds/bin/gnu/H-x86_64-pc-linux-gnu/bin/../lib/gcc/nios2-elf/4.9.1/libgcc.a(subdf3.o)
 .debug_info    0x000000000001c5aa      0x1a6 /home/hadrien/altera/15.0/nios2eds/bin/gnu/H-x86_64-pc-linux-gnu/bin/../lib/gcc/nios2-elf/4.9.1/libgcc.a(fixdfsi.o)
 .debug_info    0x000000000001c750      0x1b6 /home/hadrien/altera/15.0/nios2eds/bin/gnu/H-x86_64-pc-linux-gnu/bin/../lib/gcc/nios2-elf/4.9.1/libgcc.a(floatsidf.o)
 .debug_info    0x000000000001c906      0x1af /home/hadrien/altera/15.0/nios2eds/bin/gnu/H-x86_64-pc-linux-gnu/bin/../lib/gcc/nios2-elf/4.9.1/libgcc.a(floatunsidf.o)
 .debug_info    0x000000000001cab5       0xab /home/hadrien/altera/15.0/nios2eds/bin/gnu/H-x86_64-pc-linux-gnu/bin/../lib/gcc/nios2-elf/4.9.1/libgcc.a(_clz.o)
 .debug_info    0x000000000001cb60      0x11d /home/hadrien/altera/15.0/nios2eds/bin/gnu/H-x86_64-pc-linux-gnu/bin/../lib/gcc/nios2-elf/4.9.1/libgcc.a(_clzsi2.o)
 .debug_info    0x000000000001cc7d      0x31a /data/workspace/ES/lab03/software/camera_app_bsp//libhal_bsp.a(alt_close.o)
 .debug_info    0x000000000001cf97      0x495 /data/workspace/ES/lab03/software/camera_app_bsp//libhal_bsp.a(alt_dev.o)
 .debug_info    0x000000000001d42c       0x9f /data/workspace/ES/lab03/software/camera_app_bsp//libhal_bsp.a(alt_errno.o)
 .debug_info    0x000000000001d4cb      0x481 /data/workspace/ES/lab03/software/camera_app_bsp//libhal_bsp.a(alt_fstat.o)
 .debug_info    0x000000000001d94c      0x484 /data/workspace/ES/lab03/software/camera_app_bsp//libhal_bsp.a(alt_isatty.o)
 .debug_info    0x000000000001ddd0      0x13e /data/workspace/ES/lab03/software/camera_app_bsp//libhal_bsp.a(alt_load.o)
 .debug_info    0x000000000001df0e      0x34b /data/workspace/ES/lab03/software/camera_app_bsp//libhal_bsp.a(alt_lseek.o)
 .debug_info    0x000000000001e259      0x12a /data/workspace/ES/lab03/software/camera_app_bsp//libhal_bsp.a(alt_main.o)
 .debug_info    0x000000000001e383      0x89f /data/workspace/ES/lab03/software/camera_app_bsp//libhal_bsp.a(alt_malloc_lock.o)
 .debug_info    0x000000000001ec22      0x4a9 /data/workspace/ES/lab03/software/camera_app_bsp//libhal_bsp.a(alt_read.o)
 .debug_info    0x000000000001f0cb      0x2b0 /data/workspace/ES/lab03/software/camera_app_bsp//libhal_bsp.a(alt_release_fd.o)
 .debug_info    0x000000000001f37b      0x1a5 /data/workspace/ES/lab03/software/camera_app_bsp//libhal_bsp.a(alt_sbrk.o)
 .debug_info    0x000000000001f520       0xa9 /data/workspace/ES/lab03/software/camera_app_bsp//libhal_bsp.a(alt_usleep.o)
 .debug_info    0x000000000001f5c9      0x4b0 /data/workspace/ES/lab03/software/camera_app_bsp//libhal_bsp.a(alt_write.o)
 .debug_info    0x000000000001fa79      0x4bc /data/workspace/ES/lab03/software/camera_app_bsp//libhal_bsp.a(alt_sys_init.o)
 .debug_info    0x000000000001ff35      0x527 /data/workspace/ES/lab03/software/camera_app_bsp//libhal_bsp.a(altera_avalon_jtag_uart_fd.o)
 .debug_info    0x000000000002045c      0x3a1 /data/workspace/ES/lab03/software/camera_app_bsp//libhal_bsp.a(altera_avalon_jtag_uart_init.o)
 .debug_info    0x00000000000207fd      0x279 /data/workspace/ES/lab03/software/camera_app_bsp//libhal_bsp.a(altera_avalon_jtag_uart_ioctl.o)
 .debug_info    0x0000000000020a76      0x342 /data/workspace/ES/lab03/software/camera_app_bsp//libhal_bsp.a(altera_avalon_jtag_uart_read.o)
 .debug_info    0x0000000000020db8      0x339 /data/workspace/ES/lab03/software/camera_app_bsp//libhal_bsp.a(altera_avalon_jtag_uart_write.o)
 .debug_info    0x00000000000210f1      0x2c5 /data/workspace/ES/lab03/software/camera_app_bsp//libhal_bsp.a(alt_alarm_start.o)
 .debug_info    0x00000000000213b6       0xd0 /data/workspace/ES/lab03/software/camera_app_bsp//libhal_bsp.a(alt_busy_sleep.o)
 .debug_info    0x0000000000021486       0x8b /data/workspace/ES/lab03/software/camera_app_bsp//libhal_bsp.a(alt_dcache_flush_all.o)
 .debug_info    0x0000000000021511      0x1a2 /data/workspace/ES/lab03/software/camera_app_bsp//libhal_bsp.a(alt_dev_llist_insert.o)
 .debug_info    0x00000000000216b3       0x83 /data/workspace/ES/lab03/software/camera_app_bsp//libhal_bsp.a(alt_do_ctors.o)
 .debug_info    0x0000000000021736       0x83 /data/workspace/ES/lab03/software/camera_app_bsp//libhal_bsp.a(alt_do_dtors.o)
 .debug_info    0x00000000000217b9       0x8b /data/workspace/ES/lab03/software/camera_app_bsp//libhal_bsp.a(alt_icache_flush_all.o)
 .debug_info    0x0000000000021844      0x349 /data/workspace/ES/lab03/software/camera_app_bsp//libhal_bsp.a(alt_iic.o)
 .debug_info    0x0000000000021b8d      0x1e8 /data/workspace/ES/lab03/software/camera_app_bsp//libhal_bsp.a(alt_iic_isr_register.o)
 .debug_info    0x0000000000021d75      0x49e /data/workspace/ES/lab03/software/camera_app_bsp//libhal_bsp.a(alt_io_redirect.o)
 .debug_info    0x0000000000022213       0x6e /data/workspace/ES/lab03/software/camera_app_bsp//libhal_bsp.a(alt_irq_entry.o)
 .debug_info    0x0000000000022281      0x180 /data/workspace/ES/lab03/software/camera_app_bsp//libhal_bsp.a(alt_irq_handler.o)
 .debug_info    0x0000000000022401       0x88 /data/workspace/ES/lab03/software/camera_app_bsp//libhal_bsp.a(alt_irq_vars.o)
 .debug_info    0x0000000000022489      0x3b4 /data/workspace/ES/lab03/software/camera_app_bsp//libhal_bsp.a(alt_open.o)
 .debug_info    0x000000000002283d      0x292 /data/workspace/ES/lab03/software/camera_app_bsp//libhal_bsp.a(alt_tick.o)
 .debug_info    0x0000000000022acf       0x8b /data/workspace/ES/lab03/software/camera_app_bsp//libhal_bsp.a(altera_nios2_qsys_irq.o)
 .debug_info    0x0000000000022b5a       0x74 /data/workspace/ES/lab03/software/camera_app_bsp//libhal_bsp.a(alt_exception_entry.o)
 .debug_info    0x0000000000022bce      0x2e2 /data/workspace/ES/lab03/software/camera_app_bsp//libhal_bsp.a(alt_find_dev.o)
 .debug_info    0x0000000000022eb0      0x2df /data/workspace/ES/lab03/software/camera_app_bsp//libhal_bsp.a(alt_find_file.o)
 .debug_info    0x000000000002318f      0x309 /data/workspace/ES/lab03/software/camera_app_bsp//libhal_bsp.a(alt_get_fd.o)
 .debug_info    0x0000000000023498       0xd5 /data/workspace/ES/lab03/software/camera_app_bsp//libhal_bsp.a(alt_icache_flush.o)
 .debug_info    0x000000000002356d      0x10a /home/hadrien/altera/15.0/nios2eds/bin/gnu/H-x86_64-pc-linux-gnu/bin/../lib/gcc/nios2-elf/4.9.1/../../../../../H-x86_64-pc-linux-gnu/nios2-elf/lib/libc.a(lib_a-atexit.o)
 .debug_info    0x0000000000023677      0x8df /home/hadrien/altera/15.0/nios2eds/bin/gnu/H-x86_64-pc-linux-gnu/bin/../lib/gcc/nios2-elf/4.9.1/../../../../../H-x86_64-pc-linux-gnu/nios2-elf/lib/libc.a(lib_a-exit.o)
 .debug_info    0x0000000000023f56      0x113 /home/hadrien/altera/15.0/nios2eds/bin/gnu/H-x86_64-pc-linux-gnu/bin/../lib/gcc/nios2-elf/4.9.1/../../../../../H-x86_64-pc-linux-gnu/nios2-elf/lib/libc.a(lib_a-memcmp.o)
 .debug_info    0x0000000000024069      0x93b /home/hadrien/altera/15.0/nios2eds/bin/gnu/H-x86_64-pc-linux-gnu/bin/../lib/gcc/nios2-elf/4.9.1/../../../../../H-x86_64-pc-linux-gnu/nios2-elf/lib/libc.a(lib_a-__atexit.o)
 .debug_info    0x00000000000249a4      0x948 /home/hadrien/altera/15.0/nios2eds/bin/gnu/H-x86_64-pc-linux-gnu/bin/../lib/gcc/nios2-elf/4.9.1/../../../../../H-x86_64-pc-linux-gnu/nios2-elf/lib/libc.a(lib_a-__call_atexit.o)
 .debug_info    0x00000000000252ec       0xe5 /data/workspace/ES/lab03/software/camera_app_bsp//libhal_bsp.a(alt_exit.o)

.debug_abbrev   0x0000000000000000     0x94eb
 *(.debug_abbrev)
 .debug_abbrev  0x0000000000000000       0x12 /data/workspace/ES/lab03/software/camera_app_bsp//obj/HAL/src/crt0.o
 .debug_abbrev  0x0000000000000012      0x256 obj/default/hello_world.o
 .debug_abbrev  0x0000000000000268      0x180 obj/default/i2c/i2c.o
 .debug_abbrev  0x00000000000003e8       0xd9 /home/hadrien/altera/15.0/nios2eds/bin/gnu/H-x86_64-pc-linux-gnu/bin/../lib/gcc/nios2-elf/4.9.1/libgcc.a(lib2-divmod.o)
 .debug_abbrev  0x00000000000004c1      0x1dc /home/hadrien/altera/15.0/nios2eds/bin/gnu/H-x86_64-pc-linux-gnu/bin/../lib/gcc/nios2-elf/4.9.1/../../../../../H-x86_64-pc-linux-gnu/nios2-elf/lib/libc.a(lib_a-calloc.o)
 .debug_abbrev  0x000000000000069d      0x213 /home/hadrien/altera/15.0/nios2eds/bin/gnu/H-x86_64-pc-linux-gnu/bin/../lib/gcc/nios2-elf/4.9.1/../../../../../H-x86_64-pc-linux-gnu/nios2-elf/lib/libc.a(lib_a-callocr.o)
 .debug_abbrev  0x00000000000008b0      0x180 /home/hadrien/altera/15.0/nios2eds/bin/gnu/H-x86_64-pc-linux-gnu/bin/../lib/gcc/nios2-elf/4.9.1/../../../../../H-x86_64-pc-linux-gnu/nios2-elf/lib/libc.a(lib_a-impure.o)
 .debug_abbrev  0x0000000000000a30      0x2ad /home/hadrien/altera/15.0/nios2eds/bin/gnu/H-x86_64-pc-linux-gnu/bin/../lib/gcc/nios2-elf/4.9.1/../../../../../H-x86_64-pc-linux-gnu/nios2-elf/lib/libc.a(lib_a-mallocr.o)
 .debug_abbrev  0x0000000000000cdd       0xae /home/hadrien/altera/15.0/nios2eds/bin/gnu/H-x86_64-pc-linux-gnu/bin/../lib/gcc/nios2-elf/4.9.1/../../../../../H-x86_64-pc-linux-gnu/nios2-elf/lib/libc.a(lib_a-memset.o)
 .debug_abbrev  0x0000000000000d8b      0x234 /home/hadrien/altera/15.0/nios2eds/bin/gnu/H-x86_64-pc-linux-gnu/bin/../lib/gcc/nios2-elf/4.9.1/../../../../../H-x86_64-pc-linux-gnu/nios2-elf/lib/libc.a(lib_a-printf.o)
 .debug_abbrev  0x0000000000000fbf      0x226 /home/hadrien/altera/15.0/nios2eds/bin/gnu/H-x86_64-pc-linux-gnu/bin/../lib/gcc/nios2-elf/4.9.1/../../../../../H-x86_64-pc-linux-gnu/nios2-elf/lib/libc.a(lib_a-putc.o)
 .debug_abbrev  0x00000000000011e5      0x226 /home/hadrien/altera/15.0/nios2eds/bin/gnu/H-x86_64-pc-linux-gnu/bin/../lib/gcc/nios2-elf/4.9.1/../../../../../H-x86_64-pc-linux-gnu/nios2-elf/lib/libc.a(lib_a-puts.o)
 .debug_abbrev  0x000000000000140b      0x1fd /home/hadrien/altera/15.0/nios2eds/bin/gnu/H-x86_64-pc-linux-gnu/bin/../lib/gcc/nios2-elf/4.9.1/../../../../../H-x86_64-pc-linux-gnu/nios2-elf/lib/libc.a(lib_a-sbrkr.o)
 .debug_abbrev  0x0000000000001608       0x90 /home/hadrien/altera/15.0/nios2eds/bin/gnu/H-x86_64-pc-linux-gnu/bin/../lib/gcc/nios2-elf/4.9.1/../../../../../H-x86_64-pc-linux-gnu/nios2-elf/lib/libc.a(lib_a-strlen.o)
 .debug_abbrev  0x0000000000001698      0x3c2 /home/hadrien/altera/15.0/nios2eds/bin/gnu/H-x86_64-pc-linux-gnu/bin/../lib/gcc/nios2-elf/4.9.1/../../../../../H-x86_64-pc-linux-gnu/nios2-elf/lib/libc.a(lib_a-vfprintf.o)
 .debug_abbrev  0x0000000000001a5a      0x238 /home/hadrien/altera/15.0/nios2eds/bin/gnu/H-x86_64-pc-linux-gnu/bin/../lib/gcc/nios2-elf/4.9.1/../../../../../H-x86_64-pc-linux-gnu/nios2-elf/lib/libc.a(lib_a-wbuf.o)
 .debug_abbrev  0x0000000000001c92      0x1f3 /home/hadrien/altera/15.0/nios2eds/bin/gnu/H-x86_64-pc-linux-gnu/bin/../lib/gcc/nios2-elf/4.9.1/../../../../../H-x86_64-pc-linux-gnu/nios2-elf/lib/libc.a(lib_a-wsetup.o)
 .debug_abbrev  0x0000000000001e85      0x2c9 /home/hadrien/altera/15.0/nios2eds/bin/gnu/H-x86_64-pc-linux-gnu/bin/../lib/gcc/nios2-elf/4.9.1/../../../../../H-x86_64-pc-linux-gnu/nios2-elf/lib/libc.a(lib_a-dtoa.o)
 .debug_abbrev  0x000000000000214e      0x275 /home/hadrien/altera/15.0/nios2eds/bin/gnu/H-x86_64-pc-linux-gnu/bin/../lib/gcc/nios2-elf/4.9.1/../../../../../H-x86_64-pc-linux-gnu/nios2-elf/lib/libc.a(lib_a-fflush.o)
 .debug_abbrev  0x00000000000023c3      0x36b /home/hadrien/altera/15.0/nios2eds/bin/gnu/H-x86_64-pc-linux-gnu/bin/../lib/gcc/nios2-elf/4.9.1/../../../../../H-x86_64-pc-linux-gnu/nios2-elf/lib/libc.a(lib_a-findfp.o)
 .debug_abbrev  0x000000000000272e      0x27b /home/hadrien/altera/15.0/nios2eds/bin/gnu/H-x86_64-pc-linux-gnu/bin/../lib/gcc/nios2-elf/4.9.1/../../../../../H-x86_64-pc-linux-gnu/nios2-elf/lib/libc.a(lib_a-freer.o)
 .debug_abbrev  0x00000000000029a9      0x252 /home/hadrien/altera/15.0/nios2eds/bin/gnu/H-x86_64-pc-linux-gnu/bin/../lib/gcc/nios2-elf/4.9.1/../../../../../H-x86_64-pc-linux-gnu/nios2-elf/lib/libc.a(lib_a-fvwrite.o)
 .debug_abbrev  0x0000000000002bfb      0x242 /home/hadrien/altera/15.0/nios2eds/bin/gnu/H-x86_64-pc-linux-gnu/bin/../lib/gcc/nios2-elf/4.9.1/../../../../../H-x86_64-pc-linux-gnu/nios2-elf/lib/libc.a(lib_a-fwalk.o)
 .debug_abbrev  0x0000000000002e3d       0x37 /home/hadrien/altera/15.0/nios2eds/bin/gnu/H-x86_64-pc-linux-gnu/bin/../lib/gcc/nios2-elf/4.9.1/../../../../../H-x86_64-pc-linux-gnu/nios2-elf/lib/libc.a(lib_a-int_errno.o)
 .debug_abbrev  0x0000000000002e74      0x2b3 /home/hadrien/altera/15.0/nios2eds/bin/gnu/H-x86_64-pc-linux-gnu/bin/../lib/gcc/nios2-elf/4.9.1/../../../../../H-x86_64-pc-linux-gnu/nios2-elf/lib/libc.a(lib_a-locale.o)
 .debug_abbrev  0x0000000000003127      0x206 /home/hadrien/altera/15.0/nios2eds/bin/gnu/H-x86_64-pc-linux-gnu/bin/../lib/gcc/nios2-elf/4.9.1/../../../../../H-x86_64-pc-linux-gnu/nios2-elf/lib/libc.a(lib_a-makebuf.o)
 .debug_abbrev  0x000000000000332d       0xab /home/hadrien/altera/15.0/nios2eds/bin/gnu/H-x86_64-pc-linux-gnu/bin/../lib/gcc/nios2-elf/4.9.1/../../../../../H-x86_64-pc-linux-gnu/nios2-elf/lib/libc.a(lib_a-memchr.o)
 .debug_abbrev  0x00000000000033d8       0x9c /home/hadrien/altera/15.0/nios2eds/bin/gnu/H-x86_64-pc-linux-gnu/bin/../lib/gcc/nios2-elf/4.9.1/../../../../../H-x86_64-pc-linux-gnu/nios2-elf/lib/libc.a(lib_a-memcpy.o)
 .debug_abbrev  0x0000000000003474       0x9c /home/hadrien/altera/15.0/nios2eds/bin/gnu/H-x86_64-pc-linux-gnu/bin/../lib/gcc/nios2-elf/4.9.1/../../../../../H-x86_64-pc-linux-gnu/nios2-elf/lib/libc.a(lib_a-memmove.o)
 .debug_abbrev  0x0000000000003510      0x3c2 /home/hadrien/altera/15.0/nios2eds/bin/gnu/H-x86_64-pc-linux-gnu/bin/../lib/gcc/nios2-elf/4.9.1/../../../../../H-x86_64-pc-linux-gnu/nios2-elf/lib/libc.a(lib_a-mprec.o)
 .debug_abbrev  0x00000000000038d2      0x269 /home/hadrien/altera/15.0/nios2eds/bin/gnu/H-x86_64-pc-linux-gnu/bin/../lib/gcc/nios2-elf/4.9.1/../../../../../H-x86_64-pc-linux-gnu/nios2-elf/lib/libc.a(lib_a-reallocr.o)
 .debug_abbrev  0x0000000000003b3b       0x7e /home/hadrien/altera/15.0/nios2eds/bin/gnu/H-x86_64-pc-linux-gnu/bin/../lib/gcc/nios2-elf/4.9.1/../../../../../H-x86_64-pc-linux-gnu/nios2-elf/lib/libc.a(lib_a-s_fpclassify.o)
 .debug_abbrev  0x0000000000003bb9      0x246 /home/hadrien/altera/15.0/nios2eds/bin/gnu/H-x86_64-pc-linux-gnu/bin/../lib/gcc/nios2-elf/4.9.1/../../../../../H-x86_64-pc-linux-gnu/nios2-elf/lib/libc.a(lib_a-stdio.o)
 .debug_abbrev  0x0000000000003dff       0x74 /home/hadrien/altera/15.0/nios2eds/bin/gnu/H-x86_64-pc-linux-gnu/bin/../lib/gcc/nios2-elf/4.9.1/../../../../../H-x86_64-pc-linux-gnu/nios2-elf/lib/libc.a(lib_a-strcmp.o)
 .debug_abbrev  0x0000000000003e73      0x3f8 /home/hadrien/altera/15.0/nios2eds/bin/gnu/H-x86_64-pc-linux-gnu/bin/../lib/gcc/nios2-elf/4.9.1/../../../../../H-x86_64-pc-linux-gnu/nios2-elf/lib/libc.a(lib_a-vfiprintf.o)
 .debug_abbrev  0x000000000000426b      0x1de /home/hadrien/altera/15.0/nios2eds/bin/gnu/H-x86_64-pc-linux-gnu/bin/../lib/gcc/nios2-elf/4.9.1/../../../../../H-x86_64-pc-linux-gnu/nios2-elf/lib/libc.a(lib_a-writer.o)
 .debug_abbrev  0x0000000000004449      0x1d9 /home/hadrien/altera/15.0/nios2eds/bin/gnu/H-x86_64-pc-linux-gnu/bin/../lib/gcc/nios2-elf/4.9.1/../../../../../H-x86_64-pc-linux-gnu/nios2-elf/lib/libc.a(closer.o)
 .debug_abbrev  0x0000000000004622      0x2a9 /home/hadrien/altera/15.0/nios2eds/bin/gnu/H-x86_64-pc-linux-gnu/bin/../lib/gcc/nios2-elf/4.9.1/../../../../../H-x86_64-pc-linux-gnu/nios2-elf/lib/libc.a(lib_a-fclose.o)
 .debug_abbrev  0x00000000000048cb      0x289 /home/hadrien/altera/15.0/nios2eds/bin/gnu/H-x86_64-pc-linux-gnu/bin/../lib/gcc/nios2-elf/4.9.1/../../../../../H-x86_64-pc-linux-gnu/nios2-elf/lib/libc.a(lib_a-fputwc.o)
 .debug_abbrev  0x0000000000004b54      0x1e8 /home/hadrien/altera/15.0/nios2eds/bin/gnu/H-x86_64-pc-linux-gnu/bin/../lib/gcc/nios2-elf/4.9.1/../../../../../H-x86_64-pc-linux-gnu/nios2-elf/lib/libc.a(lib_a-fstatr.o)
 .debug_abbrev  0x0000000000004d3c      0x1d9 /home/hadrien/altera/15.0/nios2eds/bin/gnu/H-x86_64-pc-linux-gnu/bin/../lib/gcc/nios2-elf/4.9.1/../../../../../H-x86_64-pc-linux-gnu/nios2-elf/lib/libc.a(lib_a-isattyr.o)
 .debug_abbrev  0x0000000000004f15      0x1e8 /home/hadrien/altera/15.0/nios2eds/bin/gnu/H-x86_64-pc-linux-gnu/bin/../lib/gcc/nios2-elf/4.9.1/../../../../../H-x86_64-pc-linux-gnu/nios2-elf/lib/libc.a(lib_a-lseekr.o)
 .debug_abbrev  0x00000000000050fd      0x1d9 /home/hadrien/altera/15.0/nios2eds/bin/gnu/H-x86_64-pc-linux-gnu/bin/../lib/gcc/nios2-elf/4.9.1/../../../../../H-x86_64-pc-linux-gnu/nios2-elf/lib/libc.a(lib_a-readr.o)
 .debug_abbrev  0x00000000000052d6      0x21c /home/hadrien/altera/15.0/nios2eds/bin/gnu/H-x86_64-pc-linux-gnu/bin/../lib/gcc/nios2-elf/4.9.1/../../../../../H-x86_64-pc-linux-gnu/nios2-elf/lib/libc.a(lib_a-wcrtomb.o)
 .debug_abbrev  0x00000000000054f2      0x212 /home/hadrien/altera/15.0/nios2eds/bin/gnu/H-x86_64-pc-linux-gnu/bin/../lib/gcc/nios2-elf/4.9.1/../../../../../H-x86_64-pc-linux-gnu/nios2-elf/lib/libc.a(lib_a-wctomb_r.o)
 .debug_abbrev  0x0000000000005704      0x170 /home/hadrien/altera/15.0/nios2eds/bin/gnu/H-x86_64-pc-linux-gnu/bin/../lib/gcc/nios2-elf/4.9.1/libgcc.a(_udivdi3.o)
 .debug_abbrev  0x0000000000005874      0x193 /home/hadrien/altera/15.0/nios2eds/bin/gnu/H-x86_64-pc-linux-gnu/bin/../lib/gcc/nios2-elf/4.9.1/libgcc.a(_umoddi3.o)
 .debug_abbrev  0x0000000000005a07      0x13a /home/hadrien/altera/15.0/nios2eds/bin/gnu/H-x86_64-pc-linux-gnu/bin/../lib/gcc/nios2-elf/4.9.1/libgcc.a(adddf3.o)
 .debug_abbrev  0x0000000000005b41      0x120 /home/hadrien/altera/15.0/nios2eds/bin/gnu/H-x86_64-pc-linux-gnu/bin/../lib/gcc/nios2-elf/4.9.1/libgcc.a(divdf3.o)
 .debug_abbrev  0x0000000000005c61      0x128 /home/hadrien/altera/15.0/nios2eds/bin/gnu/H-x86_64-pc-linux-gnu/bin/../lib/gcc/nios2-elf/4.9.1/libgcc.a(eqdf2.o)
 .debug_abbrev  0x0000000000005d89      0x137 /home/hadrien/altera/15.0/nios2eds/bin/gnu/H-x86_64-pc-linux-gnu/bin/../lib/gcc/nios2-elf/4.9.1/libgcc.a(gedf2.o)
 .debug_abbrev  0x0000000000005ec0      0x137 /home/hadrien/altera/15.0/nios2eds/bin/gnu/H-x86_64-pc-linux-gnu/bin/../lib/gcc/nios2-elf/4.9.1/libgcc.a(ledf2.o)
 .debug_abbrev  0x0000000000005ff7      0x132 /home/hadrien/altera/15.0/nios2eds/bin/gnu/H-x86_64-pc-linux-gnu/bin/../lib/gcc/nios2-elf/4.9.1/libgcc.a(muldf3.o)
 .debug_abbrev  0x0000000000006129      0x133 /home/hadrien/altera/15.0/nios2eds/bin/gnu/H-x86_64-pc-linux-gnu/bin/../lib/gcc/nios2-elf/4.9.1/libgcc.a(subdf3.o)
 .debug_abbrev  0x000000000000625c      0x119 /home/hadrien/altera/15.0/nios2eds/bin/gnu/H-x86_64-pc-linux-gnu/bin/../lib/gcc/nios2-elf/4.9.1/libgcc.a(fixdfsi.o)
 .debug_abbrev  0x0000000000006375      0x11e /home/hadrien/altera/15.0/nios2eds/bin/gnu/H-x86_64-pc-linux-gnu/bin/../lib/gcc/nios2-elf/4.9.1/libgcc.a(floatsidf.o)
 .debug_abbrev  0x0000000000006493      0x117 /home/hadrien/altera/15.0/nios2eds/bin/gnu/H-x86_64-pc-linux-gnu/bin/../lib/gcc/nios2-elf/4.9.1/libgcc.a(floatunsidf.o)
 .debug_abbrev  0x00000000000065aa       0x5d /home/hadrien/altera/15.0/nios2eds/bin/gnu/H-x86_64-pc-linux-gnu/bin/../lib/gcc/nios2-elf/4.9.1/libgcc.a(_clz.o)
 .debug_abbrev  0x0000000000006607       0xbe /home/hadrien/altera/15.0/nios2eds/bin/gnu/H-x86_64-pc-linux-gnu/bin/../lib/gcc/nios2-elf/4.9.1/libgcc.a(_clzsi2.o)
 .debug_abbrev  0x00000000000066c5      0x11f /data/workspace/ES/lab03/software/camera_app_bsp//libhal_bsp.a(alt_close.o)
 .debug_abbrev  0x00000000000067e4       0xd9 /data/workspace/ES/lab03/software/camera_app_bsp//libhal_bsp.a(alt_dev.o)
 .debug_abbrev  0x00000000000068bd       0x5a /data/workspace/ES/lab03/software/camera_app_bsp//libhal_bsp.a(alt_errno.o)
 .debug_abbrev  0x0000000000006917      0x11f /data/workspace/ES/lab03/software/camera_app_bsp//libhal_bsp.a(alt_fstat.o)
 .debug_abbrev  0x0000000000006a36      0x11f /data/workspace/ES/lab03/software/camera_app_bsp//libhal_bsp.a(alt_isatty.o)
 .debug_abbrev  0x0000000000006b55       0x9f /data/workspace/ES/lab03/software/camera_app_bsp//libhal_bsp.a(alt_load.o)
 .debug_abbrev  0x0000000000006bf4      0x11f /data/workspace/ES/lab03/software/camera_app_bsp//libhal_bsp.a(alt_lseek.o)
 .debug_abbrev  0x0000000000006d13       0xba /data/workspace/ES/lab03/software/camera_app_bsp//libhal_bsp.a(alt_main.o)
 .debug_abbrev  0x0000000000006dcd      0x1a5 /data/workspace/ES/lab03/software/camera_app_bsp//libhal_bsp.a(alt_malloc_lock.o)
 .debug_abbrev  0x0000000000006f72      0x12e /data/workspace/ES/lab03/software/camera_app_bsp//libhal_bsp.a(alt_read.o)
 .debug_abbrev  0x00000000000070a0       0xde /data/workspace/ES/lab03/software/camera_app_bsp//libhal_bsp.a(alt_release_fd.o)
 .debug_abbrev  0x000000000000717e      0x112 /data/workspace/ES/lab03/software/camera_app_bsp//libhal_bsp.a(alt_sbrk.o)
 .debug_abbrev  0x0000000000007290       0x60 /data/workspace/ES/lab03/software/camera_app_bsp//libhal_bsp.a(alt_usleep.o)
 .debug_abbrev  0x00000000000072f0      0x133 /data/workspace/ES/lab03/software/camera_app_bsp//libhal_bsp.a(alt_write.o)
 .debug_abbrev  0x0000000000007423      0x187 /data/workspace/ES/lab03/software/camera_app_bsp//libhal_bsp.a(alt_sys_init.o)
 .debug_abbrev  0x00000000000075aa      0x127 /data/workspace/ES/lab03/software/camera_app_bsp//libhal_bsp.a(altera_avalon_jtag_uart_fd.o)
 .debug_abbrev  0x00000000000076d1      0x197 /data/workspace/ES/lab03/software/camera_app_bsp//libhal_bsp.a(altera_avalon_jtag_uart_init.o)
 .debug_abbrev  0x0000000000007868      0x111 /data/workspace/ES/lab03/software/camera_app_bsp//libhal_bsp.a(altera_avalon_jtag_uart_ioctl.o)
 .debug_abbrev  0x0000000000007979      0x1ac /data/workspace/ES/lab03/software/camera_app_bsp//libhal_bsp.a(altera_avalon_jtag_uart_read.o)
 .debug_abbrev  0x0000000000007b25      0x1a8 /data/workspace/ES/lab03/software/camera_app_bsp//libhal_bsp.a(altera_avalon_jtag_uart_write.o)
 .debug_abbrev  0x0000000000007ccd      0x162 /data/workspace/ES/lab03/software/camera_app_bsp//libhal_bsp.a(alt_alarm_start.o)
 .debug_abbrev  0x0000000000007e2f       0x7e /data/workspace/ES/lab03/software/camera_app_bsp//libhal_bsp.a(alt_busy_sleep.o)
 .debug_abbrev  0x0000000000007ead       0x42 /data/workspace/ES/lab03/software/camera_app_bsp//libhal_bsp.a(alt_dcache_flush_all.o)
 .debug_abbrev  0x0000000000007eef      0x114 /data/workspace/ES/lab03/software/camera_app_bsp//libhal_bsp.a(alt_dev_llist_insert.o)
 .debug_abbrev  0x0000000000008003       0x79 /data/workspace/ES/lab03/software/camera_app_bsp//libhal_bsp.a(alt_do_ctors.o)
 .debug_abbrev  0x000000000000807c       0x79 /data/workspace/ES/lab03/software/camera_app_bsp//libhal_bsp.a(alt_do_dtors.o)
 .debug_abbrev  0x00000000000080f5       0x42 /data/workspace/ES/lab03/software/camera_app_bsp//libhal_bsp.a(alt_icache_flush_all.o)
 .debug_abbrev  0x0000000000008137      0x163 /data/workspace/ES/lab03/software/camera_app_bsp//libhal_bsp.a(alt_iic.o)
 .debug_abbrev  0x000000000000829a      0x169 /data/workspace/ES/lab03/software/camera_app_bsp//libhal_bsp.a(alt_iic_isr_register.o)
 .debug_abbrev  0x0000000000008403      0x114 /data/workspace/ES/lab03/software/camera_app_bsp//libhal_bsp.a(alt_io_redirect.o)
 .debug_abbrev  0x0000000000008517       0x12 /data/workspace/ES/lab03/software/camera_app_bsp//libhal_bsp.a(alt_irq_entry.o)
 .debug_abbrev  0x0000000000008529      0x122 /data/workspace/ES/lab03/software/camera_app_bsp//libhal_bsp.a(alt_irq_handler.o)
 .debug_abbrev  0x000000000000864b       0x40 /data/workspace/ES/lab03/software/camera_app_bsp//libhal_bsp.a(alt_irq_vars.o)
 .debug_abbrev  0x000000000000868b      0x148 /data/workspace/ES/lab03/software/camera_app_bsp//libhal_bsp.a(alt_open.o)
 .debug_abbrev  0x00000000000087d3      0x15a /data/workspace/ES/lab03/software/camera_app_bsp//libhal_bsp.a(alt_tick.o)
 .debug_abbrev  0x000000000000892d       0x42 /data/workspace/ES/lab03/software/camera_app_bsp//libhal_bsp.a(altera_nios2_qsys_irq.o)
 .debug_abbrev  0x000000000000896f       0x12 /data/workspace/ES/lab03/software/camera_app_bsp//libhal_bsp.a(alt_exception_entry.o)
 .debug_abbrev  0x0000000000008981       0xf0 /data/workspace/ES/lab03/software/camera_app_bsp//libhal_bsp.a(alt_find_dev.o)
 .debug_abbrev  0x0000000000008a71       0xf0 /data/workspace/ES/lab03/software/camera_app_bsp//libhal_bsp.a(alt_find_file.o)
 .debug_abbrev  0x0000000000008b61      0x10d /data/workspace/ES/lab03/software/camera_app_bsp//libhal_bsp.a(alt_get_fd.o)
 .debug_abbrev  0x0000000000008c6e       0x8c /data/workspace/ES/lab03/software/camera_app_bsp//libhal_bsp.a(alt_icache_flush.o)
 .debug_abbrev  0x0000000000008cfa       0xb8 /home/hadrien/altera/15.0/nios2eds/bin/gnu/H-x86_64-pc-linux-gnu/bin/../lib/gcc/nios2-elf/4.9.1/../../../../../H-x86_64-pc-linux-gnu/nios2-elf/lib/libc.a(lib_a-atexit.o)
 .debug_abbrev  0x0000000000008db2      0x1e6 /home/hadrien/altera/15.0/nios2eds/bin/gnu/H-x86_64-pc-linux-gnu/bin/../lib/gcc/nios2-elf/4.9.1/../../../../../H-x86_64-pc-linux-gnu/nios2-elf/lib/libc.a(lib_a-exit.o)
 .debug_abbrev  0x0000000000008f98       0x7f /home/hadrien/altera/15.0/nios2eds/bin/gnu/H-x86_64-pc-linux-gnu/bin/../lib/gcc/nios2-elf/4.9.1/../../../../../H-x86_64-pc-linux-gnu/nios2-elf/lib/libc.a(lib_a-memcmp.o)
 .debug_abbrev  0x0000000000009017      0x21e /home/hadrien/altera/15.0/nios2eds/bin/gnu/H-x86_64-pc-linux-gnu/bin/../lib/gcc/nios2-elf/4.9.1/../../../../../H-x86_64-pc-linux-gnu/nios2-elf/lib/libc.a(lib_a-__atexit.o)
 .debug_abbrev  0x0000000000009235      0x210 /home/hadrien/altera/15.0/nios2eds/bin/gnu/H-x86_64-pc-linux-gnu/bin/../lib/gcc/nios2-elf/4.9.1/../../../../../H-x86_64-pc-linux-gnu/nios2-elf/lib/libc.a(lib_a-__call_atexit.o)
 .debug_abbrev  0x0000000000009445       0xa6 /data/workspace/ES/lab03/software/camera_app_bsp//libhal_bsp.a(alt_exit.o)

.debug_line     0x0000000000000000     0xb5f3
 *(.debug_line)
 .debug_line    0x0000000000000000       0x6c /data/workspace/ES/lab03/software/camera_app_bsp//obj/HAL/src/crt0.o
 .debug_line    0x000000000000006c      0x303 obj/default/hello_world.o
 .debug_line    0x000000000000036f      0x1ca obj/default/i2c/i2c.o
 .debug_line    0x0000000000000539       0xc4 /home/hadrien/altera/15.0/nios2eds/bin/gnu/H-x86_64-pc-linux-gnu/bin/../lib/gcc/nios2-elf/4.9.1/libgcc.a(lib2-divmod.o)
 .debug_line    0x00000000000005fd      0x1e3 /home/hadrien/altera/15.0/nios2eds/bin/gnu/H-x86_64-pc-linux-gnu/bin/../lib/gcc/nios2-elf/4.9.1/../../../../../H-x86_64-pc-linux-gnu/nios2-elf/lib/libc.a(lib_a-calloc.o)
 .debug_line    0x00000000000007e0      0x1b6 /home/hadrien/altera/15.0/nios2eds/bin/gnu/H-x86_64-pc-linux-gnu/bin/../lib/gcc/nios2-elf/4.9.1/../../../../../H-x86_64-pc-linux-gnu/nios2-elf/lib/libc.a(lib_a-callocr.o)
 .debug_line    0x0000000000000996      0x15f /home/hadrien/altera/15.0/nios2eds/bin/gnu/H-x86_64-pc-linux-gnu/bin/../lib/gcc/nios2-elf/4.9.1/../../../../../H-x86_64-pc-linux-gnu/nios2-elf/lib/libc.a(lib_a-impure.o)
 .debug_line    0x0000000000000af5      0x3fd /home/hadrien/altera/15.0/nios2eds/bin/gnu/H-x86_64-pc-linux-gnu/bin/../lib/gcc/nios2-elf/4.9.1/../../../../../H-x86_64-pc-linux-gnu/nios2-elf/lib/libc.a(lib_a-mallocr.o)
 .debug_line    0x0000000000000ef2      0x18e /home/hadrien/altera/15.0/nios2eds/bin/gnu/H-x86_64-pc-linux-gnu/bin/../lib/gcc/nios2-elf/4.9.1/../../../../../H-x86_64-pc-linux-gnu/nios2-elf/lib/libc.a(lib_a-memset.o)
 .debug_line    0x0000000000001080      0x1fd /home/hadrien/altera/15.0/nios2eds/bin/gnu/H-x86_64-pc-linux-gnu/bin/../lib/gcc/nios2-elf/4.9.1/../../../../../H-x86_64-pc-linux-gnu/nios2-elf/lib/libc.a(lib_a-printf.o)
 .debug_line    0x000000000000127d      0x267 /home/hadrien/altera/15.0/nios2eds/bin/gnu/H-x86_64-pc-linux-gnu/bin/../lib/gcc/nios2-elf/4.9.1/../../../../../H-x86_64-pc-linux-gnu/nios2-elf/lib/libc.a(lib_a-putc.o)
 .debug_line    0x00000000000014e4      0x223 /home/hadrien/altera/15.0/nios2eds/bin/gnu/H-x86_64-pc-linux-gnu/bin/../lib/gcc/nios2-elf/4.9.1/../../../../../H-x86_64-pc-linux-gnu/nios2-elf/lib/libc.a(lib_a-puts.o)
 .debug_line    0x0000000000001707      0x1e9 /home/hadrien/altera/15.0/nios2eds/bin/gnu/H-x86_64-pc-linux-gnu/bin/../lib/gcc/nios2-elf/4.9.1/../../../../../H-x86_64-pc-linux-gnu/nios2-elf/lib/libc.a(lib_a-sbrkr.o)
 .debug_line    0x00000000000018f0      0x16e /home/hadrien/altera/15.0/nios2eds/bin/gnu/H-x86_64-pc-linux-gnu/bin/../lib/gcc/nios2-elf/4.9.1/../../../../../H-x86_64-pc-linux-gnu/nios2-elf/lib/libc.a(lib_a-strlen.o)
 .debug_line    0x0000000000001a5e      0xaca /home/hadrien/altera/15.0/nios2eds/bin/gnu/H-x86_64-pc-linux-gnu/bin/../lib/gcc/nios2-elf/4.9.1/../../../../../H-x86_64-pc-linux-gnu/nios2-elf/lib/libc.a(lib_a-vfprintf.o)
 .debug_line    0x0000000000002528      0x270 /home/hadrien/altera/15.0/nios2eds/bin/gnu/H-x86_64-pc-linux-gnu/bin/../lib/gcc/nios2-elf/4.9.1/../../../../../H-x86_64-pc-linux-gnu/nios2-elf/lib/libc.a(lib_a-wbuf.o)
 .debug_line    0x0000000000002798      0x258 /home/hadrien/altera/15.0/nios2eds/bin/gnu/H-x86_64-pc-linux-gnu/bin/../lib/gcc/nios2-elf/4.9.1/../../../../../H-x86_64-pc-linux-gnu/nios2-elf/lib/libc.a(lib_a-wsetup.o)
 .debug_line    0x00000000000029f0      0x7eb /home/hadrien/altera/15.0/nios2eds/bin/gnu/H-x86_64-pc-linux-gnu/bin/../lib/gcc/nios2-elf/4.9.1/../../../../../H-x86_64-pc-linux-gnu/nios2-elf/lib/libc.a(lib_a-dtoa.o)
 .debug_line    0x00000000000031db      0x2bd /home/hadrien/altera/15.0/nios2eds/bin/gnu/H-x86_64-pc-linux-gnu/bin/../lib/gcc/nios2-elf/4.9.1/../../../../../H-x86_64-pc-linux-gnu/nios2-elf/lib/libc.a(lib_a-fflush.o)
 .debug_line    0x0000000000003498      0x304 /home/hadrien/altera/15.0/nios2eds/bin/gnu/H-x86_64-pc-linux-gnu/bin/../lib/gcc/nios2-elf/4.9.1/../../../../../H-x86_64-pc-linux-gnu/nios2-elf/lib/libc.a(lib_a-findfp.o)
 .debug_line    0x000000000000379c      0x2e4 /home/hadrien/altera/15.0/nios2eds/bin/gnu/H-x86_64-pc-linux-gnu/bin/../lib/gcc/nios2-elf/4.9.1/../../../../../H-x86_64-pc-linux-gnu/nios2-elf/lib/libc.a(lib_a-freer.o)
 .debug_line    0x0000000000003a80      0x357 /home/hadrien/altera/15.0/nios2eds/bin/gnu/H-x86_64-pc-linux-gnu/bin/../lib/gcc/nios2-elf/4.9.1/../../../../../H-x86_64-pc-linux-gnu/nios2-elf/lib/libc.a(lib_a-fvwrite.o)
 .debug_line    0x0000000000003dd7      0x228 /home/hadrien/altera/15.0/nios2eds/bin/gnu/H-x86_64-pc-linux-gnu/bin/../lib/gcc/nios2-elf/4.9.1/../../../../../H-x86_64-pc-linux-gnu/nios2-elf/lib/libc.a(lib_a-fwalk.o)
 .debug_line    0x0000000000003fff       0x5d /home/hadrien/altera/15.0/nios2eds/bin/gnu/H-x86_64-pc-linux-gnu/bin/../lib/gcc/nios2-elf/4.9.1/../../../../../H-x86_64-pc-linux-gnu/nios2-elf/lib/libc.a(lib_a-int_errno.o)
 .debug_line    0x000000000000405c      0x22d /home/hadrien/altera/15.0/nios2eds/bin/gnu/H-x86_64-pc-linux-gnu/bin/../lib/gcc/nios2-elf/4.9.1/../../../../../H-x86_64-pc-linux-gnu/nios2-elf/lib/libc.a(lib_a-locale.o)
 .debug_line    0x0000000000004289      0x274 /home/hadrien/altera/15.0/nios2eds/bin/gnu/H-x86_64-pc-linux-gnu/bin/../lib/gcc/nios2-elf/4.9.1/../../../../../H-x86_64-pc-linux-gnu/nios2-elf/lib/libc.a(lib_a-makebuf.o)
 .debug_line    0x00000000000044fd      0x18d /home/hadrien/altera/15.0/nios2eds/bin/gnu/H-x86_64-pc-linux-gnu/bin/../lib/gcc/nios2-elf/4.9.1/../../../../../H-x86_64-pc-linux-gnu/nios2-elf/lib/libc.a(lib_a-memchr.o)
 .debug_line    0x000000000000468a      0x184 /home/hadrien/altera/15.0/nios2eds/bin/gnu/H-x86_64-pc-linux-gnu/bin/../lib/gcc/nios2-elf/4.9.1/../../../../../H-x86_64-pc-linux-gnu/nios2-elf/lib/libc.a(lib_a-memcpy.o)
 .debug_line    0x000000000000480e      0x18b /home/hadrien/altera/15.0/nios2eds/bin/gnu/H-x86_64-pc-linux-gnu/bin/../lib/gcc/nios2-elf/4.9.1/../../../../../H-x86_64-pc-linux-gnu/nios2-elf/lib/libc.a(lib_a-memmove.o)
 .debug_line    0x0000000000004999      0x698 /home/hadrien/altera/15.0/nios2eds/bin/gnu/H-x86_64-pc-linux-gnu/bin/../lib/gcc/nios2-elf/4.9.1/../../../../../H-x86_64-pc-linux-gnu/nios2-elf/lib/libc.a(lib_a-mprec.o)
 .debug_line    0x0000000000005031      0x2fc /home/hadrien/altera/15.0/nios2eds/bin/gnu/H-x86_64-pc-linux-gnu/bin/../lib/gcc/nios2-elf/4.9.1/../../../../../H-x86_64-pc-linux-gnu/nios2-elf/lib/libc.a(lib_a-reallocr.o)
 .debug_line    0x000000000000532d      0x17b /home/hadrien/altera/15.0/nios2eds/bin/gnu/H-x86_64-pc-linux-gnu/bin/../lib/gcc/nios2-elf/4.9.1/../../../../../H-x86_64-pc-linux-gnu/nios2-elf/lib/libc.a(lib_a-s_fpclassify.o)
 .debug_line    0x00000000000054a8      0x227 /home/hadrien/altera/15.0/nios2eds/bin/gnu/H-x86_64-pc-linux-gnu/bin/../lib/gcc/nios2-elf/4.9.1/../../../../../H-x86_64-pc-linux-gnu/nios2-elf/lib/libc.a(lib_a-stdio.o)
 .debug_line    0x00000000000056cf       0xf6 /home/hadrien/altera/15.0/nios2eds/bin/gnu/H-x86_64-pc-linux-gnu/bin/../lib/gcc/nios2-elf/4.9.1/../../../../../H-x86_64-pc-linux-gnu/nios2-elf/lib/libc.a(lib_a-strcmp.o)
 .debug_line    0x00000000000057c5      0x7be /home/hadrien/altera/15.0/nios2eds/bin/gnu/H-x86_64-pc-linux-gnu/bin/../lib/gcc/nios2-elf/4.9.1/../../../../../H-x86_64-pc-linux-gnu/nios2-elf/lib/libc.a(lib_a-vfiprintf.o)
 .debug_line    0x0000000000005f83      0x1f6 /home/hadrien/altera/15.0/nios2eds/bin/gnu/H-x86_64-pc-linux-gnu/bin/../lib/gcc/nios2-elf/4.9.1/../../../../../H-x86_64-pc-linux-gnu/nios2-elf/lib/libc.a(lib_a-writer.o)
 .debug_line    0x0000000000006179      0x1f6 /home/hadrien/altera/15.0/nios2eds/bin/gnu/H-x86_64-pc-linux-gnu/bin/../lib/gcc/nios2-elf/4.9.1/../../../../../H-x86_64-pc-linux-gnu/nios2-elf/lib/libc.a(closer.o)
 .debug_line    0x000000000000636f      0x229 /home/hadrien/altera/15.0/nios2eds/bin/gnu/H-x86_64-pc-linux-gnu/bin/../lib/gcc/nios2-elf/4.9.1/../../../../../H-x86_64-pc-linux-gnu/nios2-elf/lib/libc.a(lib_a-fclose.o)
 .debug_line    0x0000000000006598      0x251 /home/hadrien/altera/15.0/nios2eds/bin/gnu/H-x86_64-pc-linux-gnu/bin/../lib/gcc/nios2-elf/4.9.1/../../../../../H-x86_64-pc-linux-gnu/nios2-elf/lib/libc.a(lib_a-fputwc.o)
 .debug_line    0x00000000000067e9      0x1ff /home/hadrien/altera/15.0/nios2eds/bin/gnu/H-x86_64-pc-linux-gnu/bin/../lib/gcc/nios2-elf/4.9.1/../../../../../H-x86_64-pc-linux-gnu/nios2-elf/lib/libc.a(lib_a-fstatr.o)
 .debug_line    0x00000000000069e8      0x1f7 /home/hadrien/altera/15.0/nios2eds/bin/gnu/H-x86_64-pc-linux-gnu/bin/../lib/gcc/nios2-elf/4.9.1/../../../../../H-x86_64-pc-linux-gnu/nios2-elf/lib/libc.a(lib_a-isattyr.o)
 .debug_line    0x0000000000006bdf      0x201 /home/hadrien/altera/15.0/nios2eds/bin/gnu/H-x86_64-pc-linux-gnu/bin/../lib/gcc/nios2-elf/4.9.1/../../../../../H-x86_64-pc-linux-gnu/nios2-elf/lib/libc.a(lib_a-lseekr.o)
 .debug_line    0x0000000000006de0      0x1f5 /home/hadrien/altera/15.0/nios2eds/bin/gnu/H-x86_64-pc-linux-gnu/bin/../lib/gcc/nios2-elf/4.9.1/../../../../../H-x86_64-pc-linux-gnu/nios2-elf/lib/libc.a(lib_a-readr.o)
 .debug_line    0x0000000000006fd5      0x219 /home/hadrien/altera/15.0/nios2eds/bin/gnu/H-x86_64-pc-linux-gnu/bin/../lib/gcc/nios2-elf/4.9.1/../../../../../H-x86_64-pc-linux-gnu/nios2-elf/lib/libc.a(lib_a-wcrtomb.o)
 .debug_line    0x00000000000071ee      0x20e /home/hadrien/altera/15.0/nios2eds/bin/gnu/H-x86_64-pc-linux-gnu/bin/../lib/gcc/nios2-elf/4.9.1/../../../../../H-x86_64-pc-linux-gnu/nios2-elf/lib/libc.a(lib_a-wctomb_r.o)
 .debug_line    0x00000000000073fc      0x134 /home/hadrien/altera/15.0/nios2eds/bin/gnu/H-x86_64-pc-linux-gnu/bin/../lib/gcc/nios2-elf/4.9.1/libgcc.a(_udivdi3.o)
 .debug_line    0x0000000000007530      0x145 /home/hadrien/altera/15.0/nios2eds/bin/gnu/H-x86_64-pc-linux-gnu/bin/../lib/gcc/nios2-elf/4.9.1/libgcc.a(_umoddi3.o)
 .debug_line    0x0000000000007675      0x383 /home/hadrien/altera/15.0/nios2eds/bin/gnu/H-x86_64-pc-linux-gnu/bin/../lib/gcc/nios2-elf/4.9.1/libgcc.a(adddf3.o)
 .debug_line    0x00000000000079f8      0x2a3 /home/hadrien/altera/15.0/nios2eds/bin/gnu/H-x86_64-pc-linux-gnu/bin/../lib/gcc/nios2-elf/4.9.1/libgcc.a(divdf3.o)
 .debug_line    0x0000000000007c9b       0xab /home/hadrien/altera/15.0/nios2eds/bin/gnu/H-x86_64-pc-linux-gnu/bin/../lib/gcc/nios2-elf/4.9.1/libgcc.a(eqdf2.o)
 .debug_line    0x0000000000007d46       0xcb /home/hadrien/altera/15.0/nios2eds/bin/gnu/H-x86_64-pc-linux-gnu/bin/../lib/gcc/nios2-elf/4.9.1/libgcc.a(gedf2.o)
 .debug_line    0x0000000000007e11       0xca /home/hadrien/altera/15.0/nios2eds/bin/gnu/H-x86_64-pc-linux-gnu/bin/../lib/gcc/nios2-elf/4.9.1/libgcc.a(ledf2.o)
 .debug_line    0x0000000000007edb      0x1db /home/hadrien/altera/15.0/nios2eds/bin/gnu/H-x86_64-pc-linux-gnu/bin/../lib/gcc/nios2-elf/4.9.1/libgcc.a(muldf3.o)
 .debug_line    0x00000000000080b6      0x39e /home/hadrien/altera/15.0/nios2eds/bin/gnu/H-x86_64-pc-linux-gnu/bin/../lib/gcc/nios2-elf/4.9.1/libgcc.a(subdf3.o)
 .debug_line    0x0000000000008454       0x99 /home/hadrien/altera/15.0/nios2eds/bin/gnu/H-x86_64-pc-linux-gnu/bin/../lib/gcc/nios2-elf/4.9.1/libgcc.a(fixdfsi.o)
 .debug_line    0x00000000000084ed       0x9d /home/hadrien/altera/15.0/nios2eds/bin/gnu/H-x86_64-pc-linux-gnu/bin/../lib/gcc/nios2-elf/4.9.1/libgcc.a(floatsidf.o)
 .debug_line    0x000000000000858a       0x93 /home/hadrien/altera/15.0/nios2eds/bin/gnu/H-x86_64-pc-linux-gnu/bin/../lib/gcc/nios2-elf/4.9.1/libgcc.a(floatunsidf.o)
 .debug_line    0x000000000000861d       0x53 /home/hadrien/altera/15.0/nios2eds/bin/gnu/H-x86_64-pc-linux-gnu/bin/../lib/gcc/nios2-elf/4.9.1/libgcc.a(_clz.o)
 .debug_line    0x0000000000008670       0xb4 /home/hadrien/altera/15.0/nios2eds/bin/gnu/H-x86_64-pc-linux-gnu/bin/../lib/gcc/nios2-elf/4.9.1/libgcc.a(_clzsi2.o)
 .debug_line    0x0000000000008724      0x16e /data/workspace/ES/lab03/software/camera_app_bsp//libhal_bsp.a(alt_close.o)
 .debug_line    0x0000000000008892      0x100 /data/workspace/ES/lab03/software/camera_app_bsp//libhal_bsp.a(alt_dev.o)
 .debug_line    0x0000000000008992       0x51 /data/workspace/ES/lab03/software/camera_app_bsp//libhal_bsp.a(alt_errno.o)
 .debug_line    0x00000000000089e3      0x167 /data/workspace/ES/lab03/software/camera_app_bsp//libhal_bsp.a(alt_fstat.o)
 .debug_line    0x0000000000008b4a      0x16b /data/workspace/ES/lab03/software/camera_app_bsp//libhal_bsp.a(alt_isatty.o)
 .debug_line    0x0000000000008cb5       0x8d /data/workspace/ES/lab03/software/camera_app_bsp//libhal_bsp.a(alt_load.o)
 .debug_line    0x0000000000008d42      0x16c /data/workspace/ES/lab03/software/camera_app_bsp//libhal_bsp.a(alt_lseek.o)
 .debug_line    0x0000000000008eae       0xa4 /data/workspace/ES/lab03/software/camera_app_bsp//libhal_bsp.a(alt_main.o)
 .debug_line    0x0000000000008f52      0x131 /data/workspace/ES/lab03/software/camera_app_bsp//libhal_bsp.a(alt_malloc_lock.o)
 .debug_line    0x0000000000009083      0x1ed /data/workspace/ES/lab03/software/camera_app_bsp//libhal_bsp.a(alt_read.o)
 .debug_line    0x0000000000009270       0xae /data/workspace/ES/lab03/software/camera_app_bsp//libhal_bsp.a(alt_release_fd.o)
 .debug_line    0x000000000000931e       0xfb /data/workspace/ES/lab03/software/camera_app_bsp//libhal_bsp.a(alt_sbrk.o)
 .debug_line    0x0000000000009419       0xb5 /data/workspace/ES/lab03/software/camera_app_bsp//libhal_bsp.a(alt_usleep.o)
 .debug_line    0x00000000000094ce      0x1ec /data/workspace/ES/lab03/software/camera_app_bsp//libhal_bsp.a(alt_write.o)
 .debug_line    0x00000000000096ba      0x136 /data/workspace/ES/lab03/software/camera_app_bsp//libhal_bsp.a(alt_sys_init.o)
 .debug_line    0x00000000000097f0      0x12f /data/workspace/ES/lab03/software/camera_app_bsp//libhal_bsp.a(altera_avalon_jtag_uart_fd.o)
 .debug_line    0x000000000000991f      0x180 /data/workspace/ES/lab03/software/camera_app_bsp//libhal_bsp.a(altera_avalon_jtag_uart_init.o)
 .debug_line    0x0000000000009a9f      0x12e /data/workspace/ES/lab03/software/camera_app_bsp//libhal_bsp.a(altera_avalon_jtag_uart_ioctl.o)
 .debug_line    0x0000000000009bcd      0x16a /data/workspace/ES/lab03/software/camera_app_bsp//libhal_bsp.a(altera_avalon_jtag_uart_read.o)
 .debug_line    0x0000000000009d37      0x16a /data/workspace/ES/lab03/software/camera_app_bsp//libhal_bsp.a(altera_avalon_jtag_uart_write.o)
 .debug_line    0x0000000000009ea1       0xfa /data/workspace/ES/lab03/software/camera_app_bsp//libhal_bsp.a(alt_alarm_start.o)
 .debug_line    0x0000000000009f9b       0xa0 /data/workspace/ES/lab03/software/camera_app_bsp//libhal_bsp.a(alt_busy_sleep.o)
 .debug_line    0x000000000000a03b       0x51 /data/workspace/ES/lab03/software/camera_app_bsp//libhal_bsp.a(alt_dcache_flush_all.o)
 .debug_line    0x000000000000a08c       0xd0 /data/workspace/ES/lab03/software/camera_app_bsp//libhal_bsp.a(alt_dev_llist_insert.o)
 .debug_line    0x000000000000a15c       0x59 /data/workspace/ES/lab03/software/camera_app_bsp//libhal_bsp.a(alt_do_ctors.o)
 .debug_line    0x000000000000a1b5       0x59 /data/workspace/ES/lab03/software/camera_app_bsp//libhal_bsp.a(alt_do_dtors.o)
 .debug_line    0x000000000000a20e       0x50 /data/workspace/ES/lab03/software/camera_app_bsp//libhal_bsp.a(alt_icache_flush_all.o)
 .debug_line    0x000000000000a25e       0xef /data/workspace/ES/lab03/software/camera_app_bsp//libhal_bsp.a(alt_iic.o)
 .debug_line    0x000000000000a34d       0xdb /data/workspace/ES/lab03/software/camera_app_bsp//libhal_bsp.a(alt_iic_isr_register.o)
 .debug_line    0x000000000000a428      0x13b /data/workspace/ES/lab03/software/camera_app_bsp//libhal_bsp.a(alt_io_redirect.o)
 .debug_line    0x000000000000a563       0x6b /data/workspace/ES/lab03/software/camera_app_bsp//libhal_bsp.a(alt_irq_entry.o)
 .debug_line    0x000000000000a5ce       0xaa /data/workspace/ES/lab03/software/camera_app_bsp//libhal_bsp.a(alt_irq_handler.o)
 .debug_line    0x000000000000a678       0x50 /data/workspace/ES/lab03/software/camera_app_bsp//libhal_bsp.a(alt_irq_vars.o)
 .debug_line    0x000000000000a6c8      0x12a /data/workspace/ES/lab03/software/camera_app_bsp//libhal_bsp.a(alt_open.o)
 .debug_line    0x000000000000a7f2       0xfe /data/workspace/ES/lab03/software/camera_app_bsp//libhal_bsp.a(alt_tick.o)
 .debug_line    0x000000000000a8f0       0x51 /data/workspace/ES/lab03/software/camera_app_bsp//libhal_bsp.a(altera_nios2_qsys_irq.o)
 .debug_line    0x000000000000a941       0xab /data/workspace/ES/lab03/software/camera_app_bsp//libhal_bsp.a(alt_exception_entry.o)
 .debug_line    0x000000000000a9ec       0xb5 /data/workspace/ES/lab03/software/camera_app_bsp//libhal_bsp.a(alt_find_dev.o)
 .debug_line    0x000000000000aaa1       0xd1 /data/workspace/ES/lab03/software/camera_app_bsp//libhal_bsp.a(alt_find_file.o)
 .debug_line    0x000000000000ab72       0xd5 /data/workspace/ES/lab03/software/camera_app_bsp//libhal_bsp.a(alt_get_fd.o)
 .debug_line    0x000000000000ac47       0x81 /data/workspace/ES/lab03/software/camera_app_bsp//libhal_bsp.a(alt_icache_flush.o)
 .debug_line    0x000000000000acc8       0xe6 /home/hadrien/altera/15.0/nios2eds/bin/gnu/H-x86_64-pc-linux-gnu/bin/../lib/gcc/nios2-elf/4.9.1/../../../../../H-x86_64-pc-linux-gnu/nios2-elf/lib/libc.a(lib_a-atexit.o)
 .debug_line    0x000000000000adae      0x1fa /home/hadrien/altera/15.0/nios2eds/bin/gnu/H-x86_64-pc-linux-gnu/bin/../lib/gcc/nios2-elf/4.9.1/../../../../../H-x86_64-pc-linux-gnu/nios2-elf/lib/libc.a(lib_a-exit.o)
 .debug_line    0x000000000000afa8      0x175 /home/hadrien/altera/15.0/nios2eds/bin/gnu/H-x86_64-pc-linux-gnu/bin/../lib/gcc/nios2-elf/4.9.1/../../../../../H-x86_64-pc-linux-gnu/nios2-elf/lib/libc.a(lib_a-memcmp.o)
 .debug_line    0x000000000000b11d      0x224 /home/hadrien/altera/15.0/nios2eds/bin/gnu/H-x86_64-pc-linux-gnu/bin/../lib/gcc/nios2-elf/4.9.1/../../../../../H-x86_64-pc-linux-gnu/nios2-elf/lib/libc.a(lib_a-__atexit.o)
 .debug_line    0x000000000000b341      0x241 /home/hadrien/altera/15.0/nios2eds/bin/gnu/H-x86_64-pc-linux-gnu/bin/../lib/gcc/nios2-elf/4.9.1/../../../../../H-x86_64-pc-linux-gnu/nios2-elf/lib/libc.a(lib_a-__call_atexit.o)
 .debug_line    0x000000000000b582       0x71 /data/workspace/ES/lab03/software/camera_app_bsp//libhal_bsp.a(alt_exit.o)

.debug_frame    0x0000000000000000     0x236c
 *(.debug_frame)
 .debug_frame   0x0000000000000000      0x17c obj/default/hello_world.o
 .debug_frame   0x000000000000017c      0x1c8 obj/default/i2c/i2c.o
 .debug_frame   0x0000000000000344       0x8c /home/hadrien/altera/15.0/nios2eds/bin/gnu/H-x86_64-pc-linux-gnu/bin/../lib/gcc/nios2-elf/4.9.1/libgcc.a(lib2-divmod.o)
 .debug_frame   0x00000000000003d0       0x20 /home/hadrien/altera/15.0/nios2eds/bin/gnu/H-x86_64-pc-linux-gnu/bin/../lib/gcc/nios2-elf/4.9.1/../../../../../H-x86_64-pc-linux-gnu/nios2-elf/lib/libc.a(lib_a-calloc.o)
 .debug_frame   0x00000000000003f0       0x40 /home/hadrien/altera/15.0/nios2eds/bin/gnu/H-x86_64-pc-linux-gnu/bin/../lib/gcc/nios2-elf/4.9.1/../../../../../H-x86_64-pc-linux-gnu/nios2-elf/lib/libc.a(lib_a-callocr.o)
 .debug_frame   0x0000000000000430       0x54 /home/hadrien/altera/15.0/nios2eds/bin/gnu/H-x86_64-pc-linux-gnu/bin/../lib/gcc/nios2-elf/4.9.1/../../../../../H-x86_64-pc-linux-gnu/nios2-elf/lib/libc.a(lib_a-mallocr.o)
 .debug_frame   0x0000000000000484       0x20 /home/hadrien/altera/15.0/nios2eds/bin/gnu/H-x86_64-pc-linux-gnu/bin/../lib/gcc/nios2-elf/4.9.1/../../../../../H-x86_64-pc-linux-gnu/nios2-elf/lib/libc.a(lib_a-memset.o)
 .debug_frame   0x00000000000004a4       0x48 /home/hadrien/altera/15.0/nios2eds/bin/gnu/H-x86_64-pc-linux-gnu/bin/../lib/gcc/nios2-elf/4.9.1/../../../../../H-x86_64-pc-linux-gnu/nios2-elf/lib/libc.a(lib_a-printf.o)
 .debug_frame   0x00000000000004ec       0x74 /home/hadrien/altera/15.0/nios2eds/bin/gnu/H-x86_64-pc-linux-gnu/bin/../lib/gcc/nios2-elf/4.9.1/../../../../../H-x86_64-pc-linux-gnu/nios2-elf/lib/libc.a(lib_a-putc.o)
 .debug_frame   0x0000000000000560       0x48 /home/hadrien/altera/15.0/nios2eds/bin/gnu/H-x86_64-pc-linux-gnu/bin/../lib/gcc/nios2-elf/4.9.1/../../../../../H-x86_64-pc-linux-gnu/nios2-elf/lib/libc.a(lib_a-puts.o)
 .debug_frame   0x00000000000005a8       0x38 /home/hadrien/altera/15.0/nios2eds/bin/gnu/H-x86_64-pc-linux-gnu/bin/../lib/gcc/nios2-elf/4.9.1/../../../../../H-x86_64-pc-linux-gnu/nios2-elf/lib/libc.a(lib_a-sbrkr.o)
 .debug_frame   0x00000000000005e0       0x20 /home/hadrien/altera/15.0/nios2eds/bin/gnu/H-x86_64-pc-linux-gnu/bin/../lib/gcc/nios2-elf/4.9.1/../../../../../H-x86_64-pc-linux-gnu/nios2-elf/lib/libc.a(lib_a-strlen.o)
 .debug_frame   0x0000000000000600       0x68 /home/hadrien/altera/15.0/nios2eds/bin/gnu/H-x86_64-pc-linux-gnu/bin/../lib/gcc/nios2-elf/4.9.1/../../../../../H-x86_64-pc-linux-gnu/nios2-elf/lib/libc.a(lib_a-vfprintf.o)
 .debug_frame   0x0000000000000668       0x4c /home/hadrien/altera/15.0/nios2eds/bin/gnu/H-x86_64-pc-linux-gnu/bin/../lib/gcc/nios2-elf/4.9.1/../../../../../H-x86_64-pc-linux-gnu/nios2-elf/lib/libc.a(lib_a-wbuf.o)
 .debug_frame   0x00000000000006b4       0x38 /home/hadrien/altera/15.0/nios2eds/bin/gnu/H-x86_64-pc-linux-gnu/bin/../lib/gcc/nios2-elf/4.9.1/../../../../../H-x86_64-pc-linux-gnu/nios2-elf/lib/libc.a(lib_a-wsetup.o)
 .debug_frame   0x00000000000006ec       0x98 /home/hadrien/altera/15.0/nios2eds/bin/gnu/H-x86_64-pc-linux-gnu/bin/../lib/gcc/nios2-elf/4.9.1/../../../../../H-x86_64-pc-linux-gnu/nios2-elf/lib/libc.a(lib_a-dtoa.o)
 .debug_frame   0x0000000000000784       0x50 /home/hadrien/altera/15.0/nios2eds/bin/gnu/H-x86_64-pc-linux-gnu/bin/../lib/gcc/nios2-elf/4.9.1/../../../../../H-x86_64-pc-linux-gnu/nios2-elf/lib/libc.a(lib_a-fflush.o)
 .debug_frame   0x00000000000007d4      0x160 /home/hadrien/altera/15.0/nios2eds/bin/gnu/H-x86_64-pc-linux-gnu/bin/../lib/gcc/nios2-elf/4.9.1/../../../../../H-x86_64-pc-linux-gnu/nios2-elf/lib/libc.a(lib_a-findfp.o)
 .debug_frame   0x0000000000000934       0x70 /home/hadrien/altera/15.0/nios2eds/bin/gnu/H-x86_64-pc-linux-gnu/bin/../lib/gcc/nios2-elf/4.9.1/../../../../../H-x86_64-pc-linux-gnu/nios2-elf/lib/libc.a(lib_a-freer.o)
 .debug_frame   0x00000000000009a4       0x78 /home/hadrien/altera/15.0/nios2eds/bin/gnu/H-x86_64-pc-linux-gnu/bin/../lib/gcc/nios2-elf/4.9.1/../../../../../H-x86_64-pc-linux-gnu/nios2-elf/lib/libc.a(lib_a-fvwrite.o)
 .debug_frame   0x0000000000000a1c       0x88 /home/hadrien/altera/15.0/nios2eds/bin/gnu/H-x86_64-pc-linux-gnu/bin/../lib/gcc/nios2-elf/4.9.1/../../../../../H-x86_64-pc-linux-gnu/nios2-elf/lib/libc.a(lib_a-fwalk.o)
 .debug_frame   0x0000000000000aa4       0xa8 /home/hadrien/altera/15.0/nios2eds/bin/gnu/H-x86_64-pc-linux-gnu/bin/../lib/gcc/nios2-elf/4.9.1/../../../../../H-x86_64-pc-linux-gnu/nios2-elf/lib/libc.a(lib_a-locale.o)
 .debug_frame   0x0000000000000b4c       0x4c /home/hadrien/altera/15.0/nios2eds/bin/gnu/H-x86_64-pc-linux-gnu/bin/../lib/gcc/nios2-elf/4.9.1/../../../../../H-x86_64-pc-linux-gnu/nios2-elf/lib/libc.a(lib_a-makebuf.o)
 .debug_frame   0x0000000000000b98       0x20 /home/hadrien/altera/15.0/nios2eds/bin/gnu/H-x86_64-pc-linux-gnu/bin/../lib/gcc/nios2-elf/4.9.1/../../../../../H-x86_64-pc-linux-gnu/nios2-elf/lib/libc.a(lib_a-memchr.o)
 .debug_frame   0x0000000000000bb8       0x30 /home/hadrien/altera/15.0/nios2eds/bin/gnu/H-x86_64-pc-linux-gnu/bin/../lib/gcc/nios2-elf/4.9.1/../../../../../H-x86_64-pc-linux-gnu/nios2-elf/lib/libc.a(lib_a-memcpy.o)
 .debug_frame   0x0000000000000be8       0x20 /home/hadrien/altera/15.0/nios2eds/bin/gnu/H-x86_64-pc-linux-gnu/bin/../lib/gcc/nios2-elf/4.9.1/../../../../../H-x86_64-pc-linux-gnu/nios2-elf/lib/libc.a(lib_a-memmove.o)
 .debug_frame   0x0000000000000c08      0x2e8 /home/hadrien/altera/15.0/nios2eds/bin/gnu/H-x86_64-pc-linux-gnu/bin/../lib/gcc/nios2-elf/4.9.1/../../../../../H-x86_64-pc-linux-gnu/nios2-elf/lib/libc.a(lib_a-mprec.o)
 .debug_frame   0x0000000000000ef0       0x70 /home/hadrien/altera/15.0/nios2eds/bin/gnu/H-x86_64-pc-linux-gnu/bin/../lib/gcc/nios2-elf/4.9.1/../../../../../H-x86_64-pc-linux-gnu/nios2-elf/lib/libc.a(lib_a-reallocr.o)
 .debug_frame   0x0000000000000f60       0x20 /home/hadrien/altera/15.0/nios2eds/bin/gnu/H-x86_64-pc-linux-gnu/bin/../lib/gcc/nios2-elf/4.9.1/../../../../../H-x86_64-pc-linux-gnu/nios2-elf/lib/libc.a(lib_a-s_fpclassify.o)
 .debug_frame   0x0000000000000f80       0xb4 /home/hadrien/altera/15.0/nios2eds/bin/gnu/H-x86_64-pc-linux-gnu/bin/../lib/gcc/nios2-elf/4.9.1/../../../../../H-x86_64-pc-linux-gnu/nios2-elf/lib/libc.a(lib_a-stdio.o)
 .debug_frame   0x0000000000001034       0x20 /home/hadrien/altera/15.0/nios2eds/bin/gnu/H-x86_64-pc-linux-gnu/bin/../lib/gcc/nios2-elf/4.9.1/../../../../../H-x86_64-pc-linux-gnu/nios2-elf/lib/libc.a(lib_a-strcmp.o)
 .debug_frame   0x0000000000001054       0xbc /home/hadrien/altera/15.0/nios2eds/bin/gnu/H-x86_64-pc-linux-gnu/bin/../lib/gcc/nios2-elf/4.9.1/../../../../../H-x86_64-pc-linux-gnu/nios2-elf/lib/libc.a(lib_a-vfiprintf.o)
 .debug_frame   0x0000000000001110       0x38 /home/hadrien/altera/15.0/nios2eds/bin/gnu/H-x86_64-pc-linux-gnu/bin/../lib/gcc/nios2-elf/4.9.1/../../../../../H-x86_64-pc-linux-gnu/nios2-elf/lib/libc.a(lib_a-writer.o)
 .debug_frame   0x0000000000001148       0x38 /home/hadrien/altera/15.0/nios2eds/bin/gnu/H-x86_64-pc-linux-gnu/bin/../lib/gcc/nios2-elf/4.9.1/../../../../../H-x86_64-pc-linux-gnu/nios2-elf/lib/libc.a(closer.o)
 .debug_frame   0x0000000000001180       0x60 /home/hadrien/altera/15.0/nios2eds/bin/gnu/H-x86_64-pc-linux-gnu/bin/../lib/gcc/nios2-elf/4.9.1/../../../../../H-x86_64-pc-linux-gnu/nios2-elf/lib/libc.a(lib_a-fclose.o)
 .debug_frame   0x00000000000011e0       0x70 /home/hadrien/altera/15.0/nios2eds/bin/gnu/H-x86_64-pc-linux-gnu/bin/../lib/gcc/nios2-elf/4.9.1/../../../../../H-x86_64-pc-linux-gnu/nios2-elf/lib/libc.a(lib_a-fputwc.o)
 .debug_frame   0x0000000000001250       0x38 /home/hadrien/altera/15.0/nios2eds/bin/gnu/H-x86_64-pc-linux-gnu/bin/../lib/gcc/nios2-elf/4.9.1/../../../../../H-x86_64-pc-linux-gnu/nios2-elf/lib/libc.a(lib_a-fstatr.o)
 .debug_frame   0x0000000000001288       0x38 /home/hadrien/altera/15.0/nios2eds/bin/gnu/H-x86_64-pc-linux-gnu/bin/../lib/gcc/nios2-elf/4.9.1/../../../../../H-x86_64-pc-linux-gnu/nios2-elf/lib/libc.a(lib_a-isattyr.o)
 .debug_frame   0x00000000000012c0       0x38 /home/hadrien/altera/15.0/nios2eds/bin/gnu/H-x86_64-pc-linux-gnu/bin/../lib/gcc/nios2-elf/4.9.1/../../../../../H-x86_64-pc-linux-gnu/nios2-elf/lib/libc.a(lib_a-lseekr.o)
 .debug_frame   0x00000000000012f8       0x38 /home/hadrien/altera/15.0/nios2eds/bin/gnu/H-x86_64-pc-linux-gnu/bin/../lib/gcc/nios2-elf/4.9.1/../../../../../H-x86_64-pc-linux-gnu/nios2-elf/lib/libc.a(lib_a-readr.o)
 .debug_frame   0x0000000000001330       0x74 /home/hadrien/altera/15.0/nios2eds/bin/gnu/H-x86_64-pc-linux-gnu/bin/../lib/gcc/nios2-elf/4.9.1/../../../../../H-x86_64-pc-linux-gnu/nios2-elf/lib/libc.a(lib_a-wcrtomb.o)
 .debug_frame   0x00000000000013a4       0x44 /home/hadrien/altera/15.0/nios2eds/bin/gnu/H-x86_64-pc-linux-gnu/bin/../lib/gcc/nios2-elf/4.9.1/../../../../../H-x86_64-pc-linux-gnu/nios2-elf/lib/libc.a(lib_a-wctomb_r.o)
 .debug_frame   0x00000000000013e8       0x54 /home/hadrien/altera/15.0/nios2eds/bin/gnu/H-x86_64-pc-linux-gnu/bin/../lib/gcc/nios2-elf/4.9.1/libgcc.a(_udivdi3.o)
 .debug_frame   0x000000000000143c       0x54 /home/hadrien/altera/15.0/nios2eds/bin/gnu/H-x86_64-pc-linux-gnu/bin/../lib/gcc/nios2-elf/4.9.1/libgcc.a(_umoddi3.o)
 .debug_frame   0x0000000000001490       0x40 /home/hadrien/altera/15.0/nios2eds/bin/gnu/H-x86_64-pc-linux-gnu/bin/../lib/gcc/nios2-elf/4.9.1/libgcc.a(adddf3.o)
 .debug_frame   0x00000000000014d0       0x58 /home/hadrien/altera/15.0/nios2eds/bin/gnu/H-x86_64-pc-linux-gnu/bin/../lib/gcc/nios2-elf/4.9.1/libgcc.a(divdf3.o)
 .debug_frame   0x0000000000001528       0x20 /home/hadrien/altera/15.0/nios2eds/bin/gnu/H-x86_64-pc-linux-gnu/bin/../lib/gcc/nios2-elf/4.9.1/libgcc.a(eqdf2.o)
 .debug_frame   0x0000000000001548       0x20 /home/hadrien/altera/15.0/nios2eds/bin/gnu/H-x86_64-pc-linux-gnu/bin/../lib/gcc/nios2-elf/4.9.1/libgcc.a(gedf2.o)
 .debug_frame   0x0000000000001568       0x20 /home/hadrien/altera/15.0/nios2eds/bin/gnu/H-x86_64-pc-linux-gnu/bin/../lib/gcc/nios2-elf/4.9.1/libgcc.a(ledf2.o)
 .debug_frame   0x0000000000001588       0x58 /home/hadrien/altera/15.0/nios2eds/bin/gnu/H-x86_64-pc-linux-gnu/bin/../lib/gcc/nios2-elf/4.9.1/libgcc.a(muldf3.o)
 .debug_frame   0x00000000000015e0       0x44 /home/hadrien/altera/15.0/nios2eds/bin/gnu/H-x86_64-pc-linux-gnu/bin/../lib/gcc/nios2-elf/4.9.1/libgcc.a(subdf3.o)
 .debug_frame   0x0000000000001624       0x20 /home/hadrien/altera/15.0/nios2eds/bin/gnu/H-x86_64-pc-linux-gnu/bin/../lib/gcc/nios2-elf/4.9.1/libgcc.a(fixdfsi.o)
 .debug_frame   0x0000000000001644       0x38 /home/hadrien/altera/15.0/nios2eds/bin/gnu/H-x86_64-pc-linux-gnu/bin/../lib/gcc/nios2-elf/4.9.1/libgcc.a(floatsidf.o)
 .debug_frame   0x000000000000167c       0x34 /home/hadrien/altera/15.0/nios2eds/bin/gnu/H-x86_64-pc-linux-gnu/bin/../lib/gcc/nios2-elf/4.9.1/libgcc.a(floatunsidf.o)
 .debug_frame   0x00000000000016b0       0x20 /home/hadrien/altera/15.0/nios2eds/bin/gnu/H-x86_64-pc-linux-gnu/bin/../lib/gcc/nios2-elf/4.9.1/libgcc.a(_clzsi2.o)
 .debug_frame   0x00000000000016d0       0x60 /data/workspace/ES/lab03/software/camera_app_bsp//libhal_bsp.a(alt_close.o)
 .debug_frame   0x0000000000001730       0x34 /data/workspace/ES/lab03/software/camera_app_bsp//libhal_bsp.a(alt_dev.o)
 .debug_frame   0x0000000000001764       0x60 /data/workspace/ES/lab03/software/camera_app_bsp//libhal_bsp.a(alt_fstat.o)
 .debug_frame   0x00000000000017c4       0x60 /data/workspace/ES/lab03/software/camera_app_bsp//libhal_bsp.a(alt_isatty.o)
 .debug_frame   0x0000000000001824       0x5c /data/workspace/ES/lab03/software/camera_app_bsp//libhal_bsp.a(alt_load.o)
 .debug_frame   0x0000000000001880       0x60 /data/workspace/ES/lab03/software/camera_app_bsp//libhal_bsp.a(alt_lseek.o)
 .debug_frame   0x00000000000018e0       0x2c /data/workspace/ES/lab03/software/camera_app_bsp//libhal_bsp.a(alt_main.o)
 .debug_frame   0x000000000000190c       0x58 /data/workspace/ES/lab03/software/camera_app_bsp//libhal_bsp.a(alt_malloc_lock.o)
 .debug_frame   0x0000000000001964       0x60 /data/workspace/ES/lab03/software/camera_app_bsp//libhal_bsp.a(alt_read.o)
 .debug_frame   0x00000000000019c4       0x34 /data/workspace/ES/lab03/software/camera_app_bsp//libhal_bsp.a(alt_release_fd.o)
 .debug_frame   0x00000000000019f8       0x34 /data/workspace/ES/lab03/software/camera_app_bsp//libhal_bsp.a(alt_sbrk.o)
 .debug_frame   0x0000000000001a2c       0x38 /data/workspace/ES/lab03/software/camera_app_bsp//libhal_bsp.a(alt_usleep.o)
 .debug_frame   0x0000000000001a64       0x60 /data/workspace/ES/lab03/software/camera_app_bsp//libhal_bsp.a(alt_write.o)
 .debug_frame   0x0000000000001ac4       0x88 /data/workspace/ES/lab03/software/camera_app_bsp//libhal_bsp.a(alt_sys_init.o)
 .debug_frame   0x0000000000001b4c       0xb0 /data/workspace/ES/lab03/software/camera_app_bsp//libhal_bsp.a(altera_avalon_jtag_uart_fd.o)
 .debug_frame   0x0000000000001bfc       0xa4 /data/workspace/ES/lab03/software/camera_app_bsp//libhal_bsp.a(altera_avalon_jtag_uart_init.o)
 .debug_frame   0x0000000000001ca0       0x34 /data/workspace/ES/lab03/software/camera_app_bsp//libhal_bsp.a(altera_avalon_jtag_uart_ioctl.o)
 .debug_frame   0x0000000000001cd4       0x38 /data/workspace/ES/lab03/software/camera_app_bsp//libhal_bsp.a(altera_avalon_jtag_uart_read.o)
 .debug_frame   0x0000000000001d0c       0x38 /data/workspace/ES/lab03/software/camera_app_bsp//libhal_bsp.a(altera_avalon_jtag_uart_write.o)
 .debug_frame   0x0000000000001d44       0x34 /data/workspace/ES/lab03/software/camera_app_bsp//libhal_bsp.a(alt_alarm_start.o)
 .debug_frame   0x0000000000001d78       0x38 /data/workspace/ES/lab03/software/camera_app_bsp//libhal_bsp.a(alt_busy_sleep.o)
 .debug_frame   0x0000000000001db0       0x34 /data/workspace/ES/lab03/software/camera_app_bsp//libhal_bsp.a(alt_dcache_flush_all.o)
 .debug_frame   0x0000000000001de4       0x60 /data/workspace/ES/lab03/software/camera_app_bsp//libhal_bsp.a(alt_dev_llist_insert.o)
 .debug_frame   0x0000000000001e44       0x38 /data/workspace/ES/lab03/software/camera_app_bsp//libhal_bsp.a(alt_do_ctors.o)
 .debug_frame   0x0000000000001e7c       0x38 /data/workspace/ES/lab03/software/camera_app_bsp//libhal_bsp.a(alt_do_dtors.o)
 .debug_frame   0x0000000000001eb4       0x38 /data/workspace/ES/lab03/software/camera_app_bsp//libhal_bsp.a(alt_icache_flush_all.o)
 .debug_frame   0x0000000000001eec       0xa4 /data/workspace/ES/lab03/software/camera_app_bsp//libhal_bsp.a(alt_iic.o)
 .debug_frame   0x0000000000001f90       0x38 /data/workspace/ES/lab03/software/camera_app_bsp//libhal_bsp.a(alt_iic_isr_register.o)
 .debug_frame   0x0000000000001fc8       0x60 /data/workspace/ES/lab03/software/camera_app_bsp//libhal_bsp.a(alt_io_redirect.o)
 .debug_frame   0x0000000000002028       0x38 /data/workspace/ES/lab03/software/camera_app_bsp//libhal_bsp.a(alt_irq_handler.o)
 .debug_frame   0x0000000000002060       0x84 /data/workspace/ES/lab03/software/camera_app_bsp//libhal_bsp.a(alt_open.o)
 .debug_frame   0x00000000000020e4       0x5c /data/workspace/ES/lab03/software/camera_app_bsp//libhal_bsp.a(alt_tick.o)
 .debug_frame   0x0000000000002140       0x34 /data/workspace/ES/lab03/software/camera_app_bsp//libhal_bsp.a(altera_nios2_qsys_irq.o)
 .debug_frame   0x0000000000002174       0x38 /data/workspace/ES/lab03/software/camera_app_bsp//libhal_bsp.a(alt_find_dev.o)
 .debug_frame   0x00000000000021ac       0x38 /data/workspace/ES/lab03/software/camera_app_bsp//libhal_bsp.a(alt_find_file.o)
 .debug_frame   0x00000000000021e4       0x34 /data/workspace/ES/lab03/software/camera_app_bsp//libhal_bsp.a(alt_get_fd.o)
 .debug_frame   0x0000000000002218       0x34 /data/workspace/ES/lab03/software/camera_app_bsp//libhal_bsp.a(alt_icache_flush.o)
 .debug_frame   0x000000000000224c       0x20 /home/hadrien/altera/15.0/nios2eds/bin/gnu/H-x86_64-pc-linux-gnu/bin/../lib/gcc/nios2-elf/4.9.1/../../../../../H-x86_64-pc-linux-gnu/nios2-elf/lib/libc.a(lib_a-atexit.o)
 .debug_frame   0x000000000000226c       0x28 /home/hadrien/altera/15.0/nios2eds/bin/gnu/H-x86_64-pc-linux-gnu/bin/../lib/gcc/nios2-elf/4.9.1/../../../../../H-x86_64-pc-linux-gnu/nios2-elf/lib/libc.a(lib_a-exit.o)
 .debug_frame   0x0000000000002294       0x20 /home/hadrien/altera/15.0/nios2eds/bin/gnu/H-x86_64-pc-linux-gnu/bin/../lib/gcc/nios2-elf/4.9.1/../../../../../H-x86_64-pc-linux-gnu/nios2-elf/lib/libc.a(lib_a-memcmp.o)
 .debug_frame   0x00000000000022b4       0x38 /home/hadrien/altera/15.0/nios2eds/bin/gnu/H-x86_64-pc-linux-gnu/bin/../lib/gcc/nios2-elf/4.9.1/../../../../../H-x86_64-pc-linux-gnu/nios2-elf/lib/libc.a(lib_a-__atexit.o)
 .debug_frame   0x00000000000022ec       0x54 /home/hadrien/altera/15.0/nios2eds/bin/gnu/H-x86_64-pc-linux-gnu/bin/../lib/gcc/nios2-elf/4.9.1/../../../../../H-x86_64-pc-linux-gnu/nios2-elf/lib/libc.a(lib_a-__call_atexit.o)
 .debug_frame   0x0000000000002340       0x2c /data/workspace/ES/lab03/software/camera_app_bsp//libhal_bsp.a(alt_exit.o)

.debug_str      0x0000000000000000     0x3296
 *(.debug_str)
 .debug_str     0x0000000000000000      0x513 obj/default/hello_world.o
                                        0x5de (size before relaxing)
 .debug_str     0x0000000000000513       0xd3 obj/default/i2c/i2c.o
                                        0x210 (size before relaxing)
 .debug_str     0x00000000000005e6      0x16c /home/hadrien/altera/15.0/nios2eds/bin/gnu/H-x86_64-pc-linux-gnu/bin/../lib/gcc/nios2-elf/4.9.1/libgcc.a(lib2-divmod.o)
                                        0x1b7 (size before relaxing)
 .debug_str     0x0000000000000752      0x100 /home/hadrien/altera/15.0/nios2eds/bin/gnu/H-x86_64-pc-linux-gnu/bin/../lib/gcc/nios2-elf/4.9.1/../../../../../H-x86_64-pc-linux-gnu/nios2-elf/lib/libc.a(lib_a-calloc.o)
                                        0x559 (size before relaxing)
 .debug_str     0x0000000000000852       0x87 /home/hadrien/altera/15.0/nios2eds/bin/gnu/H-x86_64-pc-linux-gnu/bin/../lib/gcc/nios2-elf/4.9.1/../../../../../H-x86_64-pc-linux-gnu/nios2-elf/lib/libc.a(lib_a-callocr.o)
                                        0x592 (size before relaxing)
 .debug_str     0x00000000000008d9       0xdd /home/hadrien/altera/15.0/nios2eds/bin/gnu/H-x86_64-pc-linux-gnu/bin/../lib/gcc/nios2-elf/4.9.1/../../../../../H-x86_64-pc-linux-gnu/nios2-elf/lib/libc.a(lib_a-impure.o)
                                        0x559 (size before relaxing)
 .debug_str     0x00000000000009b6      0x1d5 /home/hadrien/altera/15.0/nios2eds/bin/gnu/H-x86_64-pc-linux-gnu/bin/../lib/gcc/nios2-elf/4.9.1/../../../../../H-x86_64-pc-linux-gnu/nios2-elf/lib/libc.a(lib_a-mallocr.o)
                                        0x768 (size before relaxing)
 .debug_str     0x0000000000000b8b       0xcd /home/hadrien/altera/15.0/nios2eds/bin/gnu/H-x86_64-pc-linux-gnu/bin/../lib/gcc/nios2-elf/4.9.1/../../../../../H-x86_64-pc-linux-gnu/nios2-elf/lib/libc.a(lib_a-memset.o)
                                        0x1a3 (size before relaxing)
 .debug_str     0x0000000000000c58      0x114 /home/hadrien/altera/15.0/nios2eds/bin/gnu/H-x86_64-pc-linux-gnu/bin/../lib/gcc/nios2-elf/4.9.1/../../../../../H-x86_64-pc-linux-gnu/nios2-elf/lib/libc.a(lib_a-printf.o)
                                        0x5a4 (size before relaxing)
 .debug_str     0x0000000000000d6c       0x57 /home/hadrien/altera/15.0/nios2eds/bin/gnu/H-x86_64-pc-linux-gnu/bin/../lib/gcc/nios2-elf/4.9.1/../../../../../H-x86_64-pc-linux-gnu/nios2-elf/lib/libc.a(lib_a-putc.o)
                                        0x563 (size before relaxing)
 .debug_str     0x0000000000000dc3       0x95 /home/hadrien/altera/15.0/nios2eds/bin/gnu/H-x86_64-pc-linux-gnu/bin/../lib/gcc/nios2-elf/4.9.1/../../../../../H-x86_64-pc-linux-gnu/nios2-elf/lib/libc.a(lib_a-puts.o)
                                        0x5a1 (size before relaxing)
 .debug_str     0x0000000000000e58       0x43 /home/hadrien/altera/15.0/nios2eds/bin/gnu/H-x86_64-pc-linux-gnu/bin/../lib/gcc/nios2-elf/4.9.1/../../../../../H-x86_64-pc-linux-gnu/nios2-elf/lib/libc.a(lib_a-sbrkr.o)
                                        0x54f (size before relaxing)
 .debug_str     0x0000000000000e9b       0x3b /home/hadrien/altera/15.0/nios2eds/bin/gnu/H-x86_64-pc-linux-gnu/bin/../lib/gcc/nios2-elf/4.9.1/../../../../../H-x86_64-pc-linux-gnu/nios2-elf/lib/libc.a(lib_a-strlen.o)
                                        0x1a2 (size before relaxing)
 .debug_str     0x0000000000000ed6      0x2e3 /home/hadrien/altera/15.0/nios2eds/bin/gnu/H-x86_64-pc-linux-gnu/bin/../lib/gcc/nios2-elf/4.9.1/../../../../../H-x86_64-pc-linux-gnu/nios2-elf/lib/libc.a(lib_a-vfprintf.o)
                                        0x938 (size before relaxing)
 .debug_str     0x00000000000011b9       0x40 /home/hadrien/altera/15.0/nios2eds/bin/gnu/H-x86_64-pc-linux-gnu/bin/../lib/gcc/nios2-elf/4.9.1/../../../../../H-x86_64-pc-linux-gnu/nios2-elf/lib/libc.a(lib_a-wbuf.o)
                                        0x56d (size before relaxing)
 .debug_str     0x00000000000011f9       0x47 /home/hadrien/altera/15.0/nios2eds/bin/gnu/H-x86_64-pc-linux-gnu/bin/../lib/gcc/nios2-elf/4.9.1/../../../../../H-x86_64-pc-linux-gnu/nios2-elf/lib/libc.a(lib_a-wsetup.o)
                                        0x568 (size before relaxing)
 .debug_str     0x0000000000001240      0x15e /home/hadrien/altera/15.0/nios2eds/bin/gnu/H-x86_64-pc-linux-gnu/bin/../lib/gcc/nios2-elf/4.9.1/../../../../../H-x86_64-pc-linux-gnu/nios2-elf/lib/libc.a(lib_a-dtoa.o)
                                        0x6ab (size before relaxing)
 .debug_str     0x000000000000139e       0x52 /home/hadrien/altera/15.0/nios2eds/bin/gnu/H-x86_64-pc-linux-gnu/bin/../lib/gcc/nios2-elf/4.9.1/../../../../../H-x86_64-pc-linux-gnu/nios2-elf/lib/libc.a(lib_a-fflush.o)
                                        0x598 (size before relaxing)
 .debug_str     0x00000000000013f0       0xfa /home/hadrien/altera/15.0/nios2eds/bin/gnu/H-x86_64-pc-linux-gnu/bin/../lib/gcc/nios2-elf/4.9.1/../../../../../H-x86_64-pc-linux-gnu/nios2-elf/lib/libc.a(lib_a-findfp.o)
                                        0x652 (size before relaxing)
 .debug_str     0x00000000000014ea       0x34 /home/hadrien/altera/15.0/nios2eds/bin/gnu/H-x86_64-pc-linux-gnu/bin/../lib/gcc/nios2-elf/4.9.1/../../../../../H-x86_64-pc-linux-gnu/nios2-elf/lib/libc.a(lib_a-freer.o)
                                        0x6b2 (size before relaxing)
 .debug_str     0x000000000000151e       0x6c /home/hadrien/altera/15.0/nios2eds/bin/gnu/H-x86_64-pc-linux-gnu/bin/../lib/gcc/nios2-elf/4.9.1/../../../../../H-x86_64-pc-linux-gnu/nios2-elf/lib/libc.a(lib_a-fvwrite.o)
                                        0x5eb (size before relaxing)
 .debug_str     0x000000000000158a       0x5e /home/hadrien/altera/15.0/nios2eds/bin/gnu/H-x86_64-pc-linux-gnu/bin/../lib/gcc/nios2-elf/4.9.1/../../../../../H-x86_64-pc-linux-gnu/nios2-elf/lib/libc.a(lib_a-fwalk.o)
                                        0x59a (size before relaxing)
 .debug_str     0x00000000000015e8       0x3d /home/hadrien/altera/15.0/nios2eds/bin/gnu/H-x86_64-pc-linux-gnu/bin/../lib/gcc/nios2-elf/4.9.1/../../../../../H-x86_64-pc-linux-gnu/nios2-elf/lib/libc.a(lib_a-int_errno.o)
                                        0x188 (size before relaxing)
 .debug_str     0x0000000000001625      0x1a7 /home/hadrien/altera/15.0/nios2eds/bin/gnu/H-x86_64-pc-linux-gnu/bin/../lib/gcc/nios2-elf/4.9.1/../../../../../H-x86_64-pc-linux-gnu/nios2-elf/lib/libc.a(lib_a-locale.o)
                                        0x7b6 (size before relaxing)
 .debug_str     0x00000000000017cc      0x129 /home/hadrien/altera/15.0/nios2eds/bin/gnu/H-x86_64-pc-linux-gnu/bin/../lib/gcc/nios2-elf/4.9.1/../../../../../H-x86_64-pc-linux-gnu/nios2-elf/lib/libc.a(lib_a-makebuf.o)
                                        0x662 (size before relaxing)
 .debug_str     0x00000000000018f5       0x49 /home/hadrien/altera/15.0/nios2eds/bin/gnu/H-x86_64-pc-linux-gnu/bin/../lib/gcc/nios2-elf/4.9.1/../../../../../H-x86_64-pc-linux-gnu/nios2-elf/lib/libc.a(lib_a-memchr.o)
                                        0x1a9 (size before relaxing)
 .debug_str     0x000000000000193e       0x62 /home/hadrien/altera/15.0/nios2eds/bin/gnu/H-x86_64-pc-linux-gnu/bin/../lib/gcc/nios2-elf/4.9.1/../../../../../H-x86_64-pc-linux-gnu/nios2-elf/lib/libc.a(lib_a-memcpy.o)
                                        0x1b6 (size before relaxing)
 .debug_str     0x00000000000019a0       0x45 /home/hadrien/altera/15.0/nios2eds/bin/gnu/H-x86_64-pc-linux-gnu/bin/../lib/gcc/nios2-elf/4.9.1/../../../../../H-x86_64-pc-linux-gnu/nios2-elf/lib/libc.a(lib_a-memmove.o)
                                        0x1c2 (size before relaxing)
 .debug_str     0x00000000000019e5       0x9b /home/hadrien/altera/15.0/nios2eds/bin/gnu/H-x86_64-pc-linux-gnu/bin/../lib/gcc/nios2-elf/4.9.1/../../../../../H-x86_64-pc-linux-gnu/nios2-elf/lib/libc.a(lib_a-mprec.o)
                                        0x665 (size before relaxing)
 .debug_str     0x0000000000001a80       0x4e /home/hadrien/altera/15.0/nios2eds/bin/gnu/H-x86_64-pc-linux-gnu/bin/../lib/gcc/nios2-elf/4.9.1/../../../../../H-x86_64-pc-linux-gnu/nios2-elf/lib/libc.a(lib_a-reallocr.o)
                                        0x63a (size before relaxing)
 .debug_str     0x0000000000001ace       0xc6 /home/hadrien/altera/15.0/nios2eds/bin/gnu/H-x86_64-pc-linux-gnu/bin/../lib/gcc/nios2-elf/4.9.1/../../../../../H-x86_64-pc-linux-gnu/nios2-elf/lib/libc.a(lib_a-s_fpclassify.o)
                                        0x1b9 (size before relaxing)
 .debug_str     0x0000000000001b94       0x99 /home/hadrien/altera/15.0/nios2eds/bin/gnu/H-x86_64-pc-linux-gnu/bin/../lib/gcc/nios2-elf/4.9.1/../../../../../H-x86_64-pc-linux-gnu/nios2-elf/lib/libc.a(lib_a-stdio.o)
                                        0x5b3 (size before relaxing)
 .debug_str     0x0000000000001c2d       0x3b /home/hadrien/altera/15.0/nios2eds/bin/gnu/H-x86_64-pc-linux-gnu/bin/../lib/gcc/nios2-elf/4.9.1/../../../../../H-x86_64-pc-linux-gnu/nios2-elf/lib/libc.a(lib_a-strcmp.o)
                                        0x188 (size before relaxing)
 .debug_str     0x0000000000001c68       0x3f /home/hadrien/altera/15.0/nios2eds/bin/gnu/H-x86_64-pc-linux-gnu/bin/../lib/gcc/nios2-elf/4.9.1/../../../../../H-x86_64-pc-linux-gnu/nios2-elf/lib/libc.a(lib_a-vfiprintf.o)
                                        0x72a (size before relaxing)
 .debug_str     0x0000000000001ca7       0x3a /home/hadrien/altera/15.0/nios2eds/bin/gnu/H-x86_64-pc-linux-gnu/bin/../lib/gcc/nios2-elf/4.9.1/../../../../../H-x86_64-pc-linux-gnu/nios2-elf/lib/libc.a(lib_a-writer.o)
                                        0x553 (size before relaxing)
 .debug_str     0x0000000000001ce1       0x3a /home/hadrien/altera/15.0/nios2eds/bin/gnu/H-x86_64-pc-linux-gnu/bin/../lib/gcc/nios2-elf/4.9.1/../../../../../H-x86_64-pc-linux-gnu/nios2-elf/lib/libc.a(closer.o)
                                        0x543 (size before relaxing)
 .debug_str     0x0000000000001d1b       0x4b /home/hadrien/altera/15.0/nios2eds/bin/gnu/H-x86_64-pc-linux-gnu/bin/../lib/gcc/nios2-elf/4.9.1/../../../../../H-x86_64-pc-linux-gnu/nios2-elf/lib/libc.a(lib_a-fclose.o)
                                        0x595 (size before relaxing)
 .debug_str     0x0000000000001d66       0x4e /home/hadrien/altera/15.0/nios2eds/bin/gnu/H-x86_64-pc-linux-gnu/bin/../lib/gcc/nios2-elf/4.9.1/../../../../../H-x86_64-pc-linux-gnu/nios2-elf/lib/libc.a(lib_a-fputwc.o)
                                        0x5a3 (size before relaxing)
 .debug_str     0x0000000000001db4       0x46 /home/hadrien/altera/15.0/nios2eds/bin/gnu/H-x86_64-pc-linux-gnu/bin/../lib/gcc/nios2-elf/4.9.1/../../../../../H-x86_64-pc-linux-gnu/nios2-elf/lib/libc.a(lib_a-fstatr.o)
                                        0x636 (size before relaxing)
 .debug_str     0x0000000000001dfa       0x42 /home/hadrien/altera/15.0/nios2eds/bin/gnu/H-x86_64-pc-linux-gnu/bin/../lib/gcc/nios2-elf/4.9.1/../../../../../H-x86_64-pc-linux-gnu/nios2-elf/lib/libc.a(lib_a-isattyr.o)
                                        0x546 (size before relaxing)
 .debug_str     0x0000000000001e3c       0x40 /home/hadrien/altera/15.0/nios2eds/bin/gnu/H-x86_64-pc-linux-gnu/bin/../lib/gcc/nios2-elf/4.9.1/../../../../../H-x86_64-pc-linux-gnu/nios2-elf/lib/libc.a(lib_a-lseekr.o)
                                        0x557 (size before relaxing)
 .debug_str     0x0000000000001e7c       0x39 /home/hadrien/altera/15.0/nios2eds/bin/gnu/H-x86_64-pc-linux-gnu/bin/../lib/gcc/nios2-elf/4.9.1/../../../../../H-x86_64-pc-linux-gnu/nios2-elf/lib/libc.a(lib_a-readr.o)
                                        0x550 (size before relaxing)
 .debug_str     0x0000000000001eb5       0x54 /home/hadrien/altera/15.0/nios2eds/bin/gnu/H-x86_64-pc-linux-gnu/bin/../lib/gcc/nios2-elf/4.9.1/../../../../../H-x86_64-pc-linux-gnu/nios2-elf/lib/libc.a(lib_a-wcrtomb.o)
                                        0x58a (size before relaxing)
 .debug_str     0x0000000000001f09       0x5d /home/hadrien/altera/15.0/nios2eds/bin/gnu/H-x86_64-pc-linux-gnu/bin/../lib/gcc/nios2-elf/4.9.1/../../../../../H-x86_64-pc-linux-gnu/nios2-elf/lib/libc.a(lib_a-wctomb_r.o)
                                        0x599 (size before relaxing)
 .debug_str     0x0000000000001f66      0x16a /home/hadrien/altera/15.0/nios2eds/bin/gnu/H-x86_64-pc-linux-gnu/bin/../lib/gcc/nios2-elf/4.9.1/libgcc.a(_udivdi3.o)
                                        0x275 (size before relaxing)
 .debug_str     0x00000000000020d0        0xa /home/hadrien/altera/15.0/nios2eds/bin/gnu/H-x86_64-pc-linux-gnu/bin/../lib/gcc/nios2-elf/4.9.1/libgcc.a(_umoddi3.o)
                                        0x275 (size before relaxing)
 .debug_str     0x00000000000020da       0xcc /home/hadrien/altera/15.0/nios2eds/bin/gnu/H-x86_64-pc-linux-gnu/bin/../lib/gcc/nios2-elf/4.9.1/libgcc.a(adddf3.o)
                                        0x249 (size before relaxing)
 .debug_str     0x00000000000021a6       0x8a /home/hadrien/altera/15.0/nios2eds/bin/gnu/H-x86_64-pc-linux-gnu/bin/../lib/gcc/nios2-elf/4.9.1/libgcc.a(divdf3.o)
                                        0x28a (size before relaxing)
 .debug_str     0x0000000000002230       0x34 /home/hadrien/altera/15.0/nios2eds/bin/gnu/H-x86_64-pc-linux-gnu/bin/../lib/gcc/nios2-elf/4.9.1/libgcc.a(eqdf2.o)
                                        0x1e4 (size before relaxing)
 .debug_str     0x0000000000002264       0x4c /home/hadrien/altera/15.0/nios2eds/bin/gnu/H-x86_64-pc-linux-gnu/bin/../lib/gcc/nios2-elf/4.9.1/libgcc.a(gedf2.o)
                                        0x1fc (size before relaxing)
 .debug_str     0x00000000000022b0       0x34 /home/hadrien/altera/15.0/nios2eds/bin/gnu/H-x86_64-pc-linux-gnu/bin/../lib/gcc/nios2-elf/4.9.1/libgcc.a(ledf2.o)
                                        0x1fc (size before relaxing)
 .debug_str     0x00000000000022e4       0x8d /home/hadrien/altera/15.0/nios2eds/bin/gnu/H-x86_64-pc-linux-gnu/bin/../lib/gcc/nios2-elf/4.9.1/libgcc.a(muldf3.o)
                                        0x2a2 (size before relaxing)
 .debug_str     0x0000000000002371       0x36 /home/hadrien/altera/15.0/nios2eds/bin/gnu/H-x86_64-pc-linux-gnu/bin/../lib/gcc/nios2-elf/4.9.1/libgcc.a(subdf3.o)
                                        0x249 (size before relaxing)
 .debug_str     0x00000000000023a7       0x40 /home/hadrien/altera/15.0/nios2eds/bin/gnu/H-x86_64-pc-linux-gnu/bin/../lib/gcc/nios2-elf/4.9.1/libgcc.a(fixdfsi.o)
                                        0x1f5 (size before relaxing)
 .debug_str     0x00000000000023e7       0x49 /home/hadrien/altera/15.0/nios2eds/bin/gnu/H-x86_64-pc-linux-gnu/bin/../lib/gcc/nios2-elf/4.9.1/libgcc.a(floatsidf.o)
                                        0x1f9 (size before relaxing)
 .debug_str     0x0000000000002430       0x40 /home/hadrien/altera/15.0/nios2eds/bin/gnu/H-x86_64-pc-linux-gnu/bin/../lib/gcc/nios2-elf/4.9.1/libgcc.a(floatunsidf.o)
                                        0x1f6 (size before relaxing)
 .debug_str     0x0000000000000000      0x1bc /home/hadrien/altera/15.0/nios2eds/bin/gnu/H-x86_64-pc-linux-gnu/bin/../lib/gcc/nios2-elf/4.9.1/libgcc.a(_clz.o)
 .debug_str     0x0000000000002470        0x9 /home/hadrien/altera/15.0/nios2eds/bin/gnu/H-x86_64-pc-linux-gnu/bin/../lib/gcc/nios2-elf/4.9.1/libgcc.a(_clzsi2.o)
                                        0x1d9 (size before relaxing)
 .debug_str     0x0000000000002479       0xd6 /data/workspace/ES/lab03/software/camera_app_bsp//libhal_bsp.a(alt_close.o)
                                        0x1e2 (size before relaxing)
 .debug_str     0x000000000000254f       0x50 /data/workspace/ES/lab03/software/camera_app_bsp//libhal_bsp.a(alt_dev.o)
                                        0x2dc (size before relaxing)
 .debug_str     0x000000000000259f       0x14 /data/workspace/ES/lab03/software/camera_app_bsp//libhal_bsp.a(alt_errno.o)
                                        0x11c (size before relaxing)
 .debug_str     0x00000000000025b3       0x14 /data/workspace/ES/lab03/software/camera_app_bsp//libhal_bsp.a(alt_fstat.o)
                                        0x2c3 (size before relaxing)
 .debug_str     0x00000000000025c7       0x15 /data/workspace/ES/lab03/software/camera_app_bsp//libhal_bsp.a(alt_isatty.o)
                                        0x2cb (size before relaxing)
 .debug_str     0x00000000000025dc       0xf1 /data/workspace/ES/lab03/software/camera_app_bsp//libhal_bsp.a(alt_load.o)
                                        0x1e9 (size before relaxing)
 .debug_str     0x00000000000026cd       0x14 /data/workspace/ES/lab03/software/camera_app_bsp//libhal_bsp.a(alt_lseek.o)
                                        0x1e8 (size before relaxing)
 .debug_str     0x00000000000026e1       0x44 /data/workspace/ES/lab03/software/camera_app_bsp//libhal_bsp.a(alt_main.o)
                                        0x174 (size before relaxing)
 .debug_str     0x0000000000002725       0x1a /data/workspace/ES/lab03/software/camera_app_bsp//libhal_bsp.a(alt_malloc_lock.o)
                                        0x4df (size before relaxing)
 .debug_str     0x000000000000273f       0x13 /data/workspace/ES/lab03/software/camera_app_bsp//libhal_bsp.a(alt_read.o)
                                        0x2ce (size before relaxing)
 .debug_str     0x0000000000002752       0x28 /data/workspace/ES/lab03/software/camera_app_bsp//libhal_bsp.a(alt_release_fd.o)
                                        0x1b6 (size before relaxing)
 .debug_str     0x000000000000277a       0x98 /data/workspace/ES/lab03/software/camera_app_bsp//libhal_bsp.a(alt_sbrk.o)
                                        0x1ab (size before relaxing)
 .debug_str     0x0000000000002812       0x20 /data/workspace/ES/lab03/software/camera_app_bsp//libhal_bsp.a(alt_usleep.o)
                                        0x11f (size before relaxing)
 .debug_str     0x0000000000002832       0x14 /data/workspace/ES/lab03/software/camera_app_bsp//libhal_bsp.a(alt_write.o)
                                        0x2cf (size before relaxing)
 .debug_str     0x0000000000002846      0x153 /data/workspace/ES/lab03/software/camera_app_bsp//libhal_bsp.a(alt_sys_init.o)
                                        0x32d (size before relaxing)
 .debug_str     0x0000000000002999       0xac /data/workspace/ES/lab03/software/camera_app_bsp//libhal_bsp.a(altera_avalon_jtag_uart_fd.o)
                                        0x37b (size before relaxing)
 .debug_str     0x0000000000002a45       0xc9 /data/workspace/ES/lab03/software/camera_app_bsp//libhal_bsp.a(altera_avalon_jtag_uart_init.o)
                                        0x30f (size before relaxing)
 .debug_str     0x0000000000002b0e       0x4a /data/workspace/ES/lab03/software/camera_app_bsp//libhal_bsp.a(altera_avalon_jtag_uart_ioctl.o)
                                        0x26a (size before relaxing)
 .debug_str     0x0000000000002b58       0x48 /data/workspace/ES/lab03/software/camera_app_bsp//libhal_bsp.a(altera_avalon_jtag_uart_read.o)
                                        0x2bf (size before relaxing)
 .debug_str     0x0000000000002ba0       0x4a /data/workspace/ES/lab03/software/camera_app_bsp//libhal_bsp.a(altera_avalon_jtag_uart_write.o)
                                        0x2c0 (size before relaxing)
 .debug_str     0x0000000000002bea       0x5f /data/workspace/ES/lab03/software/camera_app_bsp//libhal_bsp.a(alt_alarm_start.o)
                                        0x255 (size before relaxing)
 .debug_str     0x0000000000002c49       0x42 /data/workspace/ES/lab03/software/camera_app_bsp//libhal_bsp.a(alt_busy_sleep.o)
                                        0x142 (size before relaxing)
 .debug_str     0x0000000000002c8b       0x34 /data/workspace/ES/lab03/software/camera_app_bsp//libhal_bsp.a(alt_dcache_flush_all.o)
                                        0x12c (size before relaxing)
 .debug_str     0x0000000000002cbf       0x34 /data/workspace/ES/lab03/software/camera_app_bsp//libhal_bsp.a(alt_dev_llist_insert.o)
                                        0x1a3 (size before relaxing)
 .debug_str     0x0000000000002cf3       0x48 /data/workspace/ES/lab03/software/camera_app_bsp//libhal_bsp.a(alt_do_ctors.o)
                                         0xb3 (size before relaxing)
 .debug_str     0x0000000000002d3b       0x4c /data/workspace/ES/lab03/software/camera_app_bsp//libhal_bsp.a(alt_do_dtors.o)
                                         0xb2 (size before relaxing)
 .debug_str     0x0000000000002d87       0x34 /data/workspace/ES/lab03/software/camera_app_bsp//libhal_bsp.a(alt_icache_flush_all.o)
                                        0x12c (size before relaxing)
 .debug_str     0x0000000000002dbb       0xc4 /data/workspace/ES/lab03/software/camera_app_bsp//libhal_bsp.a(alt_iic.o)
                                        0x215 (size before relaxing)
 .debug_str     0x0000000000002e7f       0x4c /data/workspace/ES/lab03/software/camera_app_bsp//libhal_bsp.a(alt_iic_isr_register.o)
                                        0x1bf (size before relaxing)
 .debug_str     0x0000000000002ecb       0x56 /data/workspace/ES/lab03/software/camera_app_bsp//libhal_bsp.a(alt_io_redirect.o)
                                        0x2ed (size before relaxing)
 .debug_str     0x0000000000002f21       0x3a /data/workspace/ES/lab03/software/camera_app_bsp//libhal_bsp.a(alt_irq_handler.o)
                                        0x16e (size before relaxing)
 .debug_str     0x0000000000002f5b       0x17 /data/workspace/ES/lab03/software/camera_app_bsp//libhal_bsp.a(alt_irq_vars.o)
                                        0x11d (size before relaxing)
 .debug_str     0x0000000000002f72       0x29 /data/workspace/ES/lab03/software/camera_app_bsp//libhal_bsp.a(alt_open.o)
                                        0x222 (size before relaxing)
 .debug_str     0x0000000000002f9b       0x4a /data/workspace/ES/lab03/software/camera_app_bsp//libhal_bsp.a(alt_tick.o)
                                        0x229 (size before relaxing)
 .debug_str     0x0000000000002fe5       0x3b /data/workspace/ES/lab03/software/camera_app_bsp//libhal_bsp.a(altera_nios2_qsys_irq.o)
                                        0x133 (size before relaxing)
 .debug_str     0x0000000000003020       0x24 /data/workspace/ES/lab03/software/camera_app_bsp//libhal_bsp.a(alt_find_dev.o)
                                        0x1c3 (size before relaxing)
 .debug_str     0x0000000000003044       0x26 /data/workspace/ES/lab03/software/camera_app_bsp//libhal_bsp.a(alt_find_file.o)
                                        0x1d1 (size before relaxing)
 .debug_str     0x000000000000306a       0x30 /data/workspace/ES/lab03/software/camera_app_bsp//libhal_bsp.a(alt_get_fd.o)
                                        0x1f3 (size before relaxing)
 .debug_str     0x000000000000309a       0x2c /data/workspace/ES/lab03/software/camera_app_bsp//libhal_bsp.a(alt_icache_flush.o)
                                        0x132 (size before relaxing)
 .debug_str     0x00000000000030c6       0x7f /home/hadrien/altera/15.0/nios2eds/bin/gnu/H-x86_64-pc-linux-gnu/bin/../lib/gcc/nios2-elf/4.9.1/../../../../../H-x86_64-pc-linux-gnu/nios2-elf/lib/libc.a(lib_a-atexit.o)
                                        0x1cc (size before relaxing)
 .debug_str     0x0000000000003145       0x4a /home/hadrien/altera/15.0/nios2eds/bin/gnu/H-x86_64-pc-linux-gnu/bin/../lib/gcc/nios2-elf/4.9.1/../../../../../H-x86_64-pc-linux-gnu/nios2-elf/lib/libc.a(lib_a-exit.o)
                                        0x562 (size before relaxing)
 .debug_str     0x000000000000318f       0x42 /home/hadrien/altera/15.0/nios2eds/bin/gnu/H-x86_64-pc-linux-gnu/bin/../lib/gcc/nios2-elf/4.9.1/../../../../../H-x86_64-pc-linux-gnu/nios2-elf/lib/libc.a(lib_a-memcmp.o)
                                        0x18f (size before relaxing)
 .debug_str     0x00000000000031d1       0x4b /home/hadrien/altera/15.0/nios2eds/bin/gnu/H-x86_64-pc-linux-gnu/bin/../lib/gcc/nios2-elf/4.9.1/../../../../../H-x86_64-pc-linux-gnu/nios2-elf/lib/libc.a(lib_a-__atexit.o)
                                        0x5af (size before relaxing)
 .debug_str     0x000000000000321c       0x50 /home/hadrien/altera/15.0/nios2eds/bin/gnu/H-x86_64-pc-linux-gnu/bin/../lib/gcc/nios2-elf/4.9.1/../../../../../H-x86_64-pc-linux-gnu/nios2-elf/lib/libc.a(lib_a-__call_atexit.o)
                                        0x578 (size before relaxing)
 .debug_str     0x000000000000326c       0x2a /data/workspace/ES/lab03/software/camera_app_bsp//libhal_bsp.a(alt_exit.o)
                                        0x128 (size before relaxing)

.debug_loc      0x0000000000000000    0x16f41
 *(.debug_loc)
 .debug_loc     0x0000000000000000      0x273 /home/hadrien/altera/15.0/nios2eds/bin/gnu/H-x86_64-pc-linux-gnu/bin/../lib/gcc/nios2-elf/4.9.1/libgcc.a(lib2-divmod.o)
 .debug_loc     0x0000000000000273       0x58 /home/hadrien/altera/15.0/nios2eds/bin/gnu/H-x86_64-pc-linux-gnu/bin/../lib/gcc/nios2-elf/4.9.1/../../../../../H-x86_64-pc-linux-gnu/nios2-elf/lib/libc.a(lib_a-calloc.o)
 .debug_loc     0x00000000000002cb      0x24b /home/hadrien/altera/15.0/nios2eds/bin/gnu/H-x86_64-pc-linux-gnu/bin/../lib/gcc/nios2-elf/4.9.1/../../../../../H-x86_64-pc-linux-gnu/nios2-elf/lib/libc.a(lib_a-callocr.o)
 .debug_loc     0x0000000000000516      0xbad /home/hadrien/altera/15.0/nios2eds/bin/gnu/H-x86_64-pc-linux-gnu/bin/../lib/gcc/nios2-elf/4.9.1/../../../../../H-x86_64-pc-linux-gnu/nios2-elf/lib/libc.a(lib_a-mallocr.o)
 .debug_loc     0x00000000000010c3      0x190 /home/hadrien/altera/15.0/nios2eds/bin/gnu/H-x86_64-pc-linux-gnu/bin/../lib/gcc/nios2-elf/4.9.1/../../../../../H-x86_64-pc-linux-gnu/nios2-elf/lib/libc.a(lib_a-memset.o)
 .debug_loc     0x0000000000001253       0xd3 /home/hadrien/altera/15.0/nios2eds/bin/gnu/H-x86_64-pc-linux-gnu/bin/../lib/gcc/nios2-elf/4.9.1/../../../../../H-x86_64-pc-linux-gnu/nios2-elf/lib/libc.a(lib_a-printf.o)
 .debug_loc     0x0000000000001326      0x1ab /home/hadrien/altera/15.0/nios2eds/bin/gnu/H-x86_64-pc-linux-gnu/bin/../lib/gcc/nios2-elf/4.9.1/../../../../../H-x86_64-pc-linux-gnu/nios2-elf/lib/libc.a(lib_a-putc.o)
 .debug_loc     0x00000000000014d1       0xb9 /home/hadrien/altera/15.0/nios2eds/bin/gnu/H-x86_64-pc-linux-gnu/bin/../lib/gcc/nios2-elf/4.9.1/../../../../../H-x86_64-pc-linux-gnu/nios2-elf/lib/libc.a(lib_a-puts.o)
 .debug_loc     0x000000000000158a       0x58 /home/hadrien/altera/15.0/nios2eds/bin/gnu/H-x86_64-pc-linux-gnu/bin/../lib/gcc/nios2-elf/4.9.1/../../../../../H-x86_64-pc-linux-gnu/nios2-elf/lib/libc.a(lib_a-sbrkr.o)
 .debug_loc     0x00000000000015e2       0x47 /home/hadrien/altera/15.0/nios2eds/bin/gnu/H-x86_64-pc-linux-gnu/bin/../lib/gcc/nios2-elf/4.9.1/../../../../../H-x86_64-pc-linux-gnu/nios2-elf/lib/libc.a(lib_a-strlen.o)
 .debug_loc     0x0000000000001629     0x2d0e /home/hadrien/altera/15.0/nios2eds/bin/gnu/H-x86_64-pc-linux-gnu/bin/../lib/gcc/nios2-elf/4.9.1/../../../../../H-x86_64-pc-linux-gnu/nios2-elf/lib/libc.a(lib_a-vfprintf.o)
 .debug_loc     0x0000000000004337      0x165 /home/hadrien/altera/15.0/nios2eds/bin/gnu/H-x86_64-pc-linux-gnu/bin/../lib/gcc/nios2-elf/4.9.1/../../../../../H-x86_64-pc-linux-gnu/nios2-elf/lib/libc.a(lib_a-wbuf.o)
 .debug_loc     0x000000000000449c       0x84 /home/hadrien/altera/15.0/nios2eds/bin/gnu/H-x86_64-pc-linux-gnu/bin/../lib/gcc/nios2-elf/4.9.1/../../../../../H-x86_64-pc-linux-gnu/nios2-elf/lib/libc.a(lib_a-wsetup.o)
 .debug_loc     0x0000000000004520     0x299a /home/hadrien/altera/15.0/nios2eds/bin/gnu/H-x86_64-pc-linux-gnu/bin/../lib/gcc/nios2-elf/4.9.1/../../../../../H-x86_64-pc-linux-gnu/nios2-elf/lib/libc.a(lib_a-dtoa.o)
 .debug_loc     0x0000000000006eba      0x23e /home/hadrien/altera/15.0/nios2eds/bin/gnu/H-x86_64-pc-linux-gnu/bin/../lib/gcc/nios2-elf/4.9.1/../../../../../H-x86_64-pc-linux-gnu/nios2-elf/lib/libc.a(lib_a-fflush.o)
 .debug_loc     0x00000000000070f8      0x208 /home/hadrien/altera/15.0/nios2eds/bin/gnu/H-x86_64-pc-linux-gnu/bin/../lib/gcc/nios2-elf/4.9.1/../../../../../H-x86_64-pc-linux-gnu/nios2-elf/lib/libc.a(lib_a-findfp.o)
 .debug_loc     0x0000000000007300      0x4d3 /home/hadrien/altera/15.0/nios2eds/bin/gnu/H-x86_64-pc-linux-gnu/bin/../lib/gcc/nios2-elf/4.9.1/../../../../../H-x86_64-pc-linux-gnu/nios2-elf/lib/libc.a(lib_a-freer.o)
 .debug_loc     0x00000000000077d3      0x5ca /home/hadrien/altera/15.0/nios2eds/bin/gnu/H-x86_64-pc-linux-gnu/bin/../lib/gcc/nios2-elf/4.9.1/../../../../../H-x86_64-pc-linux-gnu/nios2-elf/lib/libc.a(lib_a-fvwrite.o)
 .debug_loc     0x0000000000007d9d      0x2d4 /home/hadrien/altera/15.0/nios2eds/bin/gnu/H-x86_64-pc-linux-gnu/bin/../lib/gcc/nios2-elf/4.9.1/../../../../../H-x86_64-pc-linux-gnu/nios2-elf/lib/libc.a(lib_a-fwalk.o)
 .debug_loc     0x0000000000008071      0x11b /home/hadrien/altera/15.0/nios2eds/bin/gnu/H-x86_64-pc-linux-gnu/bin/../lib/gcc/nios2-elf/4.9.1/../../../../../H-x86_64-pc-linux-gnu/nios2-elf/lib/libc.a(lib_a-locale.o)
 .debug_loc     0x000000000000818c      0x132 /home/hadrien/altera/15.0/nios2eds/bin/gnu/H-x86_64-pc-linux-gnu/bin/../lib/gcc/nios2-elf/4.9.1/../../../../../H-x86_64-pc-linux-gnu/nios2-elf/lib/libc.a(lib_a-makebuf.o)
 .debug_loc     0x00000000000082be      0x19f /home/hadrien/altera/15.0/nios2eds/bin/gnu/H-x86_64-pc-linux-gnu/bin/../lib/gcc/nios2-elf/4.9.1/../../../../../H-x86_64-pc-linux-gnu/nios2-elf/lib/libc.a(lib_a-memchr.o)
 .debug_loc     0x000000000000845d      0x2a2 /home/hadrien/altera/15.0/nios2eds/bin/gnu/H-x86_64-pc-linux-gnu/bin/../lib/gcc/nios2-elf/4.9.1/../../../../../H-x86_64-pc-linux-gnu/nios2-elf/lib/libc.a(lib_a-memcpy.o)
 .debug_loc     0x00000000000086ff      0x34f /home/hadrien/altera/15.0/nios2eds/bin/gnu/H-x86_64-pc-linux-gnu/bin/../lib/gcc/nios2-elf/4.9.1/../../../../../H-x86_64-pc-linux-gnu/nios2-elf/lib/libc.a(lib_a-memmove.o)
 .debug_loc     0x0000000000008a4e     0x1a3e /home/hadrien/altera/15.0/nios2eds/bin/gnu/H-x86_64-pc-linux-gnu/bin/../lib/gcc/nios2-elf/4.9.1/../../../../../H-x86_64-pc-linux-gnu/nios2-elf/lib/libc.a(lib_a-mprec.o)
 .debug_loc     0x000000000000a48c      0xe5b /home/hadrien/altera/15.0/nios2eds/bin/gnu/H-x86_64-pc-linux-gnu/bin/../lib/gcc/nios2-elf/4.9.1/../../../../../H-x86_64-pc-linux-gnu/nios2-elf/lib/libc.a(lib_a-reallocr.o)
 .debug_loc     0x000000000000b2e7       0x2f /home/hadrien/altera/15.0/nios2eds/bin/gnu/H-x86_64-pc-linux-gnu/bin/../lib/gcc/nios2-elf/4.9.1/../../../../../H-x86_64-pc-linux-gnu/nios2-elf/lib/libc.a(lib_a-s_fpclassify.o)
 .debug_loc     0x000000000000b316      0x319 /home/hadrien/altera/15.0/nios2eds/bin/gnu/H-x86_64-pc-linux-gnu/bin/../lib/gcc/nios2-elf/4.9.1/../../../../../H-x86_64-pc-linux-gnu/nios2-elf/lib/libc.a(lib_a-stdio.o)
 .debug_loc     0x000000000000b62f       0xb0 /home/hadrien/altera/15.0/nios2eds/bin/gnu/H-x86_64-pc-linux-gnu/bin/../lib/gcc/nios2-elf/4.9.1/../../../../../H-x86_64-pc-linux-gnu/nios2-elf/lib/libc.a(lib_a-strcmp.o)
 .debug_loc     0x000000000000b6df     0x2340 /home/hadrien/altera/15.0/nios2eds/bin/gnu/H-x86_64-pc-linux-gnu/bin/../lib/gcc/nios2-elf/4.9.1/../../../../../H-x86_64-pc-linux-gnu/nios2-elf/lib/libc.a(lib_a-vfiprintf.o)
 .debug_loc     0x000000000000da1f       0xb0 /home/hadrien/altera/15.0/nios2eds/bin/gnu/H-x86_64-pc-linux-gnu/bin/../lib/gcc/nios2-elf/4.9.1/../../../../../H-x86_64-pc-linux-gnu/nios2-elf/lib/libc.a(lib_a-writer.o)
 .debug_loc     0x000000000000dacf       0x58 /home/hadrien/altera/15.0/nios2eds/bin/gnu/H-x86_64-pc-linux-gnu/bin/../lib/gcc/nios2-elf/4.9.1/../../../../../H-x86_64-pc-linux-gnu/nios2-elf/lib/libc.a(closer.o)
 .debug_loc     0x000000000000db27      0x12b /home/hadrien/altera/15.0/nios2eds/bin/gnu/H-x86_64-pc-linux-gnu/bin/../lib/gcc/nios2-elf/4.9.1/../../../../../H-x86_64-pc-linux-gnu/nios2-elf/lib/libc.a(lib_a-fclose.o)
 .debug_loc     0x000000000000dc52      0x223 /home/hadrien/altera/15.0/nios2eds/bin/gnu/H-x86_64-pc-linux-gnu/bin/../lib/gcc/nios2-elf/4.9.1/../../../../../H-x86_64-pc-linux-gnu/nios2-elf/lib/libc.a(lib_a-fputwc.o)
 .debug_loc     0x000000000000de75       0x84 /home/hadrien/altera/15.0/nios2eds/bin/gnu/H-x86_64-pc-linux-gnu/bin/../lib/gcc/nios2-elf/4.9.1/../../../../../H-x86_64-pc-linux-gnu/nios2-elf/lib/libc.a(lib_a-fstatr.o)
 .debug_loc     0x000000000000def9       0x58 /home/hadrien/altera/15.0/nios2eds/bin/gnu/H-x86_64-pc-linux-gnu/bin/../lib/gcc/nios2-elf/4.9.1/../../../../../H-x86_64-pc-linux-gnu/nios2-elf/lib/libc.a(lib_a-isattyr.o)
 .debug_loc     0x000000000000df51       0xb0 /home/hadrien/altera/15.0/nios2eds/bin/gnu/H-x86_64-pc-linux-gnu/bin/../lib/gcc/nios2-elf/4.9.1/../../../../../H-x86_64-pc-linux-gnu/nios2-elf/lib/libc.a(lib_a-lseekr.o)
 .debug_loc     0x000000000000e001       0xb0 /home/hadrien/altera/15.0/nios2eds/bin/gnu/H-x86_64-pc-linux-gnu/bin/../lib/gcc/nios2-elf/4.9.1/../../../../../H-x86_64-pc-linux-gnu/nios2-elf/lib/libc.a(lib_a-readr.o)
 .debug_loc     0x000000000000e0b1      0x230 /home/hadrien/altera/15.0/nios2eds/bin/gnu/H-x86_64-pc-linux-gnu/bin/../lib/gcc/nios2-elf/4.9.1/../../../../../H-x86_64-pc-linux-gnu/nios2-elf/lib/libc.a(lib_a-wcrtomb.o)
 .debug_loc     0x000000000000e2e1       0x8f /home/hadrien/altera/15.0/nios2eds/bin/gnu/H-x86_64-pc-linux-gnu/bin/../lib/gcc/nios2-elf/4.9.1/../../../../../H-x86_64-pc-linux-gnu/nios2-elf/lib/libc.a(lib_a-wctomb_r.o)
 .debug_loc     0x000000000000e370     0x11a3 /home/hadrien/altera/15.0/nios2eds/bin/gnu/H-x86_64-pc-linux-gnu/bin/../lib/gcc/nios2-elf/4.9.1/libgcc.a(_udivdi3.o)
 .debug_loc     0x000000000000f513     0x118c /home/hadrien/altera/15.0/nios2eds/bin/gnu/H-x86_64-pc-linux-gnu/bin/../lib/gcc/nios2-elf/4.9.1/libgcc.a(_umoddi3.o)
 .debug_loc     0x000000000001069f     0x16ec /home/hadrien/altera/15.0/nios2eds/bin/gnu/H-x86_64-pc-linux-gnu/bin/../lib/gcc/nios2-elf/4.9.1/libgcc.a(adddf3.o)
 .debug_loc     0x0000000000011d8b     0x1f03 /home/hadrien/altera/15.0/nios2eds/bin/gnu/H-x86_64-pc-linux-gnu/bin/../lib/gcc/nios2-elf/4.9.1/libgcc.a(divdf3.o)
 .debug_loc     0x0000000000013c8e       0x52 /home/hadrien/altera/15.0/nios2eds/bin/gnu/H-x86_64-pc-linux-gnu/bin/../lib/gcc/nios2-elf/4.9.1/libgcc.a(eqdf2.o)
 .debug_loc     0x0000000000013ce0      0x109 /home/hadrien/altera/15.0/nios2eds/bin/gnu/H-x86_64-pc-linux-gnu/bin/../lib/gcc/nios2-elf/4.9.1/libgcc.a(gedf2.o)
 .debug_loc     0x0000000000013de9       0xfc /home/hadrien/altera/15.0/nios2eds/bin/gnu/H-x86_64-pc-linux-gnu/bin/../lib/gcc/nios2-elf/4.9.1/libgcc.a(ledf2.o)
 .debug_loc     0x0000000000013ee5     0x107e /home/hadrien/altera/15.0/nios2eds/bin/gnu/H-x86_64-pc-linux-gnu/bin/../lib/gcc/nios2-elf/4.9.1/libgcc.a(muldf3.o)
 .debug_loc     0x0000000000014f63     0x1660 /home/hadrien/altera/15.0/nios2eds/bin/gnu/H-x86_64-pc-linux-gnu/bin/../lib/gcc/nios2-elf/4.9.1/libgcc.a(subdf3.o)
 .debug_loc     0x00000000000165c3      0x136 /home/hadrien/altera/15.0/nios2eds/bin/gnu/H-x86_64-pc-linux-gnu/bin/../lib/gcc/nios2-elf/4.9.1/libgcc.a(fixdfsi.o)
 .debug_loc     0x00000000000166f9      0x17f /home/hadrien/altera/15.0/nios2eds/bin/gnu/H-x86_64-pc-linux-gnu/bin/../lib/gcc/nios2-elf/4.9.1/libgcc.a(floatsidf.o)
 .debug_loc     0x0000000000016878      0x1b4 /home/hadrien/altera/15.0/nios2eds/bin/gnu/H-x86_64-pc-linux-gnu/bin/../lib/gcc/nios2-elf/4.9.1/libgcc.a(floatunsidf.o)
 .debug_loc     0x0000000000016a2c       0x7a /home/hadrien/altera/15.0/nios2eds/bin/gnu/H-x86_64-pc-linux-gnu/bin/../lib/gcc/nios2-elf/4.9.1/libgcc.a(_clzsi2.o)
 .debug_loc     0x0000000000016aa6       0x2c /home/hadrien/altera/15.0/nios2eds/bin/gnu/H-x86_64-pc-linux-gnu/bin/../lib/gcc/nios2-elf/4.9.1/../../../../../H-x86_64-pc-linux-gnu/nios2-elf/lib/libc.a(lib_a-atexit.o)
 .debug_loc     0x0000000000016ad2       0x1e /home/hadrien/altera/15.0/nios2eds/bin/gnu/H-x86_64-pc-linux-gnu/bin/../lib/gcc/nios2-elf/4.9.1/../../../../../H-x86_64-pc-linux-gnu/nios2-elf/lib/libc.a(lib_a-exit.o)
 .debug_loc     0x0000000000016af0      0x126 /home/hadrien/altera/15.0/nios2eds/bin/gnu/H-x86_64-pc-linux-gnu/bin/../lib/gcc/nios2-elf/4.9.1/../../../../../H-x86_64-pc-linux-gnu/nios2-elf/lib/libc.a(lib_a-memcmp.o)
 .debug_loc     0x0000000000016c16      0x185 /home/hadrien/altera/15.0/nios2eds/bin/gnu/H-x86_64-pc-linux-gnu/bin/../lib/gcc/nios2-elf/4.9.1/../../../../../H-x86_64-pc-linux-gnu/nios2-elf/lib/libc.a(lib_a-__atexit.o)
 .debug_loc     0x0000000000016d9b      0x1a6 /home/hadrien/altera/15.0/nios2eds/bin/gnu/H-x86_64-pc-linux-gnu/bin/../lib/gcc/nios2-elf/4.9.1/../../../../../H-x86_64-pc-linux-gnu/nios2-elf/lib/libc.a(lib_a-__call_atexit.o)

.debug_macinfo
 *(.debug_macinfo)

.debug_weaknames
 *(.debug_weaknames)

.debug_funcnames
 *(.debug_funcnames)

.debug_typenames
 *(.debug_typenames)

.debug_varnames
 *(.debug_varnames)

.debug_alt_sim_info
                0x0000000000000000       0x50
 *(.debug_alt_sim_info)
 .debug_alt_sim_info
                0x0000000000000000       0x20 /data/workspace/ES/lab03/software/camera_app_bsp//obj/HAL/src/crt0.o
 .debug_alt_sim_info
                0x0000000000000020       0x30 /data/workspace/ES/lab03/software/camera_app_bsp//libhal_bsp.a(alt_busy_sleep.o)
                0x0000000002000000                __alt_data_end = 0x2000000
                0x0000000002000000                PROVIDE (__alt_stack_pointer, __alt_data_end)
                0x0000000000013930                PROVIDE (__alt_stack_limit, __alt_stack_base)
                0x0000000000013930                PROVIDE (__alt_heap_start, end)
                0x0000000002000000                PROVIDE (__alt_heap_limit, 0x2000000)
OUTPUT(camera_app.elf elf32-littlenios2)

.debug_ranges   0x0000000000000000     0x1368
 .debug_ranges  0x0000000000000000       0x20 /data/workspace/ES/lab03/software/camera_app_bsp//obj/HAL/src/crt0.o
 .debug_ranges  0x0000000000000020       0x48 /home/hadrien/altera/15.0/nios2eds/bin/gnu/H-x86_64-pc-linux-gnu/bin/../lib/gcc/nios2-elf/4.9.1/../../../../../H-x86_64-pc-linux-gnu/nios2-elf/lib/libc.a(lib_a-callocr.o)
 .debug_ranges  0x0000000000000068       0x38 /home/hadrien/altera/15.0/nios2eds/bin/gnu/H-x86_64-pc-linux-gnu/bin/../lib/gcc/nios2-elf/4.9.1/../../../../../H-x86_64-pc-linux-gnu/nios2-elf/lib/libc.a(lib_a-mallocr.o)
 .debug_ranges  0x00000000000000a0      0x130 /home/hadrien/altera/15.0/nios2eds/bin/gnu/H-x86_64-pc-linux-gnu/bin/../lib/gcc/nios2-elf/4.9.1/../../../../../H-x86_64-pc-linux-gnu/nios2-elf/lib/libc.a(lib_a-vfprintf.o)
 .debug_ranges  0x00000000000001d0       0x20 /home/hadrien/altera/15.0/nios2eds/bin/gnu/H-x86_64-pc-linux-gnu/bin/../lib/gcc/nios2-elf/4.9.1/../../../../../H-x86_64-pc-linux-gnu/nios2-elf/lib/libc.a(lib_a-fflush.o)
 .debug_ranges  0x00000000000001f0       0x68 /home/hadrien/altera/15.0/nios2eds/bin/gnu/H-x86_64-pc-linux-gnu/bin/../lib/gcc/nios2-elf/4.9.1/../../../../../H-x86_64-pc-linux-gnu/nios2-elf/lib/libc.a(lib_a-findfp.o)
 .debug_ranges  0x0000000000000258       0x18 /home/hadrien/altera/15.0/nios2eds/bin/gnu/H-x86_64-pc-linux-gnu/bin/../lib/gcc/nios2-elf/4.9.1/../../../../../H-x86_64-pc-linux-gnu/nios2-elf/lib/libc.a(lib_a-fvwrite.o)
 .debug_ranges  0x0000000000000270       0x40 /home/hadrien/altera/15.0/nios2eds/bin/gnu/H-x86_64-pc-linux-gnu/bin/../lib/gcc/nios2-elf/4.9.1/../../../../../H-x86_64-pc-linux-gnu/nios2-elf/lib/libc.a(lib_a-fwalk.o)
 .debug_ranges  0x00000000000002b0       0x18 /home/hadrien/altera/15.0/nios2eds/bin/gnu/H-x86_64-pc-linux-gnu/bin/../lib/gcc/nios2-elf/4.9.1/../../../../../H-x86_64-pc-linux-gnu/nios2-elf/lib/libc.a(lib_a-locale.o)
 .debug_ranges  0x00000000000002c8       0x50 /home/hadrien/altera/15.0/nios2eds/bin/gnu/H-x86_64-pc-linux-gnu/bin/../lib/gcc/nios2-elf/4.9.1/../../../../../H-x86_64-pc-linux-gnu/nios2-elf/lib/libc.a(lib_a-mprec.o)
 .debug_ranges  0x0000000000000318      0x140 /home/hadrien/altera/15.0/nios2eds/bin/gnu/H-x86_64-pc-linux-gnu/bin/../lib/gcc/nios2-elf/4.9.1/../../../../../H-x86_64-pc-linux-gnu/nios2-elf/lib/libc.a(lib_a-reallocr.o)
 .debug_ranges  0x0000000000000458      0x1c0 /home/hadrien/altera/15.0/nios2eds/bin/gnu/H-x86_64-pc-linux-gnu/bin/../lib/gcc/nios2-elf/4.9.1/../../../../../H-x86_64-pc-linux-gnu/nios2-elf/lib/libc.a(lib_a-vfiprintf.o)
 .debug_ranges  0x0000000000000618       0x18 /home/hadrien/altera/15.0/nios2eds/bin/gnu/H-x86_64-pc-linux-gnu/bin/../lib/gcc/nios2-elf/4.9.1/../../../../../H-x86_64-pc-linux-gnu/nios2-elf/lib/libc.a(lib_a-fclose.o)
 .debug_ranges  0x0000000000000630       0x18 /home/hadrien/altera/15.0/nios2eds/bin/gnu/H-x86_64-pc-linux-gnu/bin/../lib/gcc/nios2-elf/4.9.1/../../../../../H-x86_64-pc-linux-gnu/nios2-elf/lib/libc.a(lib_a-fputwc.o)
 .debug_ranges  0x0000000000000648      0x170 /home/hadrien/altera/15.0/nios2eds/bin/gnu/H-x86_64-pc-linux-gnu/bin/../lib/gcc/nios2-elf/4.9.1/libgcc.a(_udivdi3.o)
 .debug_ranges  0x00000000000007b8      0x150 /home/hadrien/altera/15.0/nios2eds/bin/gnu/H-x86_64-pc-linux-gnu/bin/../lib/gcc/nios2-elf/4.9.1/libgcc.a(_umoddi3.o)
 .debug_ranges  0x0000000000000908      0x238 /home/hadrien/altera/15.0/nios2eds/bin/gnu/H-x86_64-pc-linux-gnu/bin/../lib/gcc/nios2-elf/4.9.1/libgcc.a(adddf3.o)
 .debug_ranges  0x0000000000000b40      0x140 /home/hadrien/altera/15.0/nios2eds/bin/gnu/H-x86_64-pc-linux-gnu/bin/../lib/gcc/nios2-elf/4.9.1/libgcc.a(divdf3.o)
 .debug_ranges  0x0000000000000c80       0x48 /home/hadrien/altera/15.0/nios2eds/bin/gnu/H-x86_64-pc-linux-gnu/bin/../lib/gcc/nios2-elf/4.9.1/libgcc.a(eqdf2.o)
 .debug_ranges  0x0000000000000cc8       0x90 /home/hadrien/altera/15.0/nios2eds/bin/gnu/H-x86_64-pc-linux-gnu/bin/../lib/gcc/nios2-elf/4.9.1/libgcc.a(gedf2.o)
 .debug_ranges  0x0000000000000d58       0x88 /home/hadrien/altera/15.0/nios2eds/bin/gnu/H-x86_64-pc-linux-gnu/bin/../lib/gcc/nios2-elf/4.9.1/libgcc.a(ledf2.o)
 .debug_ranges  0x0000000000000de0      0x218 /home/hadrien/altera/15.0/nios2eds/bin/gnu/H-x86_64-pc-linux-gnu/bin/../lib/gcc/nios2-elf/4.9.1/libgcc.a(muldf3.o)
 .debug_ranges  0x0000000000000ff8      0x258 /home/hadrien/altera/15.0/nios2eds/bin/gnu/H-x86_64-pc-linux-gnu/bin/../lib/gcc/nios2-elf/4.9.1/libgcc.a(subdf3.o)
 .debug_ranges  0x0000000000001250       0x38 /home/hadrien/altera/15.0/nios2eds/bin/gnu/H-x86_64-pc-linux-gnu/bin/../lib/gcc/nios2-elf/4.9.1/libgcc.a(fixdfsi.o)
 .debug_ranges  0x0000000000001288       0x30 /home/hadrien/altera/15.0/nios2eds/bin/gnu/H-x86_64-pc-linux-gnu/bin/../lib/gcc/nios2-elf/4.9.1/libgcc.a(floatsidf.o)
 .debug_ranges  0x00000000000012b8       0x18 /home/hadrien/altera/15.0/nios2eds/bin/gnu/H-x86_64-pc-linux-gnu/bin/../lib/gcc/nios2-elf/4.9.1/libgcc.a(floatunsidf.o)
 .debug_ranges  0x00000000000012d0       0x18 /home/hadrien/altera/15.0/nios2eds/bin/gnu/H-x86_64-pc-linux-gnu/bin/../lib/gcc/nios2-elf/4.9.1/libgcc.a(_clzsi2.o)
 .debug_ranges  0x00000000000012e8       0x28 /data/workspace/ES/lab03/software/camera_app_bsp//libhal_bsp.a(alt_irq_entry.o)
 .debug_ranges  0x0000000000001310       0x10 /data/workspace/ES/lab03/software/camera_app_bsp//libhal_bsp.a(alt_irq_handler.o)
 .debug_ranges  0x0000000000001320       0x30 /data/workspace/ES/lab03/software/camera_app_bsp//libhal_bsp.a(alt_exception_entry.o)
 .debug_ranges  0x0000000000001350       0x18 /home/hadrien/altera/15.0/nios2eds/bin/gnu/H-x86_64-pc-linux-gnu/bin/../lib/gcc/nios2-elf/4.9.1/../../../../../H-x86_64-pc-linux-gnu/nios2-elf/lib/libc.a(lib_a-__call_atexit.o)
