
camera_app.elf:     file format elf32-littlenios2


Disassembly of section .entry:

02000000 <__reset>:
 2000000:	00840014 	movui	r2,4096
 2000004:	1001483a 	initi	r2
 2000008:	10bff804 	addi	r2,r2,-32
 200000c:	00bffd16 	blt	zero,r2,2000004 <__reset+0x4>
 2000010:	00408034 	movhi	at,512
 2000014:	08406f14 	ori	at,at,444
 2000018:	0800683a 	jmp	at
 200001c:	00000000 	call	0 <__alt_mem_sdram-0x2000000>

Disassembly of section .exceptions:

02000020 <alt_exception>:
 2000020:	deffed04 	addi	sp,sp,-76
 2000024:	dfc00015 	stw	ra,0(sp)
 2000028:	d8400215 	stw	at,8(sp)
 200002c:	d8800315 	stw	r2,12(sp)
 2000030:	d8c00415 	stw	r3,16(sp)
 2000034:	d9000515 	stw	r4,20(sp)
 2000038:	d9400615 	stw	r5,24(sp)
 200003c:	d9800715 	stw	r6,28(sp)
 2000040:	d9c00815 	stw	r7,32(sp)
 2000044:	000b307a 	rdctl	r5,estatus
 2000048:	da000915 	stw	r8,36(sp)
 200004c:	da400a15 	stw	r9,40(sp)
 2000050:	da800b15 	stw	r10,44(sp)
 2000054:	dac00c15 	stw	r11,48(sp)
 2000058:	db000d15 	stw	r12,52(sp)
 200005c:	db400e15 	stw	r13,56(sp)
 2000060:	db800f15 	stw	r14,60(sp)
 2000064:	dbc01015 	stw	r15,64(sp)
 2000068:	d9401115 	stw	r5,68(sp)
 200006c:	ebffff04 	addi	r15,ea,-4
 2000070:	dbc01215 	stw	r15,72(sp)
 2000074:	0009313a 	rdctl	r4,ipending
 2000078:	2880004c 	andi	r2,r5,1
 200007c:	10000326 	beq	r2,zero,200008c <alt_exception+0x6c>
 2000080:	20000226 	beq	r4,zero,200008c <alt_exception+0x6c>
 2000084:	20000ec0 	call	20000ec <alt_irq_handler>
 2000088:	00000306 	br	2000098 <alt_exception_unknown+0x4>
 200008c:	df401215 	stw	ea,72(sp)
 2000090:	e8bfff17 	ldw	r2,-4(ea)

02000094 <alt_exception_unknown>:
 2000094:	003da03a 	break	0
 2000098:	d9401117 	ldw	r5,68(sp)
 200009c:	df401217 	ldw	ea,72(sp)
 20000a0:	dfc00017 	ldw	ra,0(sp)
 20000a4:	2801707a 	wrctl	estatus,r5
 20000a8:	d8400217 	ldw	at,8(sp)
 20000ac:	d8800317 	ldw	r2,12(sp)
 20000b0:	d8c00417 	ldw	r3,16(sp)
 20000b4:	d9000517 	ldw	r4,20(sp)
 20000b8:	d9400617 	ldw	r5,24(sp)
 20000bc:	d9800717 	ldw	r6,28(sp)
 20000c0:	d9c00817 	ldw	r7,32(sp)
 20000c4:	da000917 	ldw	r8,36(sp)
 20000c8:	da400a17 	ldw	r9,40(sp)
 20000cc:	da800b17 	ldw	r10,44(sp)
 20000d0:	dac00c17 	ldw	r11,48(sp)
 20000d4:	db000d17 	ldw	r12,52(sp)
 20000d8:	db400e17 	ldw	r13,56(sp)
 20000dc:	db800f17 	ldw	r14,60(sp)
 20000e0:	dbc01017 	ldw	r15,64(sp)
 20000e4:	dec01304 	addi	sp,sp,76
 20000e8:	ef80083a 	eret

020000ec <alt_irq_handler>:
 20000ec:	defff904 	addi	sp,sp,-28
 20000f0:	dfc00615 	stw	ra,24(sp)
 20000f4:	df000515 	stw	fp,20(sp)
 20000f8:	df000504 	addi	fp,sp,20
 20000fc:	0001883a 	nop
 2000100:	0005313a 	rdctl	r2,ipending
 2000104:	e0bffe15 	stw	r2,-8(fp)
 2000108:	e0bffe17 	ldw	r2,-8(fp)
 200010c:	e0bffb15 	stw	r2,-20(fp)
 2000110:	e03ffd15 	stw	zero,-12(fp)
 2000114:	00800044 	movi	r2,1
 2000118:	e0bffc15 	stw	r2,-16(fp)
 200011c:	e0fffb17 	ldw	r3,-20(fp)
 2000120:	e0bffc17 	ldw	r2,-16(fp)
 2000124:	1884703a 	and	r2,r3,r2
 2000128:	10001426 	beq	r2,zero,200017c <alt_irq_handler+0x90>
 200012c:	00808074 	movhi	r2,513
 2000130:	108a7604 	addi	r2,r2,10712
 2000134:	e0fffd17 	ldw	r3,-12(fp)
 2000138:	180690fa 	slli	r3,r3,3
 200013c:	10c5883a 	add	r2,r2,r3
 2000140:	10c00017 	ldw	r3,0(r2)
 2000144:	00808074 	movhi	r2,513
 2000148:	108a7604 	addi	r2,r2,10712
 200014c:	e13ffd17 	ldw	r4,-12(fp)
 2000150:	200890fa 	slli	r4,r4,3
 2000154:	1105883a 	add	r2,r2,r4
 2000158:	10800104 	addi	r2,r2,4
 200015c:	10800017 	ldw	r2,0(r2)
 2000160:	1009883a 	mov	r4,r2
 2000164:	183ee83a 	callr	r3
 2000168:	0001883a 	nop
 200016c:	0005313a 	rdctl	r2,ipending
 2000170:	e0bfff15 	stw	r2,-4(fp)
 2000174:	e0bfff17 	ldw	r2,-4(fp)
 2000178:	00000706 	br	2000198 <alt_irq_handler+0xac>
 200017c:	e0bffc17 	ldw	r2,-16(fp)
 2000180:	1085883a 	add	r2,r2,r2
 2000184:	e0bffc15 	stw	r2,-16(fp)
 2000188:	e0bffd17 	ldw	r2,-12(fp)
 200018c:	10800044 	addi	r2,r2,1
 2000190:	e0bffd15 	stw	r2,-12(fp)
 2000194:	003fe106 	br	200011c <alt_irq_handler+0x30>
 2000198:	e0bffb15 	stw	r2,-20(fp)
 200019c:	e0bffb17 	ldw	r2,-20(fp)
 20001a0:	103fdb1e 	bne	r2,zero,2000110 <alt_irq_handler+0x24>
 20001a4:	0001883a 	nop
 20001a8:	e037883a 	mov	sp,fp
 20001ac:	dfc00117 	ldw	ra,4(sp)
 20001b0:	df000017 	ldw	fp,0(sp)
 20001b4:	dec00204 	addi	sp,sp,8
 20001b8:	f800283a 	ret

Disassembly of section .text:

020001bc <_start>:
 20001bc:	00820014 	movui	r2,2048
 20001c0:	10000033 	initd	0(r2)
 20001c4:	10bff804 	addi	r2,r2,-32
 20001c8:	00bffd16 	blt	zero,r2,20001c0 <_start+0x4>
 20001cc:	06c10034 	movhi	sp,1024
 20001d0:	dec00014 	ori	sp,sp,0
 20001d4:	06808074 	movhi	gp,513
 20001d8:	d6a39414 	ori	gp,gp,36432
 20001dc:	00808074 	movhi	r2,513
 20001e0:	108a5f14 	ori	r2,r2,10620
 20001e4:	00c08074 	movhi	r3,513
 20001e8:	18cab614 	ori	r3,r3,10968
 20001ec:	10c00326 	beq	r2,r3,20001fc <_start+0x40>
 20001f0:	10000015 	stw	zero,0(r2)
 20001f4:	10800104 	addi	r2,r2,4
 20001f8:	10fffd36 	bltu	r2,r3,20001f0 <_start+0x34>
 20001fc:	200ccf40 	call	200ccf4 <alt_load>
 2000200:	200ce980 	call	200ce98 <alt_main>

02000204 <alt_after_alt_main>:
 2000204:	003fff06 	br	2000204 <alt_after_alt_main>

02000208 <cam_get_preset>:
 2000208:	defffd04 	addi	sp,sp,-12
 200020c:	df000215 	stw	fp,8(sp)
 2000210:	df000204 	addi	fp,sp,8
 2000214:	e13ffe15 	stw	r4,-8(fp)
 2000218:	e17fff15 	stw	r5,-4(fp)
 200021c:	e0bffe17 	ldw	r2,-8(fp)
 2000220:	00c08074 	movhi	r3,513
 2000224:	18fbf304 	addi	r3,r3,-4148
 2000228:	e13fff17 	ldw	r4,-4(fp)
 200022c:	21000324 	muli	r4,r4,12
 2000230:	1907883a 	add	r3,r3,r4
 2000234:	19000017 	ldw	r4,0(r3)
 2000238:	11000015 	stw	r4,0(r2)
 200023c:	19000117 	ldw	r4,4(r3)
 2000240:	11000115 	stw	r4,4(r2)
 2000244:	18c00217 	ldw	r3,8(r3)
 2000248:	10c00215 	stw	r3,8(r2)
 200024c:	e0bffe17 	ldw	r2,-8(fp)
 2000250:	e037883a 	mov	sp,fp
 2000254:	df000017 	ldw	fp,0(sp)
 2000258:	dec00104 	addi	sp,sp,4
 200025c:	f800283a 	ret

02000260 <printPreset>:
 2000260:	defff504 	addi	sp,sp,-44
 2000264:	dfc00a15 	stw	ra,40(sp)
 2000268:	df000915 	stw	fp,36(sp)
 200026c:	dc400815 	stw	r17,32(sp)
 2000270:	dc000715 	stw	r16,28(sp)
 2000274:	df000904 	addi	fp,sp,36
 2000278:	e13ffc15 	stw	r4,-16(fp)
 200027c:	e17ffd15 	stw	r5,-12(fp)
 2000280:	e13ff904 	addi	r4,fp,-28
 2000284:	e17ffd17 	ldw	r5,-12(fp)
 2000288:	20002080 	call	2000208 <cam_get_preset>
 200028c:	e47ff917 	ldw	r17,-28(fp)
 2000290:	e43ffa17 	ldw	r16,-24(fp)
 2000294:	e0bffb17 	ldw	r2,-20(fp)
 2000298:	1009883a 	mov	r4,r2
 200029c:	200049c0 	call	200049c <__extendsfdf2>
 20002a0:	1009883a 	mov	r4,r2
 20002a4:	180b883a 	mov	r5,r3
 20002a8:	d9000015 	stw	r4,0(sp)
 20002ac:	d9400115 	stw	r5,4(sp)
 20002b0:	01008074 	movhi	r4,513
 20002b4:	213c0e04 	addi	r4,r4,-4040
 20002b8:	e17ffc17 	ldw	r5,-16(fp)
 20002bc:	880d883a 	mov	r6,r17
 20002c0:	800f883a 	mov	r7,r16
 20002c4:	200063c0 	call	200063c <printf>
 20002c8:	e6fffe04 	addi	sp,fp,-8
 20002cc:	dfc00317 	ldw	ra,12(sp)
 20002d0:	df000217 	ldw	fp,8(sp)
 20002d4:	dc400117 	ldw	r17,4(sp)
 20002d8:	dc000017 	ldw	r16,0(sp)
 20002dc:	dec00404 	addi	sp,sp,16
 20002e0:	f800283a 	ret

020002e4 <sleep_ms>:
 20002e4:	defffc04 	addi	sp,sp,-16
 20002e8:	df000315 	stw	fp,12(sp)
 20002ec:	df000304 	addi	fp,sp,12
 20002f0:	e13fff15 	stw	r4,-4(fp)
 20002f4:	e03ffd15 	stw	zero,-12(fp)
 20002f8:	00000c06 	br	200032c <sleep_ms+0x48>
 20002fc:	e03ffe15 	stw	zero,-8(fp)
 2000300:	00000406 	br	2000314 <sleep_ms+0x30>
 2000304:	0001883a 	nop
 2000308:	e0bffe17 	ldw	r2,-8(fp)
 200030c:	10800044 	addi	r2,r2,1
 2000310:	e0bffe15 	stw	r2,-8(fp)
 2000314:	e0bffe17 	ldw	r2,-8(fp)
 2000318:	10801f50 	cmplti	r2,r2,125
 200031c:	103ff91e 	bne	r2,zero,2000304 <sleep_ms+0x20>
 2000320:	e0bffd17 	ldw	r2,-12(fp)
 2000324:	10800044 	addi	r2,r2,1
 2000328:	e0bffd15 	stw	r2,-12(fp)
 200032c:	e0fffd17 	ldw	r3,-12(fp)
 2000330:	e0bfff17 	ldw	r2,-4(fp)
 2000334:	18bff116 	blt	r3,r2,20002fc <sleep_ms+0x18>
 2000338:	e037883a 	mov	sp,fp
 200033c:	df000017 	ldw	fp,0(sp)
 2000340:	dec00104 	addi	sp,sp,4
 2000344:	f800283a 	ret

02000348 <dump_word>:
 2000348:	defffd04 	addi	sp,sp,-12
 200034c:	dfc00215 	stw	ra,8(sp)
 2000350:	df000115 	stw	fp,4(sp)
 2000354:	df000104 	addi	fp,sp,4
 2000358:	e13fff15 	stw	r4,-4(fp)
 200035c:	e0ffff17 	ldw	r3,-4(fp)
 2000360:	e0bfff17 	ldw	r2,-4(fp)
 2000364:	10800017 	ldw	r2,0(r2)
 2000368:	01008074 	movhi	r4,513
 200036c:	213c1504 	addi	r4,r4,-4012
 2000370:	180b883a 	mov	r5,r3
 2000374:	100d883a 	mov	r6,r2
 2000378:	200063c0 	call	200063c <printf>
 200037c:	e037883a 	mov	sp,fp
 2000380:	dfc00117 	ldw	ra,4(sp)
 2000384:	df000017 	ldw	fp,0(sp)
 2000388:	dec00204 	addi	sp,sp,8
 200038c:	f800283a 	ret

02000390 <main>:
 2000390:	defff604 	addi	sp,sp,-40
 2000394:	dfc00915 	stw	ra,36(sp)
 2000398:	df000815 	stw	fp,32(sp)
 200039c:	df000804 	addi	fp,sp,32
 20003a0:	e03ffc15 	stw	zero,-16(fp)
 20003a4:	e03ffd15 	stw	zero,-12(fp)
 20003a8:	e03ffe15 	stw	zero,-8(fp)
 20003ac:	e03fff15 	stw	zero,-4(fp)
 20003b0:	e03ffa15 	stw	zero,-24(fp)
 20003b4:	e03ffb15 	stw	zero,-20(fp)
 20003b8:	200ca2c0 	call	200ca2c <alt_dcache_flush_all>
 20003bc:	e1bffc17 	ldw	r6,-16(fp)
 20003c0:	e1fffd17 	ldw	r7,-12(fp)
 20003c4:	e0fffe17 	ldw	r3,-8(fp)
 20003c8:	e0bfff17 	ldw	r2,-4(fp)
 20003cc:	e17ffc04 	addi	r5,fp,-16
 20003d0:	d8c00015 	stw	r3,0(sp)
 20003d4:	d8800115 	stw	r2,4(sp)
 20003d8:	01008074 	movhi	r4,513
 20003dc:	213c1904 	addi	r4,r4,-3996
 20003e0:	200063c0 	call	200063c <printf>
 20003e4:	00810034 	movhi	r2,1024
 20003e8:	10840b04 	addi	r2,r2,4140
 20003ec:	10800037 	ldwio	r2,0(r2)
 20003f0:	e0bffb15 	stw	r2,-20(fp)
 20003f4:	01008074 	movhi	r4,513
 20003f8:	213c2404 	addi	r4,r4,-3952
 20003fc:	e17ffb17 	ldw	r5,-20(fp)
 2000400:	200063c0 	call	200063c <printf>
 2000404:	e0fffc04 	addi	r3,fp,-16
 2000408:	00810034 	movhi	r2,1024
 200040c:	10840804 	addi	r2,r2,4128
 2000410:	10c00035 	stwio	r3,0(r2)
 2000414:	00c00404 	movi	r3,16
 2000418:	00810034 	movhi	r2,1024
 200041c:	10840b04 	addi	r2,r2,4140
 2000420:	10c00035 	stwio	r3,0(r2)
 2000424:	01008074 	movhi	r4,513
 2000428:	213c2904 	addi	r4,r4,-3932
 200042c:	20007300 	call	2000730 <puts>
 2000430:	00000406 	br	2000444 <main+0xb4>
 2000434:	00810034 	movhi	r2,1024
 2000438:	10840b04 	addi	r2,r2,4140
 200043c:	10800037 	ldwio	r2,0(r2)
 2000440:	e0bffb15 	stw	r2,-20(fp)
 2000444:	e0bffb17 	ldw	r2,-20(fp)
 2000448:	1080200c 	andi	r2,r2,128
 200044c:	103ff926 	beq	r2,zero,2000434 <main+0xa4>
 2000450:	200ca2c0 	call	200ca2c <alt_dcache_flush_all>
 2000454:	e0bffc04 	addi	r2,fp,-16
 2000458:	10bff804 	addi	r2,r2,-32
 200045c:	e0bffa15 	stw	r2,-24(fp)
 2000460:	00000506 	br	2000478 <main+0xe8>
 2000464:	e13ffa17 	ldw	r4,-24(fp)
 2000468:	20003480 	call	2000348 <dump_word>
 200046c:	e0bffa17 	ldw	r2,-24(fp)
 2000470:	10800104 	addi	r2,r2,4
 2000474:	e0bffa15 	stw	r2,-24(fp)
 2000478:	e0fffa17 	ldw	r3,-24(fp)
 200047c:	00810034 	movhi	r2,1024
 2000480:	18bff836 	bltu	r3,r2,2000464 <main+0xd4>
 2000484:	0005883a 	mov	r2,zero
 2000488:	e037883a 	mov	sp,fp
 200048c:	dfc00117 	ldw	ra,4(sp)
 2000490:	df000017 	ldw	fp,0(sp)
 2000494:	dec00204 	addi	sp,sp,8
 2000498:	f800283a 	ret

0200049c <__extendsfdf2>:
 200049c:	200ad5fa 	srli	r5,r4,23
 20004a0:	defffd04 	addi	sp,sp,-12
 20004a4:	dc400115 	stw	r17,4(sp)
 20004a8:	29403fcc 	andi	r5,r5,255
 20004ac:	29800044 	addi	r6,r5,1
 20004b0:	04402034 	movhi	r17,128
 20004b4:	dc000015 	stw	r16,0(sp)
 20004b8:	8c7fffc4 	addi	r17,r17,-1
 20004bc:	dfc00215 	stw	ra,8(sp)
 20004c0:	31803fcc 	andi	r6,r6,255
 20004c4:	00800044 	movi	r2,1
 20004c8:	8922703a 	and	r17,r17,r4
 20004cc:	2020d7fa 	srli	r16,r4,31
 20004d0:	1180110e 	bge	r2,r6,2000518 <__extendsfdf2+0x7c>
 20004d4:	880ed0fa 	srli	r7,r17,3
 20004d8:	8822977a 	slli	r17,r17,29
 20004dc:	2940e004 	addi	r5,r5,896
 20004e0:	2941ffcc 	andi	r5,r5,2047
 20004e4:	280c953a 	slli	r6,r5,20
 20004e8:	01400434 	movhi	r5,16
 20004ec:	800697fa 	slli	r3,r16,31
 20004f0:	297fffc4 	addi	r5,r5,-1
 20004f4:	394a703a 	and	r5,r7,r5
 20004f8:	298ab03a 	or	r5,r5,r6
 20004fc:	8805883a 	mov	r2,r17
 2000500:	28c6b03a 	or	r3,r5,r3
 2000504:	dfc00217 	ldw	ra,8(sp)
 2000508:	dc400117 	ldw	r17,4(sp)
 200050c:	dc000017 	ldw	r16,0(sp)
 2000510:	dec00304 	addi	sp,sp,12
 2000514:	f800283a 	ret
 2000518:	2800111e 	bne	r5,zero,2000560 <__extendsfdf2+0xc4>
 200051c:	88001c26 	beq	r17,zero,2000590 <__extendsfdf2+0xf4>
 2000520:	8809883a 	mov	r4,r17
 2000524:	20005ac0 	call	20005ac <__clzsi2>
 2000528:	00c00284 	movi	r3,10
 200052c:	18801b16 	blt	r3,r2,200059c <__extendsfdf2+0x100>
 2000530:	01c002c4 	movi	r7,11
 2000534:	388fc83a 	sub	r7,r7,r2
 2000538:	10c00544 	addi	r3,r2,21
 200053c:	89ced83a 	srl	r7,r17,r7
 2000540:	88e2983a 	sll	r17,r17,r3
 2000544:	0180e244 	movi	r6,905
 2000548:	308bc83a 	sub	r5,r6,r2
 200054c:	01800434 	movhi	r6,16
 2000550:	31bfffc4 	addi	r6,r6,-1
 2000554:	398e703a 	and	r7,r7,r6
 2000558:	2941ffcc 	andi	r5,r5,2047
 200055c:	003fe006 	br	20004e0 <__extendsfdf2+0x44>
 2000560:	88000826 	beq	r17,zero,2000584 <__extendsfdf2+0xe8>
 2000564:	880ed0fa 	srli	r7,r17,3
 2000568:	00800434 	movhi	r2,16
 200056c:	10bfffc4 	addi	r2,r2,-1
 2000570:	39c00234 	orhi	r7,r7,8
 2000574:	8822977a 	slli	r17,r17,29
 2000578:	388e703a 	and	r7,r7,r2
 200057c:	0141ffc4 	movi	r5,2047
 2000580:	003fd706 	br	20004e0 <__extendsfdf2+0x44>
 2000584:	0141ffc4 	movi	r5,2047
 2000588:	000f883a 	mov	r7,zero
 200058c:	003fd406 	br	20004e0 <__extendsfdf2+0x44>
 2000590:	000b883a 	mov	r5,zero
 2000594:	000f883a 	mov	r7,zero
 2000598:	003fd106 	br	20004e0 <__extendsfdf2+0x44>
 200059c:	11fffd44 	addi	r7,r2,-11
 20005a0:	89ce983a 	sll	r7,r17,r7
 20005a4:	0023883a 	mov	r17,zero
 20005a8:	003fe606 	br	2000544 <__extendsfdf2+0xa8>

020005ac <__clzsi2>:
 20005ac:	00bfffd4 	movui	r2,65535
 20005b0:	11000b36 	bltu	r2,r4,20005e0 <__clzsi2+0x34>
 20005b4:	00803fc4 	movi	r2,255
 20005b8:	1100122e 	bgeu	r2,r4,2000604 <__clzsi2+0x58>
 20005bc:	00c00204 	movi	r3,8
 20005c0:	01400604 	movi	r5,24
 20005c4:	20c8d83a 	srl	r4,r4,r3
 20005c8:	00808074 	movhi	r2,513
 20005cc:	10bc2b04 	addi	r2,r2,-3924
 20005d0:	1109883a 	add	r4,r2,r4
 20005d4:	20800003 	ldbu	r2,0(r4)
 20005d8:	2885c83a 	sub	r2,r5,r2
 20005dc:	f800283a 	ret
 20005e0:	00804034 	movhi	r2,256
 20005e4:	10bfffc4 	addi	r2,r2,-1
 20005e8:	11000336 	bltu	r2,r4,20005f8 <__clzsi2+0x4c>
 20005ec:	00c00404 	movi	r3,16
 20005f0:	180b883a 	mov	r5,r3
 20005f4:	003ff306 	br	20005c4 <__clzsi2+0x18>
 20005f8:	00c00604 	movi	r3,24
 20005fc:	01400204 	movi	r5,8
 2000600:	003ff006 	br	20005c4 <__clzsi2+0x18>
 2000604:	0007883a 	mov	r3,zero
 2000608:	01400804 	movi	r5,32
 200060c:	003fed06 	br	20005c4 <__clzsi2+0x18>

02000610 <_printf_r>:
 2000610:	defffd04 	addi	sp,sp,-12
 2000614:	dfc00015 	stw	ra,0(sp)
 2000618:	d9800115 	stw	r6,4(sp)
 200061c:	d9c00215 	stw	r7,8(sp)
 2000620:	280d883a 	mov	r6,r5
 2000624:	21400217 	ldw	r5,8(r4)
 2000628:	d9c00104 	addi	r7,sp,4
 200062c:	20007dc0 	call	20007dc <___vfprintf_internal_r>
 2000630:	dfc00017 	ldw	ra,0(sp)
 2000634:	dec00304 	addi	sp,sp,12
 2000638:	f800283a 	ret

0200063c <printf>:
 200063c:	defffc04 	addi	sp,sp,-16
 2000640:	dfc00015 	stw	ra,0(sp)
 2000644:	d9400115 	stw	r5,4(sp)
 2000648:	d9800215 	stw	r6,8(sp)
 200064c:	d9c00315 	stw	r7,12(sp)
 2000650:	00808074 	movhi	r2,513
 2000654:	10839504 	addi	r2,r2,3668
 2000658:	10800017 	ldw	r2,0(r2)
 200065c:	200b883a 	mov	r5,r4
 2000660:	d9800104 	addi	r6,sp,4
 2000664:	11000217 	ldw	r4,8(r2)
 2000668:	20027d80 	call	20027d8 <__vfprintf_internal>
 200066c:	dfc00017 	ldw	ra,0(sp)
 2000670:	dec00404 	addi	sp,sp,16
 2000674:	f800283a 	ret

02000678 <_puts_r>:
 2000678:	defff604 	addi	sp,sp,-40
 200067c:	dc000715 	stw	r16,28(sp)
 2000680:	2021883a 	mov	r16,r4
 2000684:	2809883a 	mov	r4,r5
 2000688:	dc400815 	stw	r17,32(sp)
 200068c:	dfc00915 	stw	ra,36(sp)
 2000690:	2823883a 	mov	r17,r5
 2000694:	20007440 	call	2000744 <strlen>
 2000698:	00c08074 	movhi	r3,513
 200069c:	18c39504 	addi	r3,r3,3668
 20006a0:	18c00017 	ldw	r3,0(r3)
 20006a4:	11000044 	addi	r4,r2,1
 20006a8:	d8800115 	stw	r2,4(sp)
 20006ac:	18c00217 	ldw	r3,8(r3)
 20006b0:	01408074 	movhi	r5,513
 20006b4:	297c6b04 	addi	r5,r5,-3668
 20006b8:	1880030b 	ldhu	r2,12(r3)
 20006bc:	d9400215 	stw	r5,8(sp)
 20006c0:	d9000615 	stw	r4,24(sp)
 20006c4:	01400044 	movi	r5,1
 20006c8:	01000084 	movi	r4,2
 20006cc:	d9000515 	stw	r4,20(sp)
 20006d0:	dc400015 	stw	r17,0(sp)
 20006d4:	d9400315 	stw	r5,12(sp)
 20006d8:	dec00415 	stw	sp,16(sp)
 20006dc:	1108000c 	andi	r4,r2,8192
 20006e0:	2000061e 	bne	r4,zero,20006fc <_puts_r+0x84>
 20006e4:	19401917 	ldw	r5,100(r3)
 20006e8:	0137ffc4 	movi	r4,-8193
 20006ec:	10880014 	ori	r2,r2,8192
 20006f0:	2908703a 	and	r4,r5,r4
 20006f4:	1880030d 	sth	r2,12(r3)
 20006f8:	19001915 	stw	r4,100(r3)
 20006fc:	81400217 	ldw	r5,8(r16)
 2000700:	8009883a 	mov	r4,r16
 2000704:	d9800404 	addi	r6,sp,16
 2000708:	2004c600 	call	2004c60 <__sfvwrite_r>
 200070c:	1000061e 	bne	r2,zero,2000728 <_puts_r+0xb0>
 2000710:	00800284 	movi	r2,10
 2000714:	dfc00917 	ldw	ra,36(sp)
 2000718:	dc400817 	ldw	r17,32(sp)
 200071c:	dc000717 	ldw	r16,28(sp)
 2000720:	dec00a04 	addi	sp,sp,40
 2000724:	f800283a 	ret
 2000728:	00bfffc4 	movi	r2,-1
 200072c:	003ff906 	br	2000714 <_puts_r+0x9c>

02000730 <puts>:
 2000730:	00808074 	movhi	r2,513
 2000734:	10839504 	addi	r2,r2,3668
 2000738:	200b883a 	mov	r5,r4
 200073c:	11000017 	ldw	r4,0(r2)
 2000740:	20006781 	jmpi	2000678 <_puts_r>

02000744 <strlen>:
 2000744:	208000cc 	andi	r2,r4,3
 2000748:	10002026 	beq	r2,zero,20007cc <strlen+0x88>
 200074c:	20800007 	ldb	r2,0(r4)
 2000750:	10002026 	beq	r2,zero,20007d4 <strlen+0x90>
 2000754:	2005883a 	mov	r2,r4
 2000758:	00000206 	br	2000764 <strlen+0x20>
 200075c:	10c00007 	ldb	r3,0(r2)
 2000760:	18001826 	beq	r3,zero,20007c4 <strlen+0x80>
 2000764:	10800044 	addi	r2,r2,1
 2000768:	10c000cc 	andi	r3,r2,3
 200076c:	183ffb1e 	bne	r3,zero,200075c <strlen+0x18>
 2000770:	10c00017 	ldw	r3,0(r2)
 2000774:	01ffbff4 	movhi	r7,65279
 2000778:	39ffbfc4 	addi	r7,r7,-257
 200077c:	00ca303a 	nor	r5,zero,r3
 2000780:	01a02074 	movhi	r6,32897
 2000784:	19c7883a 	add	r3,r3,r7
 2000788:	31a02004 	addi	r6,r6,-32640
 200078c:	1946703a 	and	r3,r3,r5
 2000790:	1986703a 	and	r3,r3,r6
 2000794:	1800091e 	bne	r3,zero,20007bc <strlen+0x78>
 2000798:	10800104 	addi	r2,r2,4
 200079c:	10c00017 	ldw	r3,0(r2)
 20007a0:	19cb883a 	add	r5,r3,r7
 20007a4:	00c6303a 	nor	r3,zero,r3
 20007a8:	28c6703a 	and	r3,r5,r3
 20007ac:	1986703a 	and	r3,r3,r6
 20007b0:	183ff926 	beq	r3,zero,2000798 <strlen+0x54>
 20007b4:	00000106 	br	20007bc <strlen+0x78>
 20007b8:	10800044 	addi	r2,r2,1
 20007bc:	10c00007 	ldb	r3,0(r2)
 20007c0:	183ffd1e 	bne	r3,zero,20007b8 <strlen+0x74>
 20007c4:	1105c83a 	sub	r2,r2,r4
 20007c8:	f800283a 	ret
 20007cc:	2005883a 	mov	r2,r4
 20007d0:	003fe706 	br	2000770 <strlen+0x2c>
 20007d4:	0005883a 	mov	r2,zero
 20007d8:	f800283a 	ret

020007dc <___vfprintf_internal_r>:
 20007dc:	defeb604 	addi	sp,sp,-1320
 20007e0:	dfc14915 	stw	ra,1316(sp)
 20007e4:	ddc14715 	stw	r23,1308(sp)
 20007e8:	dd814615 	stw	r22,1304(sp)
 20007ec:	282f883a 	mov	r23,r5
 20007f0:	202d883a 	mov	r22,r4
 20007f4:	d9812a15 	stw	r6,1192(sp)
 20007f8:	d9c12d15 	stw	r7,1204(sp)
 20007fc:	df014815 	stw	fp,1312(sp)
 2000800:	dd414515 	stw	r21,1300(sp)
 2000804:	dd014415 	stw	r20,1296(sp)
 2000808:	dcc14315 	stw	r19,1292(sp)
 200080c:	dc814215 	stw	r18,1288(sp)
 2000810:	dc414115 	stw	r17,1284(sp)
 2000814:	dc014015 	stw	r16,1280(sp)
 2000818:	20053200 	call	2005320 <_localeconv_r>
 200081c:	10800017 	ldw	r2,0(r2)
 2000820:	1009883a 	mov	r4,r2
 2000824:	d8813515 	stw	r2,1236(sp)
 2000828:	20007440 	call	2000744 <strlen>
 200082c:	d8813815 	stw	r2,1248(sp)
 2000830:	b0000226 	beq	r22,zero,200083c <___vfprintf_internal_r+0x60>
 2000834:	b0800e17 	ldw	r2,56(r22)
 2000838:	10010426 	beq	r2,zero,2000c4c <___vfprintf_internal_r+0x470>
 200083c:	b8c0030b 	ldhu	r3,12(r23)
 2000840:	1908000c 	andi	r4,r3,8192
 2000844:	1805883a 	mov	r2,r3
 2000848:	2000071e 	bne	r4,zero,2000868 <___vfprintf_internal_r+0x8c>
 200084c:	b9001917 	ldw	r4,100(r23)
 2000850:	18880014 	ori	r2,r3,8192
 2000854:	00f7ffc4 	movi	r3,-8193
 2000858:	20c8703a 	and	r4,r4,r3
 200085c:	b880030d 	sth	r2,12(r23)
 2000860:	1007883a 	mov	r3,r2
 2000864:	b9001915 	stw	r4,100(r23)
 2000868:	1100020c 	andi	r4,r2,8
 200086c:	2000a726 	beq	r4,zero,2000b0c <___vfprintf_internal_r+0x330>
 2000870:	b9000417 	ldw	r4,16(r23)
 2000874:	2000a526 	beq	r4,zero,2000b0c <___vfprintf_internal_r+0x330>
 2000878:	1080068c 	andi	r2,r2,26
 200087c:	01000284 	movi	r4,10
 2000880:	1100ab26 	beq	r2,r4,2000b30 <___vfprintf_internal_r+0x354>
 2000884:	dac10e04 	addi	r11,sp,1080
 2000888:	db010dc4 	addi	r12,sp,1079
 200088c:	d8800404 	addi	r2,sp,16
 2000890:	05008074 	movhi	r20,513
 2000894:	dac12815 	stw	r11,1184(sp)
 2000898:	5b17c83a 	sub	r11,r11,r12
 200089c:	a53c7c84 	addi	r20,r20,-3598
 20008a0:	db012915 	stw	r12,1188(sp)
 20008a4:	d8811e15 	stw	r2,1144(sp)
 20008a8:	d8012015 	stw	zero,1152(sp)
 20008ac:	d8011f15 	stw	zero,1148(sp)
 20008b0:	d8013315 	stw	zero,1228(sp)
 20008b4:	d8013715 	stw	zero,1244(sp)
 20008b8:	d8013915 	stw	zero,1252(sp)
 20008bc:	d8013b15 	stw	zero,1260(sp)
 20008c0:	d8013a15 	stw	zero,1256(sp)
 20008c4:	d8012f15 	stw	zero,1212(sp)
 20008c8:	1011883a 	mov	r8,r2
 20008cc:	dac13c15 	stw	r11,1264(sp)
 20008d0:	db012a17 	ldw	r12,1192(sp)
 20008d4:	60800007 	ldb	r2,0(r12)
 20008d8:	1000df26 	beq	r2,zero,2000c58 <___vfprintf_internal_r+0x47c>
 20008dc:	00c00944 	movi	r3,37
 20008e0:	10c0dd26 	beq	r2,r3,2000c58 <___vfprintf_internal_r+0x47c>
 20008e4:	6021883a 	mov	r16,r12
 20008e8:	00000106 	br	20008f0 <___vfprintf_internal_r+0x114>
 20008ec:	10c08426 	beq	r2,r3,2000b00 <___vfprintf_internal_r+0x324>
 20008f0:	84000044 	addi	r16,r16,1
 20008f4:	80800007 	ldb	r2,0(r16)
 20008f8:	103ffc1e 	bne	r2,zero,20008ec <___vfprintf_internal_r+0x110>
 20008fc:	dac12a17 	ldw	r11,1192(sp)
 2000900:	82e3c83a 	sub	r17,r16,r11
 2000904:	88000f26 	beq	r17,zero,2000944 <___vfprintf_internal_r+0x168>
 2000908:	d8c12017 	ldw	r3,1152(sp)
 200090c:	d8811f17 	ldw	r2,1148(sp)
 2000910:	dac12a17 	ldw	r11,1192(sp)
 2000914:	1c47883a 	add	r3,r3,r17
 2000918:	10800044 	addi	r2,r2,1
 200091c:	d8c12015 	stw	r3,1152(sp)
 2000920:	42c00015 	stw	r11,0(r8)
 2000924:	44400115 	stw	r17,4(r8)
 2000928:	d8811f15 	stw	r2,1148(sp)
 200092c:	00c001c4 	movi	r3,7
 2000930:	1880b416 	blt	r3,r2,2000c04 <___vfprintf_internal_r+0x428>
 2000934:	42000204 	addi	r8,r8,8
 2000938:	db012f17 	ldw	r12,1212(sp)
 200093c:	6459883a 	add	r12,r12,r17
 2000940:	db012f15 	stw	r12,1212(sp)
 2000944:	80800007 	ldb	r2,0(r16)
 2000948:	1000b526 	beq	r2,zero,2000c20 <___vfprintf_internal_r+0x444>
 200094c:	80800044 	addi	r2,r16,1
 2000950:	84000047 	ldb	r16,1(r16)
 2000954:	d8012785 	stb	zero,1182(sp)
 2000958:	000d883a 	mov	r6,zero
 200095c:	027fffc4 	movi	r9,-1
 2000960:	d8012e15 	stw	zero,1208(sp)
 2000964:	0023883a 	mov	r17,zero
 2000968:	01001604 	movi	r4,88
 200096c:	01400244 	movi	r5,9
 2000970:	02800a84 	movi	r10,42
 2000974:	01c01b04 	movi	r7,108
 2000978:	10c00044 	addi	r3,r2,1
 200097c:	80bff804 	addi	r2,r16,-32
 2000980:	2082f236 	bltu	r4,r2,200154c <___vfprintf_internal_r+0xd70>
 2000984:	100490ba 	slli	r2,r2,2
 2000988:	02c08034 	movhi	r11,512
 200098c:	5ac26704 	addi	r11,r11,2460
 2000990:	12c5883a 	add	r2,r2,r11
 2000994:	10800017 	ldw	r2,0(r2)
 2000998:	1000683a 	jmp	r2
 200099c:	02001394 	movui	r8,78
 20009a0:	0200154c 	andi	r8,zero,85
 20009a4:	0200154c 	andi	r8,zero,85
 20009a8:	020013b4 	movhi	r8,78
 20009ac:	0200154c 	andi	r8,zero,85
 20009b0:	0200154c 	andi	r8,zero,85
 20009b4:	0200154c 	andi	r8,zero,85
 20009b8:	0200154c 	andi	r8,zero,85
 20009bc:	0200154c 	andi	r8,zero,85
 20009c0:	0200154c 	andi	r8,zero,85
 20009c4:	02001510 	cmplti	r8,zero,84
 20009c8:	0200153c 	xorhi	r8,zero,84
 20009cc:	0200154c 	andi	r8,zero,85
 20009d0:	02000c60 	cmpeqi	r8,zero,49
 20009d4:	02000c70 	cmpltui	r8,zero,49
 20009d8:	0200154c 	andi	r8,zero,85
 20009dc:	02000cb0 	cmpltui	r8,zero,50
 20009e0:	020011a4 	muli	r8,zero,70
 20009e4:	020011a4 	muli	r8,zero,70
 20009e8:	020011a4 	muli	r8,zero,70
 20009ec:	020011a4 	muli	r8,zero,70
 20009f0:	020011a4 	muli	r8,zero,70
 20009f4:	020011a4 	muli	r8,zero,70
 20009f8:	020011a4 	muli	r8,zero,70
 20009fc:	020011a4 	muli	r8,zero,70
 2000a00:	020011a4 	muli	r8,zero,70
 2000a04:	0200154c 	andi	r8,zero,85
 2000a08:	0200154c 	andi	r8,zero,85
 2000a0c:	0200154c 	andi	r8,zero,85
 2000a10:	0200154c 	andi	r8,zero,85
 2000a14:	0200154c 	andi	r8,zero,85
 2000a18:	0200154c 	andi	r8,zero,85
 2000a1c:	0200154c 	andi	r8,zero,85
 2000a20:	0200154c 	andi	r8,zero,85
 2000a24:	0200154c 	andi	r8,zero,85
 2000a28:	0200154c 	andi	r8,zero,85
 2000a2c:	020011d8 	cmpnei	r8,zero,71
 2000a30:	02000cc0 	call	2000cc <__alt_mem_sdram-0x1dfff34>
 2000a34:	0200154c 	andi	r8,zero,85
 2000a38:	02000cc0 	call	2000cc <__alt_mem_sdram-0x1dfff34>
 2000a3c:	0200154c 	andi	r8,zero,85
 2000a40:	0200154c 	andi	r8,zero,85
 2000a44:	0200154c 	andi	r8,zero,85
 2000a48:	0200154c 	andi	r8,zero,85
 2000a4c:	02000d64 	muli	r8,zero,53
 2000a50:	0200154c 	andi	r8,zero,85
 2000a54:	0200154c 	andi	r8,zero,85
 2000a58:	02000d74 	movhi	r8,53
 2000a5c:	0200154c 	andi	r8,zero,85
 2000a60:	0200154c 	andi	r8,zero,85
 2000a64:	0200154c 	andi	r8,zero,85
 2000a68:	0200154c 	andi	r8,zero,85
 2000a6c:	0200154c 	andi	r8,zero,85
 2000a70:	02001170 	cmpltui	r8,zero,69
 2000a74:	0200154c 	andi	r8,zero,85
 2000a78:	0200154c 	andi	r8,zero,85
 2000a7c:	02001220 	cmpeqi	r8,zero,72
 2000a80:	0200154c 	andi	r8,zero,85
 2000a84:	0200154c 	andi	r8,zero,85
 2000a88:	0200154c 	andi	r8,zero,85
 2000a8c:	0200154c 	andi	r8,zero,85
 2000a90:	0200154c 	andi	r8,zero,85
 2000a94:	0200154c 	andi	r8,zero,85
 2000a98:	0200154c 	andi	r8,zero,85
 2000a9c:	0200154c 	andi	r8,zero,85
 2000aa0:	0200154c 	andi	r8,zero,85
 2000aa4:	0200154c 	andi	r8,zero,85
 2000aa8:	02001414 	movui	r8,80
 2000aac:	020013c4 	movi	r8,79
 2000ab0:	02000cc0 	call	2000cc <__alt_mem_sdram-0x1dfff34>
 2000ab4:	02000cc0 	call	2000cc <__alt_mem_sdram-0x1dfff34>
 2000ab8:	02000cc0 	call	2000cc <__alt_mem_sdram-0x1dfff34>
 2000abc:	02001404 	movi	r8,80
 2000ac0:	020013c4 	movi	r8,79
 2000ac4:	0200154c 	andi	r8,zero,85
 2000ac8:	0200154c 	andi	r8,zero,85
 2000acc:	0200130c 	andi	r8,zero,76
 2000ad0:	0200154c 	andi	r8,zero,85
 2000ad4:	02001320 	cmpeqi	r8,zero,76
 2000ad8:	02001354 	movui	r8,77
 2000adc:	02001454 	movui	r8,81
 2000ae0:	0200127c 	xorhi	r8,zero,73
 2000ae4:	0200154c 	andi	r8,zero,85
 2000ae8:	0200149c 	xori	r8,zero,82
 2000aec:	0200154c 	andi	r8,zero,85
 2000af0:	0200128c 	andi	r8,zero,74
 2000af4:	0200154c 	andi	r8,zero,85
 2000af8:	0200154c 	andi	r8,zero,85
 2000afc:	020012cc 	andi	r8,zero,75
 2000b00:	db012a17 	ldw	r12,1192(sp)
 2000b04:	8323c83a 	sub	r17,r16,r12
 2000b08:	003f7e06 	br	2000904 <___vfprintf_internal_r+0x128>
 2000b0c:	b009883a 	mov	r4,r22
 2000b10:	b80b883a 	mov	r5,r23
 2000b14:	20027fc0 	call	20027fc <__swsetup_r>
 2000b18:	10002d1e 	bne	r2,zero,2000bd0 <___vfprintf_internal_r+0x3f4>
 2000b1c:	b8c0030b 	ldhu	r3,12(r23)
 2000b20:	01000284 	movi	r4,10
 2000b24:	1805883a 	mov	r2,r3
 2000b28:	1080068c 	andi	r2,r2,26
 2000b2c:	113f551e 	bne	r2,r4,2000884 <___vfprintf_internal_r+0xa8>
 2000b30:	b880038b 	ldhu	r2,14(r23)
 2000b34:	113fffcc 	andi	r4,r2,65535
 2000b38:	2120001c 	xori	r4,r4,32768
 2000b3c:	21200004 	addi	r4,r4,-32768
 2000b40:	203f5016 	blt	r4,zero,2000884 <___vfprintf_internal_r+0xa8>
 2000b44:	bac01917 	ldw	r11,100(r23)
 2000b48:	ba800717 	ldw	r10,28(r23)
 2000b4c:	ba400917 	ldw	r9,36(r23)
 2000b50:	d9812a17 	ldw	r6,1192(sp)
 2000b54:	d9c12d17 	ldw	r7,1204(sp)
 2000b58:	02010004 	movi	r8,1024
 2000b5c:	18ffff4c 	andi	r3,r3,65533
 2000b60:	d881078d 	sth	r2,1054(sp)
 2000b64:	b009883a 	mov	r4,r22
 2000b68:	d8800404 	addi	r2,sp,16
 2000b6c:	d9410404 	addi	r5,sp,1040
 2000b70:	d8c1070d 	sth	r3,1052(sp)
 2000b74:	dac11d15 	stw	r11,1140(sp)
 2000b78:	da810b15 	stw	r10,1068(sp)
 2000b7c:	da410d15 	stw	r9,1076(sp)
 2000b80:	d8810415 	stw	r2,1040(sp)
 2000b84:	d8810815 	stw	r2,1056(sp)
 2000b88:	da010615 	stw	r8,1048(sp)
 2000b8c:	da010915 	stw	r8,1060(sp)
 2000b90:	d8010a15 	stw	zero,1064(sp)
 2000b94:	20007dc0 	call	20007dc <___vfprintf_internal_r>
 2000b98:	1021883a 	mov	r16,r2
 2000b9c:	10000416 	blt	r2,zero,2000bb0 <___vfprintf_internal_r+0x3d4>
 2000ba0:	b009883a 	mov	r4,r22
 2000ba4:	d9410404 	addi	r5,sp,1040
 2000ba8:	20042540 	call	2004254 <_fflush_r>
 2000bac:	1006ee1e 	bne	r2,zero,2002768 <___vfprintf_internal_r+0x1f8c>
 2000bb0:	d881070b 	ldhu	r2,1052(sp)
 2000bb4:	1080100c 	andi	r2,r2,64
 2000bb8:	10000326 	beq	r2,zero,2000bc8 <___vfprintf_internal_r+0x3ec>
 2000bbc:	b880030b 	ldhu	r2,12(r23)
 2000bc0:	10801014 	ori	r2,r2,64
 2000bc4:	b880030d 	sth	r2,12(r23)
 2000bc8:	8005883a 	mov	r2,r16
 2000bcc:	00000106 	br	2000bd4 <___vfprintf_internal_r+0x3f8>
 2000bd0:	00bfffc4 	movi	r2,-1
 2000bd4:	dfc14917 	ldw	ra,1316(sp)
 2000bd8:	df014817 	ldw	fp,1312(sp)
 2000bdc:	ddc14717 	ldw	r23,1308(sp)
 2000be0:	dd814617 	ldw	r22,1304(sp)
 2000be4:	dd414517 	ldw	r21,1300(sp)
 2000be8:	dd014417 	ldw	r20,1296(sp)
 2000bec:	dcc14317 	ldw	r19,1292(sp)
 2000bf0:	dc814217 	ldw	r18,1288(sp)
 2000bf4:	dc414117 	ldw	r17,1284(sp)
 2000bf8:	dc014017 	ldw	r16,1280(sp)
 2000bfc:	dec14a04 	addi	sp,sp,1320
 2000c00:	f800283a 	ret
 2000c04:	b009883a 	mov	r4,r22
 2000c08:	b80b883a 	mov	r5,r23
 2000c0c:	d9811e04 	addi	r6,sp,1144
 2000c10:	2007a240 	call	2007a24 <__sprint_r>
 2000c14:	1000081e 	bne	r2,zero,2000c38 <___vfprintf_internal_r+0x45c>
 2000c18:	da000404 	addi	r8,sp,16
 2000c1c:	003f4606 	br	2000938 <___vfprintf_internal_r+0x15c>
 2000c20:	d8812017 	ldw	r2,1152(sp)
 2000c24:	10000426 	beq	r2,zero,2000c38 <___vfprintf_internal_r+0x45c>
 2000c28:	b009883a 	mov	r4,r22
 2000c2c:	b80b883a 	mov	r5,r23
 2000c30:	d9811e04 	addi	r6,sp,1144
 2000c34:	2007a240 	call	2007a24 <__sprint_r>
 2000c38:	b880030b 	ldhu	r2,12(r23)
 2000c3c:	1080100c 	andi	r2,r2,64
 2000c40:	103fe31e 	bne	r2,zero,2000bd0 <___vfprintf_internal_r+0x3f4>
 2000c44:	d8812f17 	ldw	r2,1212(sp)
 2000c48:	003fe206 	br	2000bd4 <___vfprintf_internal_r+0x3f8>
 2000c4c:	b009883a 	mov	r4,r22
 2000c50:	20047fc0 	call	20047fc <__sinit>
 2000c54:	003ef906 	br	200083c <___vfprintf_internal_r+0x60>
 2000c58:	dc012a17 	ldw	r16,1192(sp)
 2000c5c:	003f3906 	br	2000944 <___vfprintf_internal_r+0x168>
 2000c60:	1805883a 	mov	r2,r3
 2000c64:	8c400114 	ori	r17,r17,4
 2000c68:	1c000007 	ldb	r16,0(r3)
 2000c6c:	003f4206 	br	2000978 <___vfprintf_internal_r+0x19c>
 2000c70:	1c000007 	ldb	r16,0(r3)
 2000c74:	18800044 	addi	r2,r3,1
 2000c78:	8286b326 	beq	r16,r10,2002748 <___vfprintf_internal_r+0x1f6c>
 2000c7c:	82fff404 	addi	r11,r16,-48
 2000c80:	1007883a 	mov	r3,r2
 2000c84:	0013883a 	mov	r9,zero
 2000c88:	2aff3c36 	bltu	r5,r11,200097c <___vfprintf_internal_r+0x1a0>
 2000c8c:	1c000007 	ldb	r16,0(r3)
 2000c90:	4a4002a4 	muli	r9,r9,10
 2000c94:	18c00044 	addi	r3,r3,1
 2000c98:	5a53883a 	add	r9,r11,r9
 2000c9c:	82fff404 	addi	r11,r16,-48
 2000ca0:	2afffa2e 	bgeu	r5,r11,2000c8c <___vfprintf_internal_r+0x4b0>
 2000ca4:	483f350e 	bge	r9,zero,200097c <___vfprintf_internal_r+0x1a0>
 2000ca8:	027fffc4 	movi	r9,-1
 2000cac:	003f3306 	br	200097c <___vfprintf_internal_r+0x1a0>
 2000cb0:	8c402014 	ori	r17,r17,128
 2000cb4:	1805883a 	mov	r2,r3
 2000cb8:	1c000007 	ldb	r16,0(r3)
 2000cbc:	003f2e06 	br	2000978 <___vfprintf_internal_r+0x19c>
 2000cc0:	db012d17 	ldw	r12,1204(sp)
 2000cc4:	dac12d17 	ldw	r11,1204(sp)
 2000cc8:	d8c12a15 	stw	r3,1192(sp)
 2000ccc:	63000017 	ldw	r12,0(r12)
 2000cd0:	5ac00117 	ldw	r11,4(r11)
 2000cd4:	d9812785 	stb	r6,1182(sp)
 2000cd8:	6009883a 	mov	r4,r12
 2000cdc:	580b883a 	mov	r5,r11
 2000ce0:	db013715 	stw	r12,1244(sp)
 2000ce4:	da013f15 	stw	r8,1276(sp)
 2000ce8:	da413e15 	stw	r9,1272(sp)
 2000cec:	dac13915 	stw	r11,1252(sp)
 2000cf0:	20076800 	call	2007680 <__fpclassifyd>
 2000cf4:	db012d17 	ldw	r12,1204(sp)
 2000cf8:	04800044 	movi	r18,1
 2000cfc:	da013f17 	ldw	r8,1276(sp)
 2000d00:	64c00204 	addi	r19,r12,8
 2000d04:	da413e17 	ldw	r9,1272(sp)
 2000d08:	d9013717 	ldw	r4,1244(sp)
 2000d0c:	d9413917 	ldw	r5,1252(sp)
 2000d10:	1484581e 	bne	r2,r18,2001e74 <___vfprintf_internal_r+0x1698>
 2000d14:	000d883a 	mov	r6,zero
 2000d18:	000f883a 	mov	r7,zero
 2000d1c:	200b63c0 	call	200b63c <__ledf2>
 2000d20:	da013f17 	ldw	r8,1276(sp)
 2000d24:	1005ef16 	blt	r2,zero,20024e4 <___vfprintf_internal_r+0x1d08>
 2000d28:	dd412783 	ldbu	r21,1182(sp)
 2000d2c:	008011c4 	movi	r2,71
 2000d30:	14053b0e 	bge	r2,r16,2002220 <___vfprintf_internal_r+0x1a44>
 2000d34:	00c08074 	movhi	r3,513
 2000d38:	18fc6d04 	addi	r3,r3,-3660
 2000d3c:	d8c13115 	stw	r3,1220(sp)
 2000d40:	02c000c4 	movi	r11,3
 2000d44:	00bfdfc4 	movi	r2,-129
 2000d48:	dac12b15 	stw	r11,1196(sp)
 2000d4c:	88a2703a 	and	r17,r17,r2
 2000d50:	dcc12d15 	stw	r19,1204(sp)
 2000d54:	5825883a 	mov	r18,r11
 2000d58:	d8013215 	stw	zero,1224(sp)
 2000d5c:	d8013415 	stw	zero,1232(sp)
 2000d60:	00003206 	br	2000e2c <___vfprintf_internal_r+0x650>
 2000d64:	8c400214 	ori	r17,r17,8
 2000d68:	1805883a 	mov	r2,r3
 2000d6c:	1c000007 	ldb	r16,0(r3)
 2000d70:	003f0106 	br	2000978 <___vfprintf_internal_r+0x19c>
 2000d74:	8c400414 	ori	r17,r17,16
 2000d78:	d8c12a15 	stw	r3,1192(sp)
 2000d7c:	88c0080c 	andi	r3,r17,32
 2000d80:	d8812d17 	ldw	r2,1204(sp)
 2000d84:	18017726 	beq	r3,zero,2001364 <___vfprintf_internal_r+0xb88>
 2000d88:	db012d17 	ldw	r12,1204(sp)
 2000d8c:	14c00017 	ldw	r19,0(r2)
 2000d90:	17000117 	ldw	fp,4(r2)
 2000d94:	63000204 	addi	r12,r12,8
 2000d98:	db012d15 	stw	r12,1204(sp)
 2000d9c:	0005883a 	mov	r2,zero
 2000da0:	9f06b03a 	or	r3,r19,fp
 2000da4:	d8012785 	stb	zero,1182(sp)
 2000da8:	da413215 	stw	r9,1224(sp)
 2000dac:	002b883a 	mov	r21,zero
 2000db0:	48000216 	blt	r9,zero,2000dbc <___vfprintf_internal_r+0x5e0>
 2000db4:	013fdfc4 	movi	r4,-129
 2000db8:	8922703a 	and	r17,r17,r4
 2000dbc:	1801ed1e 	bne	r3,zero,2001574 <___vfprintf_internal_r+0xd98>
 2000dc0:	4802e026 	beq	r9,zero,2001944 <___vfprintf_internal_r+0x1168>
 2000dc4:	10803fcc 	andi	r2,r2,255
 2000dc8:	00c00044 	movi	r3,1
 2000dcc:	10c20f26 	beq	r2,r3,200160c <___vfprintf_internal_r+0xe30>
 2000dd0:	00c00084 	movi	r3,2
 2000dd4:	10c2fd26 	beq	r2,r3,20019cc <___vfprintf_internal_r+0x11f0>
 2000dd8:	d8c10e04 	addi	r3,sp,1080
 2000ddc:	9808d0fa 	srli	r4,r19,3
 2000de0:	e00a977a 	slli	r5,fp,29
 2000de4:	e038d0fa 	srli	fp,fp,3
 2000de8:	9cc001cc 	andi	r19,r19,7
 2000dec:	98800c04 	addi	r2,r19,48
 2000df0:	18ffffc4 	addi	r3,r3,-1
 2000df4:	2926b03a 	or	r19,r5,r4
 2000df8:	18800005 	stb	r2,0(r3)
 2000dfc:	9f08b03a 	or	r4,r19,fp
 2000e00:	203ff61e 	bne	r4,zero,2000ddc <___vfprintf_internal_r+0x600>
 2000e04:	8900004c 	andi	r4,r17,1
 2000e08:	d8c13115 	stw	r3,1220(sp)
 2000e0c:	2003791e 	bne	r4,zero,2001bf4 <___vfprintf_internal_r+0x1418>
 2000e10:	dac12817 	ldw	r11,1184(sp)
 2000e14:	58e5c83a 	sub	r18,r11,r3
 2000e18:	9005883a 	mov	r2,r18
 2000e1c:	9240010e 	bge	r18,r9,2000e24 <___vfprintf_internal_r+0x648>
 2000e20:	4805883a 	mov	r2,r9
 2000e24:	d8812b15 	stw	r2,1196(sp)
 2000e28:	d8013415 	stw	zero,1232(sp)
 2000e2c:	a8803fcc 	andi	r2,r21,255
 2000e30:	1080201c 	xori	r2,r2,128
 2000e34:	10bfe004 	addi	r2,r2,-128
 2000e38:	10000326 	beq	r2,zero,2000e48 <___vfprintf_internal_r+0x66c>
 2000e3c:	db012b17 	ldw	r12,1196(sp)
 2000e40:	63000044 	addi	r12,r12,1
 2000e44:	db012b15 	stw	r12,1196(sp)
 2000e48:	88c0008c 	andi	r3,r17,2
 2000e4c:	d8c12c15 	stw	r3,1200(sp)
 2000e50:	18000326 	beq	r3,zero,2000e60 <___vfprintf_internal_r+0x684>
 2000e54:	dac12b17 	ldw	r11,1196(sp)
 2000e58:	5ac00084 	addi	r11,r11,2
 2000e5c:	dac12b15 	stw	r11,1196(sp)
 2000e60:	8b00210c 	andi	r12,r17,132
 2000e64:	db013015 	stw	r12,1216(sp)
 2000e68:	6001c01e 	bne	r12,zero,200156c <___vfprintf_internal_r+0xd90>
 2000e6c:	dac12e17 	ldw	r11,1208(sp)
 2000e70:	db012b17 	ldw	r12,1196(sp)
 2000e74:	5b39c83a 	sub	fp,r11,r12
 2000e78:	0701bc0e 	bge	zero,fp,200156c <___vfprintf_internal_r+0xd90>
 2000e7c:	02400404 	movi	r9,16
 2000e80:	d8c12017 	ldw	r3,1152(sp)
 2000e84:	d8811f17 	ldw	r2,1148(sp)
 2000e88:	4f05220e 	bge	r9,fp,2002314 <___vfprintf_internal_r+0x1b38>
 2000e8c:	01408074 	movhi	r5,513
 2000e90:	297c8084 	addi	r5,r5,-3582
 2000e94:	d9413615 	stw	r5,1240(sp)
 2000e98:	482b883a 	mov	r21,r9
 2000e9c:	04c001c4 	movi	r19,7
 2000ea0:	00000306 	br	2000eb0 <___vfprintf_internal_r+0x6d4>
 2000ea4:	e73ffc04 	addi	fp,fp,-16
 2000ea8:	42000204 	addi	r8,r8,8
 2000eac:	af00130e 	bge	r21,fp,2000efc <___vfprintf_internal_r+0x720>
 2000eb0:	02c08074 	movhi	r11,513
 2000eb4:	18c00404 	addi	r3,r3,16
 2000eb8:	10800044 	addi	r2,r2,1
 2000ebc:	5afc8084 	addi	r11,r11,-3582
 2000ec0:	42c00015 	stw	r11,0(r8)
 2000ec4:	45400115 	stw	r21,4(r8)
 2000ec8:	d8c12015 	stw	r3,1152(sp)
 2000ecc:	d8811f15 	stw	r2,1148(sp)
 2000ed0:	98bff40e 	bge	r19,r2,2000ea4 <___vfprintf_internal_r+0x6c8>
 2000ed4:	b009883a 	mov	r4,r22
 2000ed8:	b80b883a 	mov	r5,r23
 2000edc:	d9811e04 	addi	r6,sp,1144
 2000ee0:	2007a240 	call	2007a24 <__sprint_r>
 2000ee4:	103f541e 	bne	r2,zero,2000c38 <___vfprintf_internal_r+0x45c>
 2000ee8:	e73ffc04 	addi	fp,fp,-16
 2000eec:	d8c12017 	ldw	r3,1152(sp)
 2000ef0:	d8811f17 	ldw	r2,1148(sp)
 2000ef4:	da000404 	addi	r8,sp,16
 2000ef8:	af3fed16 	blt	r21,fp,2000eb0 <___vfprintf_internal_r+0x6d4>
 2000efc:	db013617 	ldw	r12,1240(sp)
 2000f00:	e0c7883a 	add	r3,fp,r3
 2000f04:	10800044 	addi	r2,r2,1
 2000f08:	43000015 	stw	r12,0(r8)
 2000f0c:	47000115 	stw	fp,4(r8)
 2000f10:	d8c12015 	stw	r3,1152(sp)
 2000f14:	d8811f15 	stw	r2,1148(sp)
 2000f18:	010001c4 	movi	r4,7
 2000f1c:	2082f416 	blt	r4,r2,2001af0 <___vfprintf_internal_r+0x1314>
 2000f20:	d8812787 	ldb	r2,1182(sp)
 2000f24:	42000204 	addi	r8,r8,8
 2000f28:	10000c26 	beq	r2,zero,2000f5c <___vfprintf_internal_r+0x780>
 2000f2c:	d8811f17 	ldw	r2,1148(sp)
 2000f30:	d9012784 	addi	r4,sp,1182
 2000f34:	18c00044 	addi	r3,r3,1
 2000f38:	10800044 	addi	r2,r2,1
 2000f3c:	41000015 	stw	r4,0(r8)
 2000f40:	01000044 	movi	r4,1
 2000f44:	41000115 	stw	r4,4(r8)
 2000f48:	d8c12015 	stw	r3,1152(sp)
 2000f4c:	d8811f15 	stw	r2,1148(sp)
 2000f50:	010001c4 	movi	r4,7
 2000f54:	20828d16 	blt	r4,r2,200198c <___vfprintf_internal_r+0x11b0>
 2000f58:	42000204 	addi	r8,r8,8
 2000f5c:	dac12c17 	ldw	r11,1200(sp)
 2000f60:	58000c26 	beq	r11,zero,2000f94 <___vfprintf_internal_r+0x7b8>
 2000f64:	d8811f17 	ldw	r2,1148(sp)
 2000f68:	d9012704 	addi	r4,sp,1180
 2000f6c:	18c00084 	addi	r3,r3,2
 2000f70:	10800044 	addi	r2,r2,1
 2000f74:	41000015 	stw	r4,0(r8)
 2000f78:	01000084 	movi	r4,2
 2000f7c:	41000115 	stw	r4,4(r8)
 2000f80:	d8c12015 	stw	r3,1152(sp)
 2000f84:	d8811f15 	stw	r2,1148(sp)
 2000f88:	010001c4 	movi	r4,7
 2000f8c:	20828716 	blt	r4,r2,20019ac <___vfprintf_internal_r+0x11d0>
 2000f90:	42000204 	addi	r8,r8,8
 2000f94:	db013017 	ldw	r12,1216(sp)
 2000f98:	00802004 	movi	r2,128
 2000f9c:	6081e926 	beq	r12,r2,2001744 <___vfprintf_internal_r+0xf68>
 2000fa0:	db013217 	ldw	r12,1224(sp)
 2000fa4:	64abc83a 	sub	r21,r12,r18
 2000fa8:	0540260e 	bge	zero,r21,2001044 <___vfprintf_internal_r+0x868>
 2000fac:	07000404 	movi	fp,16
 2000fb0:	d8811f17 	ldw	r2,1148(sp)
 2000fb4:	e5443d0e 	bge	fp,r21,20020ac <___vfprintf_internal_r+0x18d0>
 2000fb8:	01408074 	movhi	r5,513
 2000fbc:	297c7c84 	addi	r5,r5,-3598
 2000fc0:	d9412c15 	stw	r5,1200(sp)
 2000fc4:	04c001c4 	movi	r19,7
 2000fc8:	00000306 	br	2000fd8 <___vfprintf_internal_r+0x7fc>
 2000fcc:	ad7ffc04 	addi	r21,r21,-16
 2000fd0:	42000204 	addi	r8,r8,8
 2000fd4:	e540110e 	bge	fp,r21,200101c <___vfprintf_internal_r+0x840>
 2000fd8:	18c00404 	addi	r3,r3,16
 2000fdc:	10800044 	addi	r2,r2,1
 2000fe0:	45000015 	stw	r20,0(r8)
 2000fe4:	47000115 	stw	fp,4(r8)
 2000fe8:	d8c12015 	stw	r3,1152(sp)
 2000fec:	d8811f15 	stw	r2,1148(sp)
 2000ff0:	98bff60e 	bge	r19,r2,2000fcc <___vfprintf_internal_r+0x7f0>
 2000ff4:	b009883a 	mov	r4,r22
 2000ff8:	b80b883a 	mov	r5,r23
 2000ffc:	d9811e04 	addi	r6,sp,1144
 2001000:	2007a240 	call	2007a24 <__sprint_r>
 2001004:	103f0c1e 	bne	r2,zero,2000c38 <___vfprintf_internal_r+0x45c>
 2001008:	ad7ffc04 	addi	r21,r21,-16
 200100c:	d8c12017 	ldw	r3,1152(sp)
 2001010:	d8811f17 	ldw	r2,1148(sp)
 2001014:	da000404 	addi	r8,sp,16
 2001018:	e57fef16 	blt	fp,r21,2000fd8 <___vfprintf_internal_r+0x7fc>
 200101c:	dac12c17 	ldw	r11,1200(sp)
 2001020:	1d47883a 	add	r3,r3,r21
 2001024:	10800044 	addi	r2,r2,1
 2001028:	42c00015 	stw	r11,0(r8)
 200102c:	45400115 	stw	r21,4(r8)
 2001030:	d8c12015 	stw	r3,1152(sp)
 2001034:	d8811f15 	stw	r2,1148(sp)
 2001038:	010001c4 	movi	r4,7
 200103c:	20824b16 	blt	r4,r2,200196c <___vfprintf_internal_r+0x1190>
 2001040:	42000204 	addi	r8,r8,8
 2001044:	8880400c 	andi	r2,r17,256
 2001048:	1001761e 	bne	r2,zero,2001624 <___vfprintf_internal_r+0xe48>
 200104c:	d8811f17 	ldw	r2,1148(sp)
 2001050:	db013117 	ldw	r12,1220(sp)
 2001054:	1c87883a 	add	r3,r3,r18
 2001058:	10800044 	addi	r2,r2,1
 200105c:	43000015 	stw	r12,0(r8)
 2001060:	44800115 	stw	r18,4(r8)
 2001064:	d8c12015 	stw	r3,1152(sp)
 2001068:	d8811f15 	stw	r2,1148(sp)
 200106c:	010001c4 	movi	r4,7
 2001070:	20822616 	blt	r4,r2,200190c <___vfprintf_internal_r+0x1130>
 2001074:	42000204 	addi	r8,r8,8
 2001078:	8c40010c 	andi	r17,r17,4
 200107c:	88003126 	beq	r17,zero,2001144 <___vfprintf_internal_r+0x968>
 2001080:	db012e17 	ldw	r12,1208(sp)
 2001084:	dac12b17 	ldw	r11,1196(sp)
 2001088:	62e1c83a 	sub	r16,r12,r11
 200108c:	04002d0e 	bge	zero,r16,2001144 <___vfprintf_internal_r+0x968>
 2001090:	04400404 	movi	r17,16
 2001094:	d8811f17 	ldw	r2,1148(sp)
 2001098:	8c04df0e 	bge	r17,r16,2002418 <___vfprintf_internal_r+0x1c3c>
 200109c:	01008074 	movhi	r4,513
 20010a0:	213c8084 	addi	r4,r4,-3582
 20010a4:	d9013615 	stw	r4,1240(sp)
 20010a8:	048001c4 	movi	r18,7
 20010ac:	00000306 	br	20010bc <___vfprintf_internal_r+0x8e0>
 20010b0:	843ffc04 	addi	r16,r16,-16
 20010b4:	42000204 	addi	r8,r8,8
 20010b8:	8c00130e 	bge	r17,r16,2001108 <___vfprintf_internal_r+0x92c>
 20010bc:	01408074 	movhi	r5,513
 20010c0:	18c00404 	addi	r3,r3,16
 20010c4:	10800044 	addi	r2,r2,1
 20010c8:	297c8084 	addi	r5,r5,-3582
 20010cc:	41400015 	stw	r5,0(r8)
 20010d0:	44400115 	stw	r17,4(r8)
 20010d4:	d8c12015 	stw	r3,1152(sp)
 20010d8:	d8811f15 	stw	r2,1148(sp)
 20010dc:	90bff40e 	bge	r18,r2,20010b0 <___vfprintf_internal_r+0x8d4>
 20010e0:	b009883a 	mov	r4,r22
 20010e4:	b80b883a 	mov	r5,r23
 20010e8:	d9811e04 	addi	r6,sp,1144
 20010ec:	2007a240 	call	2007a24 <__sprint_r>
 20010f0:	103ed11e 	bne	r2,zero,2000c38 <___vfprintf_internal_r+0x45c>
 20010f4:	843ffc04 	addi	r16,r16,-16
 20010f8:	d8c12017 	ldw	r3,1152(sp)
 20010fc:	d8811f17 	ldw	r2,1148(sp)
 2001100:	da000404 	addi	r8,sp,16
 2001104:	8c3fed16 	blt	r17,r16,20010bc <___vfprintf_internal_r+0x8e0>
 2001108:	dac13617 	ldw	r11,1240(sp)
 200110c:	1c07883a 	add	r3,r3,r16
 2001110:	10800044 	addi	r2,r2,1
 2001114:	42c00015 	stw	r11,0(r8)
 2001118:	44000115 	stw	r16,4(r8)
 200111c:	d8c12015 	stw	r3,1152(sp)
 2001120:	d8811f15 	stw	r2,1148(sp)
 2001124:	010001c4 	movi	r4,7
 2001128:	2080060e 	bge	r4,r2,2001144 <___vfprintf_internal_r+0x968>
 200112c:	b009883a 	mov	r4,r22
 2001130:	b80b883a 	mov	r5,r23
 2001134:	d9811e04 	addi	r6,sp,1144
 2001138:	2007a240 	call	2007a24 <__sprint_r>
 200113c:	103ebe1e 	bne	r2,zero,2000c38 <___vfprintf_internal_r+0x45c>
 2001140:	d8c12017 	ldw	r3,1152(sp)
 2001144:	d8812b17 	ldw	r2,1196(sp)
 2001148:	db012e17 	ldw	r12,1208(sp)
 200114c:	1300010e 	bge	r2,r12,2001154 <___vfprintf_internal_r+0x978>
 2001150:	6005883a 	mov	r2,r12
 2001154:	dac12f17 	ldw	r11,1212(sp)
 2001158:	5897883a 	add	r11,r11,r2
 200115c:	dac12f15 	stw	r11,1212(sp)
 2001160:	1801f21e 	bne	r3,zero,200192c <___vfprintf_internal_r+0x1150>
 2001164:	d8011f15 	stw	zero,1148(sp)
 2001168:	da000404 	addi	r8,sp,16
 200116c:	003dd806 	br	20008d0 <___vfprintf_internal_r+0xf4>
 2001170:	8c400414 	ori	r17,r17,16
 2001174:	d8c12a15 	stw	r3,1192(sp)
 2001178:	88c0080c 	andi	r3,r17,32
 200117c:	d8812d17 	ldw	r2,1204(sp)
 2001180:	18004626 	beq	r3,zero,200129c <___vfprintf_internal_r+0xac0>
 2001184:	dac12d17 	ldw	r11,1204(sp)
 2001188:	14c00017 	ldw	r19,0(r2)
 200118c:	17000117 	ldw	fp,4(r2)
 2001190:	5ac00204 	addi	r11,r11,8
 2001194:	dac12d15 	stw	r11,1204(sp)
 2001198:	00800044 	movi	r2,1
 200119c:	9f06b03a 	or	r3,r19,fp
 20011a0:	003f0006 	br	2000da4 <___vfprintf_internal_r+0x5c8>
 20011a4:	1805883a 	mov	r2,r3
 20011a8:	d8012e15 	stw	zero,1208(sp)
 20011ac:	82fff404 	addi	r11,r16,-48
 20011b0:	0019883a 	mov	r12,zero
 20011b4:	14000007 	ldb	r16,0(r2)
 20011b8:	630002a4 	muli	r12,r12,10
 20011bc:	18c00044 	addi	r3,r3,1
 20011c0:	1805883a 	mov	r2,r3
 20011c4:	62d9883a 	add	r12,r12,r11
 20011c8:	82fff404 	addi	r11,r16,-48
 20011cc:	2afff92e 	bgeu	r5,r11,20011b4 <___vfprintf_internal_r+0x9d8>
 20011d0:	db012e15 	stw	r12,1208(sp)
 20011d4:	003de906 	br	200097c <___vfprintf_internal_r+0x1a0>
 20011d8:	8c400414 	ori	r17,r17,16
 20011dc:	d8c12a15 	stw	r3,1192(sp)
 20011e0:	d9812785 	stb	r6,1182(sp)
 20011e4:	8880080c 	andi	r2,r17,32
 20011e8:	d8c12d17 	ldw	r3,1204(sp)
 20011ec:	10007a26 	beq	r2,zero,20013d8 <___vfprintf_internal_r+0xbfc>
 20011f0:	db012d17 	ldw	r12,1204(sp)
 20011f4:	18800117 	ldw	r2,4(r3)
 20011f8:	1cc00017 	ldw	r19,0(r3)
 20011fc:	63000204 	addi	r12,r12,8
 2001200:	db012d15 	stw	r12,1204(sp)
 2001204:	1039883a 	mov	fp,r2
 2001208:	10031016 	blt	r2,zero,2001e4c <___vfprintf_internal_r+0x1670>
 200120c:	dd412783 	ldbu	r21,1182(sp)
 2001210:	da413215 	stw	r9,1224(sp)
 2001214:	00800044 	movi	r2,1
 2001218:	9f06b03a 	or	r3,r19,fp
 200121c:	003ee406 	br	2000db0 <___vfprintf_internal_r+0x5d4>
 2001220:	03008074 	movhi	r12,513
 2001224:	633c7004 	addi	r12,r12,-3648
 2001228:	d8c12a15 	stw	r3,1192(sp)
 200122c:	d9812785 	stb	r6,1182(sp)
 2001230:	db013b15 	stw	r12,1260(sp)
 2001234:	88c0080c 	andi	r3,r17,32
 2001238:	d8812d17 	ldw	r2,1204(sp)
 200123c:	18002b26 	beq	r3,zero,20012ec <___vfprintf_internal_r+0xb10>
 2001240:	dac12d17 	ldw	r11,1204(sp)
 2001244:	14c00017 	ldw	r19,0(r2)
 2001248:	17000117 	ldw	fp,4(r2)
 200124c:	5ac00204 	addi	r11,r11,8
 2001250:	dac12d15 	stw	r11,1204(sp)
 2001254:	8880004c 	andi	r2,r17,1
 2001258:	10025b26 	beq	r2,zero,2001bc8 <___vfprintf_internal_r+0x13ec>
 200125c:	9f06b03a 	or	r3,r19,fp
 2001260:	18037026 	beq	r3,zero,2002024 <___vfprintf_internal_r+0x1848>
 2001264:	00800c04 	movi	r2,48
 2001268:	d8812705 	stb	r2,1180(sp)
 200126c:	dc012745 	stb	r16,1181(sp)
 2001270:	8c400094 	ori	r17,r17,2
 2001274:	00800084 	movi	r2,2
 2001278:	003eca06 	br	2000da4 <___vfprintf_internal_r+0x5c8>
 200127c:	8c400814 	ori	r17,r17,32
 2001280:	1805883a 	mov	r2,r3
 2001284:	1c000007 	ldb	r16,0(r3)
 2001288:	003dbb06 	br	2000978 <___vfprintf_internal_r+0x19c>
 200128c:	d8c12a15 	stw	r3,1192(sp)
 2001290:	88c0080c 	andi	r3,r17,32
 2001294:	d8812d17 	ldw	r2,1204(sp)
 2001298:	183fba1e 	bne	r3,zero,2001184 <___vfprintf_internal_r+0x9a8>
 200129c:	88c0040c 	andi	r3,r17,16
 20012a0:	18024c1e 	bne	r3,zero,2001bd4 <___vfprintf_internal_r+0x13f8>
 20012a4:	88c0100c 	andi	r3,r17,64
 20012a8:	18024a26 	beq	r3,zero,2001bd4 <___vfprintf_internal_r+0x13f8>
 20012ac:	dac12d17 	ldw	r11,1204(sp)
 20012b0:	14c0000b 	ldhu	r19,0(r2)
 20012b4:	0039883a 	mov	fp,zero
 20012b8:	5ac00104 	addi	r11,r11,4
 20012bc:	dac12d15 	stw	r11,1204(sp)
 20012c0:	00800044 	movi	r2,1
 20012c4:	9807883a 	mov	r3,r19
 20012c8:	003eb606 	br	2000da4 <___vfprintf_internal_r+0x5c8>
 20012cc:	00808074 	movhi	r2,513
 20012d0:	10bc7504 	addi	r2,r2,-3628
 20012d4:	d8c12a15 	stw	r3,1192(sp)
 20012d8:	d8813b15 	stw	r2,1260(sp)
 20012dc:	d9812785 	stb	r6,1182(sp)
 20012e0:	88c0080c 	andi	r3,r17,32
 20012e4:	d8812d17 	ldw	r2,1204(sp)
 20012e8:	183fd51e 	bne	r3,zero,2001240 <___vfprintf_internal_r+0xa64>
 20012ec:	88c0040c 	andi	r3,r17,16
 20012f0:	18034126 	beq	r3,zero,2001ff8 <___vfprintf_internal_r+0x181c>
 20012f4:	db012d17 	ldw	r12,1204(sp)
 20012f8:	14c00017 	ldw	r19,0(r2)
 20012fc:	0039883a 	mov	fp,zero
 2001300:	63000104 	addi	r12,r12,4
 2001304:	db012d15 	stw	r12,1204(sp)
 2001308:	003fd206 	br	2001254 <___vfprintf_internal_r+0xa78>
 200130c:	1c000007 	ldb	r16,0(r3)
 2001310:	81c3d626 	beq	r16,r7,200226c <___vfprintf_internal_r+0x1a90>
 2001314:	8c400414 	ori	r17,r17,16
 2001318:	1805883a 	mov	r2,r3
 200131c:	003d9606 	br	2000978 <___vfprintf_internal_r+0x19c>
 2001320:	d8c12a15 	stw	r3,1192(sp)
 2001324:	d9812785 	stb	r6,1182(sp)
 2001328:	8880080c 	andi	r2,r17,32
 200132c:	10033f26 	beq	r2,zero,200202c <___vfprintf_internal_r+0x1850>
 2001330:	db012d17 	ldw	r12,1204(sp)
 2001334:	dac12f17 	ldw	r11,1212(sp)
 2001338:	60800017 	ldw	r2,0(r12)
 200133c:	5807d7fa 	srai	r3,r11,31
 2001340:	63000104 	addi	r12,r12,4
 2001344:	db012d15 	stw	r12,1204(sp)
 2001348:	12c00015 	stw	r11,0(r2)
 200134c:	10c00115 	stw	r3,4(r2)
 2001350:	003d5f06 	br	20008d0 <___vfprintf_internal_r+0xf4>
 2001354:	d8c12a15 	stw	r3,1192(sp)
 2001358:	88c0080c 	andi	r3,r17,32
 200135c:	d8812d17 	ldw	r2,1204(sp)
 2001360:	183e891e 	bne	r3,zero,2000d88 <___vfprintf_internal_r+0x5ac>
 2001364:	88c0040c 	andi	r3,r17,16
 2001368:	1801ea1e 	bne	r3,zero,2001b14 <___vfprintf_internal_r+0x1338>
 200136c:	88c0100c 	andi	r3,r17,64
 2001370:	1801e826 	beq	r3,zero,2001b14 <___vfprintf_internal_r+0x1338>
 2001374:	db012d17 	ldw	r12,1204(sp)
 2001378:	14c0000b 	ldhu	r19,0(r2)
 200137c:	0039883a 	mov	fp,zero
 2001380:	63000104 	addi	r12,r12,4
 2001384:	db012d15 	stw	r12,1204(sp)
 2001388:	0005883a 	mov	r2,zero
 200138c:	9807883a 	mov	r3,r19
 2001390:	003e8406 	br	2000da4 <___vfprintf_internal_r+0x5c8>
 2001394:	30803fcc 	andi	r2,r6,255
 2001398:	1080201c 	xori	r2,r2,128
 200139c:	10bfe004 	addi	r2,r2,-128
 20013a0:	10031d1e 	bne	r2,zero,2002018 <___vfprintf_internal_r+0x183c>
 20013a4:	1805883a 	mov	r2,r3
 20013a8:	01800804 	movi	r6,32
 20013ac:	1c000007 	ldb	r16,0(r3)
 20013b0:	003d7106 	br	2000978 <___vfprintf_internal_r+0x19c>
 20013b4:	8c400054 	ori	r17,r17,1
 20013b8:	1805883a 	mov	r2,r3
 20013bc:	1c000007 	ldb	r16,0(r3)
 20013c0:	003d6d06 	br	2000978 <___vfprintf_internal_r+0x19c>
 20013c4:	d8c12a15 	stw	r3,1192(sp)
 20013c8:	d9812785 	stb	r6,1182(sp)
 20013cc:	8880080c 	andi	r2,r17,32
 20013d0:	d8c12d17 	ldw	r3,1204(sp)
 20013d4:	103f861e 	bne	r2,zero,20011f0 <___vfprintf_internal_r+0xa14>
 20013d8:	8880040c 	andi	r2,r17,16
 20013dc:	1001f31e 	bne	r2,zero,2001bac <___vfprintf_internal_r+0x13d0>
 20013e0:	8880100c 	andi	r2,r17,64
 20013e4:	1001f126 	beq	r2,zero,2001bac <___vfprintf_internal_r+0x13d0>
 20013e8:	1cc0000f 	ldh	r19,0(r3)
 20013ec:	db012d17 	ldw	r12,1204(sp)
 20013f0:	9839d7fa 	srai	fp,r19,31
 20013f4:	63000104 	addi	r12,r12,4
 20013f8:	db012d15 	stw	r12,1204(sp)
 20013fc:	e005883a 	mov	r2,fp
 2001400:	003f8106 	br	2001208 <___vfprintf_internal_r+0xa2c>
 2001404:	8c401014 	ori	r17,r17,64
 2001408:	1805883a 	mov	r2,r3
 200140c:	1c000007 	ldb	r16,0(r3)
 2001410:	003d5906 	br	2000978 <___vfprintf_internal_r+0x19c>
 2001414:	db012d17 	ldw	r12,1204(sp)
 2001418:	d8c12a15 	stw	r3,1192(sp)
 200141c:	00c00044 	movi	r3,1
 2001420:	60800017 	ldw	r2,0(r12)
 2001424:	63000104 	addi	r12,r12,4
 2001428:	d8c12b15 	stw	r3,1196(sp)
 200142c:	d8012785 	stb	zero,1182(sp)
 2001430:	d8810405 	stb	r2,1040(sp)
 2001434:	db012d15 	stw	r12,1204(sp)
 2001438:	dac10404 	addi	r11,sp,1040
 200143c:	1825883a 	mov	r18,r3
 2001440:	d8013215 	stw	zero,1224(sp)
 2001444:	d8013415 	stw	zero,1232(sp)
 2001448:	dac13115 	stw	r11,1220(sp)
 200144c:	0005883a 	mov	r2,zero
 2001450:	003e7d06 	br	2000e48 <___vfprintf_internal_r+0x66c>
 2001454:	db012d17 	ldw	r12,1204(sp)
 2001458:	00800c04 	movi	r2,48
 200145c:	d8812705 	stb	r2,1180(sp)
 2001460:	64c00017 	ldw	r19,0(r12)
 2001464:	00801e04 	movi	r2,120
 2001468:	d8812745 	stb	r2,1181(sp)
 200146c:	00808074 	movhi	r2,513
 2001470:	10bc7504 	addi	r2,r2,-3628
 2001474:	63000104 	addi	r12,r12,4
 2001478:	d8c12a15 	stw	r3,1192(sp)
 200147c:	d8813b15 	stw	r2,1260(sp)
 2001480:	0039883a 	mov	fp,zero
 2001484:	8c400094 	ori	r17,r17,2
 2001488:	db012d15 	stw	r12,1204(sp)
 200148c:	00800084 	movi	r2,2
 2001490:	04001e04 	movi	r16,120
 2001494:	9807883a 	mov	r3,r19
 2001498:	003e4206 	br	2000da4 <___vfprintf_internal_r+0x5c8>
 200149c:	dac12d17 	ldw	r11,1204(sp)
 20014a0:	db012d17 	ldw	r12,1204(sp)
 20014a4:	d8c12a15 	stw	r3,1192(sp)
 20014a8:	5ac00017 	ldw	r11,0(r11)
 20014ac:	d8012785 	stb	zero,1182(sp)
 20014b0:	64c00104 	addi	r19,r12,4
 20014b4:	dac13115 	stw	r11,1220(sp)
 20014b8:	5803e826 	beq	r11,zero,200245c <___vfprintf_internal_r+0x1c80>
 20014bc:	d9013117 	ldw	r4,1220(sp)
 20014c0:	48037a16 	blt	r9,zero,20022ac <___vfprintf_internal_r+0x1ad0>
 20014c4:	480d883a 	mov	r6,r9
 20014c8:	000b883a 	mov	r5,zero
 20014cc:	da013f15 	stw	r8,1276(sp)
 20014d0:	da413e15 	stw	r9,1272(sp)
 20014d4:	2005cb40 	call	2005cb4 <memchr>
 20014d8:	da013f17 	ldw	r8,1276(sp)
 20014dc:	da413e17 	ldw	r9,1272(sp)
 20014e0:	10044426 	beq	r2,zero,20025f4 <___vfprintf_internal_r+0x1e18>
 20014e4:	d8c13117 	ldw	r3,1220(sp)
 20014e8:	10e5c83a 	sub	r18,r2,r3
 20014ec:	4c834416 	blt	r9,r18,2002200 <___vfprintf_internal_r+0x1a24>
 20014f0:	9005883a 	mov	r2,r18
 20014f4:	90037216 	blt	r18,zero,20022c0 <___vfprintf_internal_r+0x1ae4>
 20014f8:	dd412783 	ldbu	r21,1182(sp)
 20014fc:	d8812b15 	stw	r2,1196(sp)
 2001500:	dcc12d15 	stw	r19,1204(sp)
 2001504:	d8013215 	stw	zero,1224(sp)
 2001508:	d8013415 	stw	zero,1232(sp)
 200150c:	003e4706 	br	2000e2c <___vfprintf_internal_r+0x650>
 2001510:	dac12d17 	ldw	r11,1204(sp)
 2001514:	db012d17 	ldw	r12,1204(sp)
 2001518:	5ac00017 	ldw	r11,0(r11)
 200151c:	dac12e15 	stw	r11,1208(sp)
 2001520:	62c00104 	addi	r11,r12,4
 2001524:	db012e17 	ldw	r12,1208(sp)
 2001528:	60034a16 	blt	r12,zero,2002254 <___vfprintf_internal_r+0x1a78>
 200152c:	dac12d15 	stw	r11,1204(sp)
 2001530:	1805883a 	mov	r2,r3
 2001534:	1c000007 	ldb	r16,0(r3)
 2001538:	003d0f06 	br	2000978 <___vfprintf_internal_r+0x19c>
 200153c:	1805883a 	mov	r2,r3
 2001540:	01800ac4 	movi	r6,43
 2001544:	1c000007 	ldb	r16,0(r3)
 2001548:	003d0b06 	br	2000978 <___vfprintf_internal_r+0x19c>
 200154c:	d8c12a15 	stw	r3,1192(sp)
 2001550:	d9812785 	stb	r6,1182(sp)
 2001554:	803db226 	beq	r16,zero,2000c20 <___vfprintf_internal_r+0x444>
 2001558:	00c00044 	movi	r3,1
 200155c:	d8c12b15 	stw	r3,1196(sp)
 2001560:	dc010405 	stb	r16,1040(sp)
 2001564:	d8012785 	stb	zero,1182(sp)
 2001568:	003fb306 	br	2001438 <___vfprintf_internal_r+0xc5c>
 200156c:	d8c12017 	ldw	r3,1152(sp)
 2001570:	003e6d06 	br	2000f28 <___vfprintf_internal_r+0x74c>
 2001574:	10803fcc 	andi	r2,r2,255
 2001578:	00c00044 	movi	r3,1
 200157c:	10fe141e 	bne	r2,r3,2000dd0 <___vfprintf_internal_r+0x5f4>
 2001580:	e000021e 	bne	fp,zero,200158c <___vfprintf_internal_r+0xdb0>
 2001584:	00800244 	movi	r2,9
 2001588:	14c0202e 	bgeu	r2,r19,200160c <___vfprintf_internal_r+0xe30>
 200158c:	dc012b15 	stw	r16,1196(sp)
 2001590:	dc412c15 	stw	r17,1200(sp)
 2001594:	9821883a 	mov	r16,r19
 2001598:	e023883a 	mov	r17,fp
 200159c:	dc810e04 	addi	r18,sp,1080
 20015a0:	4027883a 	mov	r19,r8
 20015a4:	4839883a 	mov	fp,r9
 20015a8:	8009883a 	mov	r4,r16
 20015ac:	880b883a 	mov	r5,r17
 20015b0:	01800284 	movi	r6,10
 20015b4:	000f883a 	mov	r7,zero
 20015b8:	2009cb40 	call	2009cb4 <__umoddi3>
 20015bc:	10800c04 	addi	r2,r2,48
 20015c0:	94bfffc4 	addi	r18,r18,-1
 20015c4:	8009883a 	mov	r4,r16
 20015c8:	880b883a 	mov	r5,r17
 20015cc:	01800284 	movi	r6,10
 20015d0:	000f883a 	mov	r7,zero
 20015d4:	90800005 	stb	r2,0(r18)
 20015d8:	20096f40 	call	20096f4 <__udivdi3>
 20015dc:	1021883a 	mov	r16,r2
 20015e0:	10c4b03a 	or	r2,r2,r3
 20015e4:	1823883a 	mov	r17,r3
 20015e8:	103fef1e 	bne	r2,zero,20015a8 <___vfprintf_internal_r+0xdcc>
 20015ec:	dac12817 	ldw	r11,1184(sp)
 20015f0:	dc813115 	stw	r18,1220(sp)
 20015f4:	dc012b17 	ldw	r16,1196(sp)
 20015f8:	9811883a 	mov	r8,r19
 20015fc:	dc412c17 	ldw	r17,1200(sp)
 2001600:	e013883a 	mov	r9,fp
 2001604:	5ca5c83a 	sub	r18,r11,r18
 2001608:	003e0306 	br	2000e18 <___vfprintf_internal_r+0x63c>
 200160c:	9cc00c04 	addi	r19,r19,48
 2001610:	d8c10dc4 	addi	r3,sp,1079
 2001614:	dcc10dc5 	stb	r19,1079(sp)
 2001618:	dc813c17 	ldw	r18,1264(sp)
 200161c:	d8c13115 	stw	r3,1220(sp)
 2001620:	003dfd06 	br	2000e18 <___vfprintf_internal_r+0x63c>
 2001624:	00801944 	movi	r2,101
 2001628:	1400710e 	bge	r2,r16,20017f0 <___vfprintf_internal_r+0x1014>
 200162c:	d9013717 	ldw	r4,1244(sp)
 2001630:	d9413917 	ldw	r5,1252(sp)
 2001634:	000d883a 	mov	r6,zero
 2001638:	000f883a 	mov	r7,zero
 200163c:	d8c13d15 	stw	r3,1268(sp)
 2001640:	da013f15 	stw	r8,1276(sp)
 2001644:	200b4d80 	call	200b4d8 <__eqdf2>
 2001648:	d8c13d17 	ldw	r3,1268(sp)
 200164c:	da013f17 	ldw	r8,1276(sp)
 2001650:	1000ef1e 	bne	r2,zero,2001a10 <___vfprintf_internal_r+0x1234>
 2001654:	d8811f17 	ldw	r2,1148(sp)
 2001658:	01008074 	movhi	r4,513
 200165c:	213c7c04 	addi	r4,r4,-3600
 2001660:	18c00044 	addi	r3,r3,1
 2001664:	10800044 	addi	r2,r2,1
 2001668:	41000015 	stw	r4,0(r8)
 200166c:	01000044 	movi	r4,1
 2001670:	41000115 	stw	r4,4(r8)
 2001674:	d8c12015 	stw	r3,1152(sp)
 2001678:	d8811f15 	stw	r2,1148(sp)
 200167c:	010001c4 	movi	r4,7
 2001680:	20828e16 	blt	r4,r2,20020bc <___vfprintf_internal_r+0x18e0>
 2001684:	42000204 	addi	r8,r8,8
 2001688:	d8812617 	ldw	r2,1176(sp)
 200168c:	dac13317 	ldw	r11,1228(sp)
 2001690:	12c00216 	blt	r2,r11,200169c <___vfprintf_internal_r+0xec0>
 2001694:	8880004c 	andi	r2,r17,1
 2001698:	103e7726 	beq	r2,zero,2001078 <___vfprintf_internal_r+0x89c>
 200169c:	db013817 	ldw	r12,1248(sp)
 20016a0:	d8811f17 	ldw	r2,1148(sp)
 20016a4:	dac13517 	ldw	r11,1236(sp)
 20016a8:	1b07883a 	add	r3,r3,r12
 20016ac:	10800044 	addi	r2,r2,1
 20016b0:	42c00015 	stw	r11,0(r8)
 20016b4:	43000115 	stw	r12,4(r8)
 20016b8:	d8c12015 	stw	r3,1152(sp)
 20016bc:	d8811f15 	stw	r2,1148(sp)
 20016c0:	010001c4 	movi	r4,7
 20016c4:	2082ed16 	blt	r4,r2,200227c <___vfprintf_internal_r+0x1aa0>
 20016c8:	42000204 	addi	r8,r8,8
 20016cc:	db013317 	ldw	r12,1228(sp)
 20016d0:	643fffc4 	addi	r16,r12,-1
 20016d4:	043e680e 	bge	zero,r16,2001078 <___vfprintf_internal_r+0x89c>
 20016d8:	04800404 	movi	r18,16
 20016dc:	d8811f17 	ldw	r2,1148(sp)
 20016e0:	94007e0e 	bge	r18,r16,20018dc <___vfprintf_internal_r+0x1100>
 20016e4:	01408074 	movhi	r5,513
 20016e8:	297c7c84 	addi	r5,r5,-3598
 20016ec:	d9412c15 	stw	r5,1200(sp)
 20016f0:	054001c4 	movi	r21,7
 20016f4:	00000306 	br	2001704 <___vfprintf_internal_r+0xf28>
 20016f8:	42000204 	addi	r8,r8,8
 20016fc:	843ffc04 	addi	r16,r16,-16
 2001700:	9400790e 	bge	r18,r16,20018e8 <___vfprintf_internal_r+0x110c>
 2001704:	18c00404 	addi	r3,r3,16
 2001708:	10800044 	addi	r2,r2,1
 200170c:	45000015 	stw	r20,0(r8)
 2001710:	44800115 	stw	r18,4(r8)
 2001714:	d8c12015 	stw	r3,1152(sp)
 2001718:	d8811f15 	stw	r2,1148(sp)
 200171c:	a8bff60e 	bge	r21,r2,20016f8 <___vfprintf_internal_r+0xf1c>
 2001720:	b009883a 	mov	r4,r22
 2001724:	b80b883a 	mov	r5,r23
 2001728:	d9811e04 	addi	r6,sp,1144
 200172c:	2007a240 	call	2007a24 <__sprint_r>
 2001730:	103d411e 	bne	r2,zero,2000c38 <___vfprintf_internal_r+0x45c>
 2001734:	d8c12017 	ldw	r3,1152(sp)
 2001738:	d8811f17 	ldw	r2,1148(sp)
 200173c:	da000404 	addi	r8,sp,16
 2001740:	003fee06 	br	20016fc <___vfprintf_internal_r+0xf20>
 2001744:	dac12e17 	ldw	r11,1208(sp)
 2001748:	db012b17 	ldw	r12,1196(sp)
 200174c:	5b2bc83a 	sub	r21,r11,r12
 2001750:	057e130e 	bge	zero,r21,2000fa0 <___vfprintf_internal_r+0x7c4>
 2001754:	07000404 	movi	fp,16
 2001758:	d8811f17 	ldw	r2,1148(sp)
 200175c:	e543640e 	bge	fp,r21,20024f0 <___vfprintf_internal_r+0x1d14>
 2001760:	01408074 	movhi	r5,513
 2001764:	297c7c84 	addi	r5,r5,-3598
 2001768:	d9412c15 	stw	r5,1200(sp)
 200176c:	04c001c4 	movi	r19,7
 2001770:	00000306 	br	2001780 <___vfprintf_internal_r+0xfa4>
 2001774:	ad7ffc04 	addi	r21,r21,-16
 2001778:	42000204 	addi	r8,r8,8
 200177c:	e540110e 	bge	fp,r21,20017c4 <___vfprintf_internal_r+0xfe8>
 2001780:	18c00404 	addi	r3,r3,16
 2001784:	10800044 	addi	r2,r2,1
 2001788:	45000015 	stw	r20,0(r8)
 200178c:	47000115 	stw	fp,4(r8)
 2001790:	d8c12015 	stw	r3,1152(sp)
 2001794:	d8811f15 	stw	r2,1148(sp)
 2001798:	98bff60e 	bge	r19,r2,2001774 <___vfprintf_internal_r+0xf98>
 200179c:	b009883a 	mov	r4,r22
 20017a0:	b80b883a 	mov	r5,r23
 20017a4:	d9811e04 	addi	r6,sp,1144
 20017a8:	2007a240 	call	2007a24 <__sprint_r>
 20017ac:	103d221e 	bne	r2,zero,2000c38 <___vfprintf_internal_r+0x45c>
 20017b0:	ad7ffc04 	addi	r21,r21,-16
 20017b4:	d8c12017 	ldw	r3,1152(sp)
 20017b8:	d8811f17 	ldw	r2,1148(sp)
 20017bc:	da000404 	addi	r8,sp,16
 20017c0:	e57fef16 	blt	fp,r21,2001780 <___vfprintf_internal_r+0xfa4>
 20017c4:	dac12c17 	ldw	r11,1200(sp)
 20017c8:	1d47883a 	add	r3,r3,r21
 20017cc:	10800044 	addi	r2,r2,1
 20017d0:	42c00015 	stw	r11,0(r8)
 20017d4:	45400115 	stw	r21,4(r8)
 20017d8:	d8c12015 	stw	r3,1152(sp)
 20017dc:	d8811f15 	stw	r2,1148(sp)
 20017e0:	010001c4 	movi	r4,7
 20017e4:	20819116 	blt	r4,r2,2001e2c <___vfprintf_internal_r+0x1650>
 20017e8:	42000204 	addi	r8,r8,8
 20017ec:	003dec06 	br	2000fa0 <___vfprintf_internal_r+0x7c4>
 20017f0:	db013317 	ldw	r12,1228(sp)
 20017f4:	00800044 	movi	r2,1
 20017f8:	18c00044 	addi	r3,r3,1
 20017fc:	1301530e 	bge	r2,r12,2001d4c <___vfprintf_internal_r+0x1570>
 2001800:	dc011f17 	ldw	r16,1148(sp)
 2001804:	dac13117 	ldw	r11,1220(sp)
 2001808:	00800044 	movi	r2,1
 200180c:	84000044 	addi	r16,r16,1
 2001810:	40800115 	stw	r2,4(r8)
 2001814:	42c00015 	stw	r11,0(r8)
 2001818:	d8c12015 	stw	r3,1152(sp)
 200181c:	dc011f15 	stw	r16,1148(sp)
 2001820:	008001c4 	movi	r2,7
 2001824:	14016b16 	blt	r2,r16,2001dd4 <___vfprintf_internal_r+0x15f8>
 2001828:	42000204 	addi	r8,r8,8
 200182c:	db013817 	ldw	r12,1248(sp)
 2001830:	dac13517 	ldw	r11,1236(sp)
 2001834:	84000044 	addi	r16,r16,1
 2001838:	1b07883a 	add	r3,r3,r12
 200183c:	42c00015 	stw	r11,0(r8)
 2001840:	43000115 	stw	r12,4(r8)
 2001844:	d8c12015 	stw	r3,1152(sp)
 2001848:	dc011f15 	stw	r16,1148(sp)
 200184c:	008001c4 	movi	r2,7
 2001850:	14016916 	blt	r2,r16,2001df8 <___vfprintf_internal_r+0x161c>
 2001854:	44800204 	addi	r18,r8,8
 2001858:	d9013717 	ldw	r4,1244(sp)
 200185c:	d9413917 	ldw	r5,1252(sp)
 2001860:	000d883a 	mov	r6,zero
 2001864:	000f883a 	mov	r7,zero
 2001868:	d8c13d15 	stw	r3,1268(sp)
 200186c:	200b4d80 	call	200b4d8 <__eqdf2>
 2001870:	d8c13d17 	ldw	r3,1268(sp)
 2001874:	db013317 	ldw	r12,1228(sp)
 2001878:	1000ae26 	beq	r2,zero,2001b34 <___vfprintf_internal_r+0x1358>
 200187c:	dac13117 	ldw	r11,1220(sp)
 2001880:	60bfffc4 	addi	r2,r12,-1
 2001884:	1887883a 	add	r3,r3,r2
 2001888:	59000044 	addi	r4,r11,1
 200188c:	84000044 	addi	r16,r16,1
 2001890:	90800115 	stw	r2,4(r18)
 2001894:	91000015 	stw	r4,0(r18)
 2001898:	d8c12015 	stw	r3,1152(sp)
 200189c:	dc011f15 	stw	r16,1148(sp)
 20018a0:	008001c4 	movi	r2,7
 20018a4:	14014216 	blt	r2,r16,2001db0 <___vfprintf_internal_r+0x15d4>
 20018a8:	94800204 	addi	r18,r18,8
 20018ac:	dac13a17 	ldw	r11,1256(sp)
 20018b0:	dd4122c4 	addi	r21,sp,1163
 20018b4:	84000044 	addi	r16,r16,1
 20018b8:	58c7883a 	add	r3,r11,r3
 20018bc:	95400015 	stw	r21,0(r18)
 20018c0:	92c00115 	stw	r11,4(r18)
 20018c4:	d8c12015 	stw	r3,1152(sp)
 20018c8:	dc011f15 	stw	r16,1148(sp)
 20018cc:	008001c4 	movi	r2,7
 20018d0:	14000e16 	blt	r2,r16,200190c <___vfprintf_internal_r+0x1130>
 20018d4:	92000204 	addi	r8,r18,8
 20018d8:	003de706 	br	2001078 <___vfprintf_internal_r+0x89c>
 20018dc:	01008074 	movhi	r4,513
 20018e0:	213c7c84 	addi	r4,r4,-3598
 20018e4:	d9012c15 	stw	r4,1200(sp)
 20018e8:	dac12c17 	ldw	r11,1200(sp)
 20018ec:	1c07883a 	add	r3,r3,r16
 20018f0:	44000115 	stw	r16,4(r8)
 20018f4:	42c00015 	stw	r11,0(r8)
 20018f8:	10800044 	addi	r2,r2,1
 20018fc:	d8c12015 	stw	r3,1152(sp)
 2001900:	d8811f15 	stw	r2,1148(sp)
 2001904:	010001c4 	movi	r4,7
 2001908:	20bdda0e 	bge	r4,r2,2001074 <___vfprintf_internal_r+0x898>
 200190c:	b009883a 	mov	r4,r22
 2001910:	b80b883a 	mov	r5,r23
 2001914:	d9811e04 	addi	r6,sp,1144
 2001918:	2007a240 	call	2007a24 <__sprint_r>
 200191c:	103cc61e 	bne	r2,zero,2000c38 <___vfprintf_internal_r+0x45c>
 2001920:	d8c12017 	ldw	r3,1152(sp)
 2001924:	da000404 	addi	r8,sp,16
 2001928:	003dd306 	br	2001078 <___vfprintf_internal_r+0x89c>
 200192c:	b009883a 	mov	r4,r22
 2001930:	b80b883a 	mov	r5,r23
 2001934:	d9811e04 	addi	r6,sp,1144
 2001938:	2007a240 	call	2007a24 <__sprint_r>
 200193c:	103e0926 	beq	r2,zero,2001164 <___vfprintf_internal_r+0x988>
 2001940:	003cbd06 	br	2000c38 <___vfprintf_internal_r+0x45c>
 2001944:	10803fcc 	andi	r2,r2,255
 2001948:	1000651e 	bne	r2,zero,2001ae0 <___vfprintf_internal_r+0x1304>
 200194c:	8880004c 	andi	r2,r17,1
 2001950:	10013226 	beq	r2,zero,2001e1c <___vfprintf_internal_r+0x1640>
 2001954:	00800c04 	movi	r2,48
 2001958:	d8c10dc4 	addi	r3,sp,1079
 200195c:	d8810dc5 	stb	r2,1079(sp)
 2001960:	dc813c17 	ldw	r18,1264(sp)
 2001964:	d8c13115 	stw	r3,1220(sp)
 2001968:	003d2b06 	br	2000e18 <___vfprintf_internal_r+0x63c>
 200196c:	b009883a 	mov	r4,r22
 2001970:	b80b883a 	mov	r5,r23
 2001974:	d9811e04 	addi	r6,sp,1144
 2001978:	2007a240 	call	2007a24 <__sprint_r>
 200197c:	103cae1e 	bne	r2,zero,2000c38 <___vfprintf_internal_r+0x45c>
 2001980:	d8c12017 	ldw	r3,1152(sp)
 2001984:	da000404 	addi	r8,sp,16
 2001988:	003dae06 	br	2001044 <___vfprintf_internal_r+0x868>
 200198c:	b009883a 	mov	r4,r22
 2001990:	b80b883a 	mov	r5,r23
 2001994:	d9811e04 	addi	r6,sp,1144
 2001998:	2007a240 	call	2007a24 <__sprint_r>
 200199c:	103ca61e 	bne	r2,zero,2000c38 <___vfprintf_internal_r+0x45c>
 20019a0:	d8c12017 	ldw	r3,1152(sp)
 20019a4:	da000404 	addi	r8,sp,16
 20019a8:	003d6c06 	br	2000f5c <___vfprintf_internal_r+0x780>
 20019ac:	b009883a 	mov	r4,r22
 20019b0:	b80b883a 	mov	r5,r23
 20019b4:	d9811e04 	addi	r6,sp,1144
 20019b8:	2007a240 	call	2007a24 <__sprint_r>
 20019bc:	103c9e1e 	bne	r2,zero,2000c38 <___vfprintf_internal_r+0x45c>
 20019c0:	d8c12017 	ldw	r3,1152(sp)
 20019c4:	da000404 	addi	r8,sp,16
 20019c8:	003d7206 	br	2000f94 <___vfprintf_internal_r+0x7b8>
 20019cc:	d9413b17 	ldw	r5,1260(sp)
 20019d0:	d8c10e04 	addi	r3,sp,1080
 20019d4:	988003cc 	andi	r2,r19,15
 20019d8:	e008973a 	slli	r4,fp,28
 20019dc:	2885883a 	add	r2,r5,r2
 20019e0:	9826d13a 	srli	r19,r19,4
 20019e4:	10800003 	ldbu	r2,0(r2)
 20019e8:	e038d13a 	srli	fp,fp,4
 20019ec:	18ffffc4 	addi	r3,r3,-1
 20019f0:	24e6b03a 	or	r19,r4,r19
 20019f4:	18800005 	stb	r2,0(r3)
 20019f8:	9f04b03a 	or	r2,r19,fp
 20019fc:	103ff51e 	bne	r2,zero,20019d4 <___vfprintf_internal_r+0x11f8>
 2001a00:	db012817 	ldw	r12,1184(sp)
 2001a04:	d8c13115 	stw	r3,1220(sp)
 2001a08:	60e5c83a 	sub	r18,r12,r3
 2001a0c:	003d0206 	br	2000e18 <___vfprintf_internal_r+0x63c>
 2001a10:	dc012617 	ldw	r16,1176(sp)
 2001a14:	0401b10e 	bge	zero,r16,20020dc <___vfprintf_internal_r+0x1900>
 2001a18:	db013117 	ldw	r12,1220(sp)
 2001a1c:	dac13317 	ldw	r11,1228(sp)
 2001a20:	62e1883a 	add	r16,r12,r11
 2001a24:	db013417 	ldw	r12,1232(sp)
 2001a28:	5825883a 	mov	r18,r11
 2001a2c:	62c0010e 	bge	r12,r11,2001a34 <___vfprintf_internal_r+0x1258>
 2001a30:	6025883a 	mov	r18,r12
 2001a34:	04800b0e 	bge	zero,r18,2001a64 <___vfprintf_internal_r+0x1288>
 2001a38:	d8811f17 	ldw	r2,1148(sp)
 2001a3c:	dac13117 	ldw	r11,1220(sp)
 2001a40:	1c87883a 	add	r3,r3,r18
 2001a44:	10800044 	addi	r2,r2,1
 2001a48:	42c00015 	stw	r11,0(r8)
 2001a4c:	44800115 	stw	r18,4(r8)
 2001a50:	d8c12015 	stw	r3,1152(sp)
 2001a54:	d8811f15 	stw	r2,1148(sp)
 2001a58:	010001c4 	movi	r4,7
 2001a5c:	20824f16 	blt	r4,r2,200239c <___vfprintf_internal_r+0x1bc0>
 2001a60:	42000204 	addi	r8,r8,8
 2001a64:	90024b16 	blt	r18,zero,2002394 <___vfprintf_internal_r+0x1bb8>
 2001a68:	db013417 	ldw	r12,1232(sp)
 2001a6c:	64a5c83a 	sub	r18,r12,r18
 2001a70:	0480730e 	bge	zero,r18,2001c40 <___vfprintf_internal_r+0x1464>
 2001a74:	05400404 	movi	r21,16
 2001a78:	d8811f17 	ldw	r2,1148(sp)
 2001a7c:	ac817d0e 	bge	r21,r18,2002074 <___vfprintf_internal_r+0x1898>
 2001a80:	01408074 	movhi	r5,513
 2001a84:	297c7c84 	addi	r5,r5,-3598
 2001a88:	d9412c15 	stw	r5,1200(sp)
 2001a8c:	070001c4 	movi	fp,7
 2001a90:	00000306 	br	2001aa0 <___vfprintf_internal_r+0x12c4>
 2001a94:	42000204 	addi	r8,r8,8
 2001a98:	94bffc04 	addi	r18,r18,-16
 2001a9c:	ac81780e 	bge	r21,r18,2002080 <___vfprintf_internal_r+0x18a4>
 2001aa0:	18c00404 	addi	r3,r3,16
 2001aa4:	10800044 	addi	r2,r2,1
 2001aa8:	45000015 	stw	r20,0(r8)
 2001aac:	45400115 	stw	r21,4(r8)
 2001ab0:	d8c12015 	stw	r3,1152(sp)
 2001ab4:	d8811f15 	stw	r2,1148(sp)
 2001ab8:	e0bff60e 	bge	fp,r2,2001a94 <___vfprintf_internal_r+0x12b8>
 2001abc:	b009883a 	mov	r4,r22
 2001ac0:	b80b883a 	mov	r5,r23
 2001ac4:	d9811e04 	addi	r6,sp,1144
 2001ac8:	2007a240 	call	2007a24 <__sprint_r>
 2001acc:	103c5a1e 	bne	r2,zero,2000c38 <___vfprintf_internal_r+0x45c>
 2001ad0:	d8c12017 	ldw	r3,1152(sp)
 2001ad4:	d8811f17 	ldw	r2,1148(sp)
 2001ad8:	da000404 	addi	r8,sp,16
 2001adc:	003fee06 	br	2001a98 <___vfprintf_internal_r+0x12bc>
 2001ae0:	dac10e04 	addi	r11,sp,1080
 2001ae4:	0025883a 	mov	r18,zero
 2001ae8:	dac13115 	stw	r11,1220(sp)
 2001aec:	003cca06 	br	2000e18 <___vfprintf_internal_r+0x63c>
 2001af0:	b009883a 	mov	r4,r22
 2001af4:	b80b883a 	mov	r5,r23
 2001af8:	d9811e04 	addi	r6,sp,1144
 2001afc:	2007a240 	call	2007a24 <__sprint_r>
 2001b00:	103c4d1e 	bne	r2,zero,2000c38 <___vfprintf_internal_r+0x45c>
 2001b04:	d8c12017 	ldw	r3,1152(sp)
 2001b08:	d8812787 	ldb	r2,1182(sp)
 2001b0c:	da000404 	addi	r8,sp,16
 2001b10:	003d0506 	br	2000f28 <___vfprintf_internal_r+0x74c>
 2001b14:	dac12d17 	ldw	r11,1204(sp)
 2001b18:	14c00017 	ldw	r19,0(r2)
 2001b1c:	0039883a 	mov	fp,zero
 2001b20:	5ac00104 	addi	r11,r11,4
 2001b24:	dac12d15 	stw	r11,1204(sp)
 2001b28:	0005883a 	mov	r2,zero
 2001b2c:	9807883a 	mov	r3,r19
 2001b30:	003c9c06 	br	2000da4 <___vfprintf_internal_r+0x5c8>
 2001b34:	657fffc4 	addi	r21,r12,-1
 2001b38:	057f5c0e 	bge	zero,r21,20018ac <___vfprintf_internal_r+0x10d0>
 2001b3c:	07000404 	movi	fp,16
 2001b40:	e5408f0e 	bge	fp,r21,2001d80 <___vfprintf_internal_r+0x15a4>
 2001b44:	01008074 	movhi	r4,513
 2001b48:	213c7c84 	addi	r4,r4,-3598
 2001b4c:	d9012c15 	stw	r4,1200(sp)
 2001b50:	01c001c4 	movi	r7,7
 2001b54:	00000306 	br	2001b64 <___vfprintf_internal_r+0x1388>
 2001b58:	94800204 	addi	r18,r18,8
 2001b5c:	ad7ffc04 	addi	r21,r21,-16
 2001b60:	e5408a0e 	bge	fp,r21,2001d8c <___vfprintf_internal_r+0x15b0>
 2001b64:	18c00404 	addi	r3,r3,16
 2001b68:	84000044 	addi	r16,r16,1
 2001b6c:	95000015 	stw	r20,0(r18)
 2001b70:	97000115 	stw	fp,4(r18)
 2001b74:	d8c12015 	stw	r3,1152(sp)
 2001b78:	dc011f15 	stw	r16,1148(sp)
 2001b7c:	3c3ff60e 	bge	r7,r16,2001b58 <___vfprintf_internal_r+0x137c>
 2001b80:	b009883a 	mov	r4,r22
 2001b84:	b80b883a 	mov	r5,r23
 2001b88:	d9811e04 	addi	r6,sp,1144
 2001b8c:	d9c13d15 	stw	r7,1268(sp)
 2001b90:	2007a240 	call	2007a24 <__sprint_r>
 2001b94:	d9c13d17 	ldw	r7,1268(sp)
 2001b98:	103c271e 	bne	r2,zero,2000c38 <___vfprintf_internal_r+0x45c>
 2001b9c:	d8c12017 	ldw	r3,1152(sp)
 2001ba0:	dc011f17 	ldw	r16,1148(sp)
 2001ba4:	dc800404 	addi	r18,sp,16
 2001ba8:	003fec06 	br	2001b5c <___vfprintf_internal_r+0x1380>
 2001bac:	1cc00017 	ldw	r19,0(r3)
 2001bb0:	dac12d17 	ldw	r11,1204(sp)
 2001bb4:	9839d7fa 	srai	fp,r19,31
 2001bb8:	5ac00104 	addi	r11,r11,4
 2001bbc:	dac12d15 	stw	r11,1204(sp)
 2001bc0:	e005883a 	mov	r2,fp
 2001bc4:	003d9006 	br	2001208 <___vfprintf_internal_r+0xa2c>
 2001bc8:	00800084 	movi	r2,2
 2001bcc:	9f06b03a 	or	r3,r19,fp
 2001bd0:	003c7406 	br	2000da4 <___vfprintf_internal_r+0x5c8>
 2001bd4:	db012d17 	ldw	r12,1204(sp)
 2001bd8:	14c00017 	ldw	r19,0(r2)
 2001bdc:	0039883a 	mov	fp,zero
 2001be0:	63000104 	addi	r12,r12,4
 2001be4:	db012d15 	stw	r12,1204(sp)
 2001be8:	00800044 	movi	r2,1
 2001bec:	9807883a 	mov	r3,r19
 2001bf0:	003c6c06 	br	2000da4 <___vfprintf_internal_r+0x5c8>
 2001bf4:	10803fcc 	andi	r2,r2,255
 2001bf8:	1080201c 	xori	r2,r2,128
 2001bfc:	10bfe004 	addi	r2,r2,-128
 2001c00:	01000c04 	movi	r4,48
 2001c04:	1101a526 	beq	r2,r4,200229c <___vfprintf_internal_r+0x1ac0>
 2001c08:	dac13117 	ldw	r11,1220(sp)
 2001c0c:	db012817 	ldw	r12,1184(sp)
 2001c10:	193fffc5 	stb	r4,-1(r3)
 2001c14:	5affffc4 	addi	r11,r11,-1
 2001c18:	dac13115 	stw	r11,1220(sp)
 2001c1c:	62e5c83a 	sub	r18,r12,r11
 2001c20:	003c7d06 	br	2000e18 <___vfprintf_internal_r+0x63c>
 2001c24:	b009883a 	mov	r4,r22
 2001c28:	b80b883a 	mov	r5,r23
 2001c2c:	d9811e04 	addi	r6,sp,1144
 2001c30:	2007a240 	call	2007a24 <__sprint_r>
 2001c34:	103c001e 	bne	r2,zero,2000c38 <___vfprintf_internal_r+0x45c>
 2001c38:	d8c12017 	ldw	r3,1152(sp)
 2001c3c:	da000404 	addi	r8,sp,16
 2001c40:	db013117 	ldw	r12,1220(sp)
 2001c44:	dac13417 	ldw	r11,1232(sp)
 2001c48:	d8812617 	ldw	r2,1176(sp)
 2001c4c:	62e5883a 	add	r18,r12,r11
 2001c50:	db013317 	ldw	r12,1228(sp)
 2001c54:	13000216 	blt	r2,r12,2001c60 <___vfprintf_internal_r+0x1484>
 2001c58:	8900004c 	andi	r4,r17,1
 2001c5c:	20000c26 	beq	r4,zero,2001c90 <___vfprintf_internal_r+0x14b4>
 2001c60:	dac13817 	ldw	r11,1248(sp)
 2001c64:	d9011f17 	ldw	r4,1148(sp)
 2001c68:	db013517 	ldw	r12,1236(sp)
 2001c6c:	1ac7883a 	add	r3,r3,r11
 2001c70:	21000044 	addi	r4,r4,1
 2001c74:	43000015 	stw	r12,0(r8)
 2001c78:	42c00115 	stw	r11,4(r8)
 2001c7c:	d8c12015 	stw	r3,1152(sp)
 2001c80:	d9011f15 	stw	r4,1148(sp)
 2001c84:	014001c4 	movi	r5,7
 2001c88:	2901cc16 	blt	r5,r4,20023bc <___vfprintf_internal_r+0x1be0>
 2001c8c:	42000204 	addi	r8,r8,8
 2001c90:	dac13317 	ldw	r11,1228(sp)
 2001c94:	8489c83a 	sub	r4,r16,r18
 2001c98:	5885c83a 	sub	r2,r11,r2
 2001c9c:	1021883a 	mov	r16,r2
 2001ca0:	2080010e 	bge	r4,r2,2001ca8 <___vfprintf_internal_r+0x14cc>
 2001ca4:	2021883a 	mov	r16,r4
 2001ca8:	04000a0e 	bge	zero,r16,2001cd4 <___vfprintf_internal_r+0x14f8>
 2001cac:	d9011f17 	ldw	r4,1148(sp)
 2001cb0:	1c07883a 	add	r3,r3,r16
 2001cb4:	44800015 	stw	r18,0(r8)
 2001cb8:	21000044 	addi	r4,r4,1
 2001cbc:	44000115 	stw	r16,4(r8)
 2001cc0:	d8c12015 	stw	r3,1152(sp)
 2001cc4:	d9011f15 	stw	r4,1148(sp)
 2001cc8:	014001c4 	movi	r5,7
 2001ccc:	2901d616 	blt	r5,r4,2002428 <___vfprintf_internal_r+0x1c4c>
 2001cd0:	42000204 	addi	r8,r8,8
 2001cd4:	8001df16 	blt	r16,zero,2002454 <___vfprintf_internal_r+0x1c78>
 2001cd8:	1421c83a 	sub	r16,r2,r16
 2001cdc:	043ce60e 	bge	zero,r16,2001078 <___vfprintf_internal_r+0x89c>
 2001ce0:	04800404 	movi	r18,16
 2001ce4:	d8811f17 	ldw	r2,1148(sp)
 2001ce8:	943efc0e 	bge	r18,r16,20018dc <___vfprintf_internal_r+0x1100>
 2001cec:	01408074 	movhi	r5,513
 2001cf0:	297c7c84 	addi	r5,r5,-3598
 2001cf4:	d9412c15 	stw	r5,1200(sp)
 2001cf8:	054001c4 	movi	r21,7
 2001cfc:	00000306 	br	2001d0c <___vfprintf_internal_r+0x1530>
 2001d00:	42000204 	addi	r8,r8,8
 2001d04:	843ffc04 	addi	r16,r16,-16
 2001d08:	943ef70e 	bge	r18,r16,20018e8 <___vfprintf_internal_r+0x110c>
 2001d0c:	18c00404 	addi	r3,r3,16
 2001d10:	10800044 	addi	r2,r2,1
 2001d14:	45000015 	stw	r20,0(r8)
 2001d18:	44800115 	stw	r18,4(r8)
 2001d1c:	d8c12015 	stw	r3,1152(sp)
 2001d20:	d8811f15 	stw	r2,1148(sp)
 2001d24:	a8bff60e 	bge	r21,r2,2001d00 <___vfprintf_internal_r+0x1524>
 2001d28:	b009883a 	mov	r4,r22
 2001d2c:	b80b883a 	mov	r5,r23
 2001d30:	d9811e04 	addi	r6,sp,1144
 2001d34:	2007a240 	call	2007a24 <__sprint_r>
 2001d38:	103bbf1e 	bne	r2,zero,2000c38 <___vfprintf_internal_r+0x45c>
 2001d3c:	d8c12017 	ldw	r3,1152(sp)
 2001d40:	d8811f17 	ldw	r2,1148(sp)
 2001d44:	da000404 	addi	r8,sp,16
 2001d48:	003fee06 	br	2001d04 <___vfprintf_internal_r+0x1528>
 2001d4c:	8888703a 	and	r4,r17,r2
 2001d50:	203eab1e 	bne	r4,zero,2001800 <___vfprintf_internal_r+0x1024>
 2001d54:	dc011f17 	ldw	r16,1148(sp)
 2001d58:	db013117 	ldw	r12,1220(sp)
 2001d5c:	40800115 	stw	r2,4(r8)
 2001d60:	84000044 	addi	r16,r16,1
 2001d64:	43000015 	stw	r12,0(r8)
 2001d68:	d8c12015 	stw	r3,1152(sp)
 2001d6c:	dc011f15 	stw	r16,1148(sp)
 2001d70:	008001c4 	movi	r2,7
 2001d74:	14000e16 	blt	r2,r16,2001db0 <___vfprintf_internal_r+0x15d4>
 2001d78:	44800204 	addi	r18,r8,8
 2001d7c:	003ecb06 	br	20018ac <___vfprintf_internal_r+0x10d0>
 2001d80:	00808074 	movhi	r2,513
 2001d84:	10bc7c84 	addi	r2,r2,-3598
 2001d88:	d8812c15 	stw	r2,1200(sp)
 2001d8c:	dac12c17 	ldw	r11,1200(sp)
 2001d90:	1d47883a 	add	r3,r3,r21
 2001d94:	84000044 	addi	r16,r16,1
 2001d98:	92c00015 	stw	r11,0(r18)
 2001d9c:	95400115 	stw	r21,4(r18)
 2001da0:	d8c12015 	stw	r3,1152(sp)
 2001da4:	dc011f15 	stw	r16,1148(sp)
 2001da8:	008001c4 	movi	r2,7
 2001dac:	143ebe0e 	bge	r2,r16,20018a8 <___vfprintf_internal_r+0x10cc>
 2001db0:	b009883a 	mov	r4,r22
 2001db4:	b80b883a 	mov	r5,r23
 2001db8:	d9811e04 	addi	r6,sp,1144
 2001dbc:	2007a240 	call	2007a24 <__sprint_r>
 2001dc0:	103b9d1e 	bne	r2,zero,2000c38 <___vfprintf_internal_r+0x45c>
 2001dc4:	d8c12017 	ldw	r3,1152(sp)
 2001dc8:	dc011f17 	ldw	r16,1148(sp)
 2001dcc:	dc800404 	addi	r18,sp,16
 2001dd0:	003eb606 	br	20018ac <___vfprintf_internal_r+0x10d0>
 2001dd4:	b009883a 	mov	r4,r22
 2001dd8:	b80b883a 	mov	r5,r23
 2001ddc:	d9811e04 	addi	r6,sp,1144
 2001de0:	2007a240 	call	2007a24 <__sprint_r>
 2001de4:	103b941e 	bne	r2,zero,2000c38 <___vfprintf_internal_r+0x45c>
 2001de8:	d8c12017 	ldw	r3,1152(sp)
 2001dec:	dc011f17 	ldw	r16,1148(sp)
 2001df0:	da000404 	addi	r8,sp,16
 2001df4:	003e8d06 	br	200182c <___vfprintf_internal_r+0x1050>
 2001df8:	b009883a 	mov	r4,r22
 2001dfc:	b80b883a 	mov	r5,r23
 2001e00:	d9811e04 	addi	r6,sp,1144
 2001e04:	2007a240 	call	2007a24 <__sprint_r>
 2001e08:	103b8b1e 	bne	r2,zero,2000c38 <___vfprintf_internal_r+0x45c>
 2001e0c:	d8c12017 	ldw	r3,1152(sp)
 2001e10:	dc011f17 	ldw	r16,1148(sp)
 2001e14:	dc800404 	addi	r18,sp,16
 2001e18:	003e8f06 	br	2001858 <___vfprintf_internal_r+0x107c>
 2001e1c:	db010e04 	addi	r12,sp,1080
 2001e20:	0025883a 	mov	r18,zero
 2001e24:	db013115 	stw	r12,1220(sp)
 2001e28:	003bfb06 	br	2000e18 <___vfprintf_internal_r+0x63c>
 2001e2c:	b009883a 	mov	r4,r22
 2001e30:	b80b883a 	mov	r5,r23
 2001e34:	d9811e04 	addi	r6,sp,1144
 2001e38:	2007a240 	call	2007a24 <__sprint_r>
 2001e3c:	103b7e1e 	bne	r2,zero,2000c38 <___vfprintf_internal_r+0x45c>
 2001e40:	d8c12017 	ldw	r3,1152(sp)
 2001e44:	da000404 	addi	r8,sp,16
 2001e48:	003c5506 	br	2000fa0 <___vfprintf_internal_r+0x7c4>
 2001e4c:	04e7c83a 	sub	r19,zero,r19
 2001e50:	9804c03a 	cmpne	r2,r19,zero
 2001e54:	0739c83a 	sub	fp,zero,fp
 2001e58:	e0b9c83a 	sub	fp,fp,r2
 2001e5c:	05400b44 	movi	r21,45
 2001e60:	dd412785 	stb	r21,1182(sp)
 2001e64:	da413215 	stw	r9,1224(sp)
 2001e68:	00800044 	movi	r2,1
 2001e6c:	9f06b03a 	or	r3,r19,fp
 2001e70:	003bcf06 	br	2000db0 <___vfprintf_internal_r+0x5d4>
 2001e74:	da013f15 	stw	r8,1276(sp)
 2001e78:	da413e15 	stw	r9,1272(sp)
 2001e7c:	20076800 	call	2007680 <__fpclassifyd>
 2001e80:	da013f17 	ldw	r8,1276(sp)
 2001e84:	da413e17 	ldw	r9,1272(sp)
 2001e88:	1000ce26 	beq	r2,zero,20021c4 <___vfprintf_internal_r+0x19e8>
 2001e8c:	057ff7c4 	movi	r21,-33
 2001e90:	00bfffc4 	movi	r2,-1
 2001e94:	856a703a 	and	r21,r16,r21
 2001e98:	4881f026 	beq	r9,r2,200265c <___vfprintf_internal_r+0x1e80>
 2001e9c:	008011c4 	movi	r2,71
 2001ea0:	a881e526 	beq	r21,r2,2002638 <___vfprintf_internal_r+0x1e5c>
 2001ea4:	db013917 	ldw	r12,1252(sp)
 2001ea8:	8ac04014 	ori	r11,r17,256
 2001eac:	dac12d15 	stw	r11,1204(sp)
 2001eb0:	6001e416 	blt	r12,zero,2002644 <___vfprintf_internal_r+0x1e68>
 2001eb4:	dc813917 	ldw	r18,1252(sp)
 2001eb8:	d8012b05 	stb	zero,1196(sp)
 2001ebc:	00801984 	movi	r2,102
 2001ec0:	80811826 	beq	r16,r2,2002324 <___vfprintf_internal_r+0x1b48>
 2001ec4:	00801184 	movi	r2,70
 2001ec8:	80811626 	beq	r16,r2,2002324 <___vfprintf_internal_r+0x1b48>
 2001ecc:	00801144 	movi	r2,69
 2001ed0:	a881e026 	beq	r21,r2,2002654 <___vfprintf_internal_r+0x1e78>
 2001ed4:	4839883a 	mov	fp,r9
 2001ed8:	d8812604 	addi	r2,sp,1176
 2001edc:	d8800115 	stw	r2,4(sp)
 2001ee0:	d9413717 	ldw	r5,1244(sp)
 2001ee4:	d8812504 	addi	r2,sp,1172
 2001ee8:	d8800215 	stw	r2,8(sp)
 2001eec:	d8812104 	addi	r2,sp,1156
 2001ef0:	df000015 	stw	fp,0(sp)
 2001ef4:	d8800315 	stw	r2,12(sp)
 2001ef8:	b009883a 	mov	r4,r22
 2001efc:	900d883a 	mov	r6,r18
 2001f00:	01c00084 	movi	r7,2
 2001f04:	da013f15 	stw	r8,1276(sp)
 2001f08:	da413e15 	stw	r9,1272(sp)
 2001f0c:	2002b2c0 	call	2002b2c <_dtoa_r>
 2001f10:	d8813115 	stw	r2,1220(sp)
 2001f14:	008019c4 	movi	r2,103
 2001f18:	da013f17 	ldw	r8,1276(sp)
 2001f1c:	da413e17 	ldw	r9,1272(sp)
 2001f20:	80800226 	beq	r16,r2,2001f2c <___vfprintf_internal_r+0x1750>
 2001f24:	008011c4 	movi	r2,71
 2001f28:	8081101e 	bne	r16,r2,200236c <___vfprintf_internal_r+0x1b90>
 2001f2c:	8880004c 	andi	r2,r17,1
 2001f30:	1001df26 	beq	r2,zero,20026b0 <___vfprintf_internal_r+0x1ed4>
 2001f34:	db013117 	ldw	r12,1220(sp)
 2001f38:	6715883a 	add	r10,r12,fp
 2001f3c:	d9013717 	ldw	r4,1244(sp)
 2001f40:	900b883a 	mov	r5,r18
 2001f44:	000d883a 	mov	r6,zero
 2001f48:	000f883a 	mov	r7,zero
 2001f4c:	da013f15 	stw	r8,1276(sp)
 2001f50:	da413e15 	stw	r9,1272(sp)
 2001f54:	da813d15 	stw	r10,1268(sp)
 2001f58:	200b4d80 	call	200b4d8 <__eqdf2>
 2001f5c:	da013f17 	ldw	r8,1276(sp)
 2001f60:	da413e17 	ldw	r9,1272(sp)
 2001f64:	da813d17 	ldw	r10,1268(sp)
 2001f68:	10016526 	beq	r2,zero,2002500 <___vfprintf_internal_r+0x1d24>
 2001f6c:	d8812117 	ldw	r2,1156(sp)
 2001f70:	1280062e 	bgeu	r2,r10,2001f8c <___vfprintf_internal_r+0x17b0>
 2001f74:	01000c04 	movi	r4,48
 2001f78:	10c00044 	addi	r3,r2,1
 2001f7c:	d8c12115 	stw	r3,1156(sp)
 2001f80:	11000005 	stb	r4,0(r2)
 2001f84:	d8812117 	ldw	r2,1156(sp)
 2001f88:	12bffb36 	bltu	r2,r10,2001f78 <___vfprintf_internal_r+0x179c>
 2001f8c:	db013117 	ldw	r12,1220(sp)
 2001f90:	1305c83a 	sub	r2,r2,r12
 2001f94:	d8813315 	stw	r2,1228(sp)
 2001f98:	008011c4 	movi	r2,71
 2001f9c:	a8814a26 	beq	r21,r2,20024c8 <___vfprintf_internal_r+0x1cec>
 2001fa0:	00801944 	movi	r2,101
 2001fa4:	14020a0e 	bge	r2,r16,20027d0 <___vfprintf_internal_r+0x1ff4>
 2001fa8:	00801984 	movi	r2,102
 2001fac:	8081b626 	beq	r16,r2,2002688 <___vfprintf_internal_r+0x1eac>
 2001fb0:	db012617 	ldw	r12,1176(sp)
 2001fb4:	db013415 	stw	r12,1232(sp)
 2001fb8:	db013417 	ldw	r12,1232(sp)
 2001fbc:	dac13317 	ldw	r11,1228(sp)
 2001fc0:	62c1a816 	blt	r12,r11,2002664 <___vfprintf_internal_r+0x1e88>
 2001fc4:	8c40004c 	andi	r17,r17,1
 2001fc8:	8801ca1e 	bne	r17,zero,20026f4 <___vfprintf_internal_r+0x1f18>
 2001fcc:	6005883a 	mov	r2,r12
 2001fd0:	6001b516 	blt	r12,zero,20026a8 <___vfprintf_internal_r+0x1ecc>
 2001fd4:	dc813417 	ldw	r18,1232(sp)
 2001fd8:	df012b07 	ldb	fp,1196(sp)
 2001fdc:	e001321e 	bne	fp,zero,20024a8 <___vfprintf_internal_r+0x1ccc>
 2001fe0:	dc412d17 	ldw	r17,1204(sp)
 2001fe4:	dd412783 	ldbu	r21,1182(sp)
 2001fe8:	d8812b15 	stw	r2,1196(sp)
 2001fec:	dcc12d15 	stw	r19,1204(sp)
 2001ff0:	d8013215 	stw	zero,1224(sp)
 2001ff4:	003b8d06 	br	2000e2c <___vfprintf_internal_r+0x650>
 2001ff8:	88c0100c 	andi	r3,r17,64
 2001ffc:	18008226 	beq	r3,zero,2002208 <___vfprintf_internal_r+0x1a2c>
 2002000:	dac12d17 	ldw	r11,1204(sp)
 2002004:	14c0000b 	ldhu	r19,0(r2)
 2002008:	0039883a 	mov	fp,zero
 200200c:	5ac00104 	addi	r11,r11,4
 2002010:	dac12d15 	stw	r11,1204(sp)
 2002014:	003c8f06 	br	2001254 <___vfprintf_internal_r+0xa78>
 2002018:	1c000007 	ldb	r16,0(r3)
 200201c:	1805883a 	mov	r2,r3
 2002020:	003a5506 	br	2000978 <___vfprintf_internal_r+0x19c>
 2002024:	00800084 	movi	r2,2
 2002028:	003b5e06 	br	2000da4 <___vfprintf_internal_r+0x5c8>
 200202c:	8880040c 	andi	r2,r17,16
 2002030:	1000091e 	bne	r2,zero,2002058 <___vfprintf_internal_r+0x187c>
 2002034:	8c40100c 	andi	r17,r17,64
 2002038:	88000726 	beq	r17,zero,2002058 <___vfprintf_internal_r+0x187c>
 200203c:	db012d17 	ldw	r12,1204(sp)
 2002040:	dac12f17 	ldw	r11,1212(sp)
 2002044:	60800017 	ldw	r2,0(r12)
 2002048:	63000104 	addi	r12,r12,4
 200204c:	db012d15 	stw	r12,1204(sp)
 2002050:	12c0000d 	sth	r11,0(r2)
 2002054:	003a1e06 	br	20008d0 <___vfprintf_internal_r+0xf4>
 2002058:	db012d17 	ldw	r12,1204(sp)
 200205c:	dac12f17 	ldw	r11,1212(sp)
 2002060:	60800017 	ldw	r2,0(r12)
 2002064:	63000104 	addi	r12,r12,4
 2002068:	db012d15 	stw	r12,1204(sp)
 200206c:	12c00015 	stw	r11,0(r2)
 2002070:	003a1706 	br	20008d0 <___vfprintf_internal_r+0xf4>
 2002074:	01008074 	movhi	r4,513
 2002078:	213c7c84 	addi	r4,r4,-3598
 200207c:	d9012c15 	stw	r4,1200(sp)
 2002080:	dac12c17 	ldw	r11,1200(sp)
 2002084:	1c87883a 	add	r3,r3,r18
 2002088:	10800044 	addi	r2,r2,1
 200208c:	42c00015 	stw	r11,0(r8)
 2002090:	44800115 	stw	r18,4(r8)
 2002094:	d8c12015 	stw	r3,1152(sp)
 2002098:	d8811f15 	stw	r2,1148(sp)
 200209c:	010001c4 	movi	r4,7
 20020a0:	20bee016 	blt	r4,r2,2001c24 <___vfprintf_internal_r+0x1448>
 20020a4:	42000204 	addi	r8,r8,8
 20020a8:	003ee506 	br	2001c40 <___vfprintf_internal_r+0x1464>
 20020ac:	01008074 	movhi	r4,513
 20020b0:	213c7c84 	addi	r4,r4,-3598
 20020b4:	d9012c15 	stw	r4,1200(sp)
 20020b8:	003bd806 	br	200101c <___vfprintf_internal_r+0x840>
 20020bc:	b009883a 	mov	r4,r22
 20020c0:	b80b883a 	mov	r5,r23
 20020c4:	d9811e04 	addi	r6,sp,1144
 20020c8:	2007a240 	call	2007a24 <__sprint_r>
 20020cc:	103ada1e 	bne	r2,zero,2000c38 <___vfprintf_internal_r+0x45c>
 20020d0:	d8c12017 	ldw	r3,1152(sp)
 20020d4:	da000404 	addi	r8,sp,16
 20020d8:	003d6b06 	br	2001688 <___vfprintf_internal_r+0xeac>
 20020dc:	d8811f17 	ldw	r2,1148(sp)
 20020e0:	03008074 	movhi	r12,513
 20020e4:	01000044 	movi	r4,1
 20020e8:	18c00044 	addi	r3,r3,1
 20020ec:	10800044 	addi	r2,r2,1
 20020f0:	633c7c04 	addi	r12,r12,-3600
 20020f4:	41000115 	stw	r4,4(r8)
 20020f8:	43000015 	stw	r12,0(r8)
 20020fc:	d8c12015 	stw	r3,1152(sp)
 2002100:	d8811f15 	stw	r2,1148(sp)
 2002104:	010001c4 	movi	r4,7
 2002108:	20804916 	blt	r4,r2,2002230 <___vfprintf_internal_r+0x1a54>
 200210c:	42000204 	addi	r8,r8,8
 2002110:	8000041e 	bne	r16,zero,2002124 <___vfprintf_internal_r+0x1948>
 2002114:	dac13317 	ldw	r11,1228(sp)
 2002118:	5800021e 	bne	r11,zero,2002124 <___vfprintf_internal_r+0x1948>
 200211c:	8880004c 	andi	r2,r17,1
 2002120:	103bd526 	beq	r2,zero,2001078 <___vfprintf_internal_r+0x89c>
 2002124:	db013817 	ldw	r12,1248(sp)
 2002128:	d8811f17 	ldw	r2,1148(sp)
 200212c:	dac13517 	ldw	r11,1236(sp)
 2002130:	1b07883a 	add	r3,r3,r12
 2002134:	10800044 	addi	r2,r2,1
 2002138:	42c00015 	stw	r11,0(r8)
 200213c:	43000115 	stw	r12,4(r8)
 2002140:	d8c12015 	stw	r3,1152(sp)
 2002144:	d8811f15 	stw	r2,1148(sp)
 2002148:	010001c4 	movi	r4,7
 200214c:	20813016 	blt	r4,r2,2002610 <___vfprintf_internal_r+0x1e34>
 2002150:	42000204 	addi	r8,r8,8
 2002154:	0421c83a 	sub	r16,zero,r16
 2002158:	0400630e 	bge	zero,r16,20022e8 <___vfprintf_internal_r+0x1b0c>
 200215c:	04800404 	movi	r18,16
 2002160:	94009f0e 	bge	r18,r16,20023e0 <___vfprintf_internal_r+0x1c04>
 2002164:	01008074 	movhi	r4,513
 2002168:	213c7c84 	addi	r4,r4,-3598
 200216c:	d9012c15 	stw	r4,1200(sp)
 2002170:	054001c4 	movi	r21,7
 2002174:	00000306 	br	2002184 <___vfprintf_internal_r+0x19a8>
 2002178:	42000204 	addi	r8,r8,8
 200217c:	843ffc04 	addi	r16,r16,-16
 2002180:	94009a0e 	bge	r18,r16,20023ec <___vfprintf_internal_r+0x1c10>
 2002184:	18c00404 	addi	r3,r3,16
 2002188:	10800044 	addi	r2,r2,1
 200218c:	45000015 	stw	r20,0(r8)
 2002190:	44800115 	stw	r18,4(r8)
 2002194:	d8c12015 	stw	r3,1152(sp)
 2002198:	d8811f15 	stw	r2,1148(sp)
 200219c:	a8bff60e 	bge	r21,r2,2002178 <___vfprintf_internal_r+0x199c>
 20021a0:	b009883a 	mov	r4,r22
 20021a4:	b80b883a 	mov	r5,r23
 20021a8:	d9811e04 	addi	r6,sp,1144
 20021ac:	2007a240 	call	2007a24 <__sprint_r>
 20021b0:	103aa11e 	bne	r2,zero,2000c38 <___vfprintf_internal_r+0x45c>
 20021b4:	d8c12017 	ldw	r3,1152(sp)
 20021b8:	d8811f17 	ldw	r2,1148(sp)
 20021bc:	da000404 	addi	r8,sp,16
 20021c0:	003fee06 	br	200217c <___vfprintf_internal_r+0x19a0>
 20021c4:	008011c4 	movi	r2,71
 20021c8:	1400b316 	blt	r2,r16,2002498 <___vfprintf_internal_r+0x1cbc>
 20021cc:	03008074 	movhi	r12,513
 20021d0:	633c6e04 	addi	r12,r12,-3656
 20021d4:	db013115 	stw	r12,1220(sp)
 20021d8:	00c000c4 	movi	r3,3
 20021dc:	00bfdfc4 	movi	r2,-129
 20021e0:	d8c12b15 	stw	r3,1196(sp)
 20021e4:	88a2703a 	and	r17,r17,r2
 20021e8:	dd412783 	ldbu	r21,1182(sp)
 20021ec:	dcc12d15 	stw	r19,1204(sp)
 20021f0:	1825883a 	mov	r18,r3
 20021f4:	d8013215 	stw	zero,1224(sp)
 20021f8:	d8013415 	stw	zero,1232(sp)
 20021fc:	003b0b06 	br	2000e2c <___vfprintf_internal_r+0x650>
 2002200:	4825883a 	mov	r18,r9
 2002204:	003cba06 	br	20014f0 <___vfprintf_internal_r+0xd14>
 2002208:	db012d17 	ldw	r12,1204(sp)
 200220c:	14c00017 	ldw	r19,0(r2)
 2002210:	0039883a 	mov	fp,zero
 2002214:	63000104 	addi	r12,r12,4
 2002218:	db012d15 	stw	r12,1204(sp)
 200221c:	003c0d06 	br	2001254 <___vfprintf_internal_r+0xa78>
 2002220:	00808074 	movhi	r2,513
 2002224:	10bc6c04 	addi	r2,r2,-3664
 2002228:	d8813115 	stw	r2,1220(sp)
 200222c:	003ac406 	br	2000d40 <___vfprintf_internal_r+0x564>
 2002230:	b009883a 	mov	r4,r22
 2002234:	b80b883a 	mov	r5,r23
 2002238:	d9811e04 	addi	r6,sp,1144
 200223c:	2007a240 	call	2007a24 <__sprint_r>
 2002240:	103a7d1e 	bne	r2,zero,2000c38 <___vfprintf_internal_r+0x45c>
 2002244:	dc012617 	ldw	r16,1176(sp)
 2002248:	d8c12017 	ldw	r3,1152(sp)
 200224c:	da000404 	addi	r8,sp,16
 2002250:	003faf06 	br	2002110 <___vfprintf_internal_r+0x1934>
 2002254:	db012e17 	ldw	r12,1208(sp)
 2002258:	1805883a 	mov	r2,r3
 200225c:	dac12d15 	stw	r11,1204(sp)
 2002260:	0319c83a 	sub	r12,zero,r12
 2002264:	db012e15 	stw	r12,1208(sp)
 2002268:	003a7e06 	br	2000c64 <___vfprintf_internal_r+0x488>
 200226c:	18800044 	addi	r2,r3,1
 2002270:	8c400814 	ori	r17,r17,32
 2002274:	1c000047 	ldb	r16,1(r3)
 2002278:	0039bf06 	br	2000978 <___vfprintf_internal_r+0x19c>
 200227c:	b009883a 	mov	r4,r22
 2002280:	b80b883a 	mov	r5,r23
 2002284:	d9811e04 	addi	r6,sp,1144
 2002288:	2007a240 	call	2007a24 <__sprint_r>
 200228c:	103a6a1e 	bne	r2,zero,2000c38 <___vfprintf_internal_r+0x45c>
 2002290:	d8c12017 	ldw	r3,1152(sp)
 2002294:	da000404 	addi	r8,sp,16
 2002298:	003d0c06 	br	20016cc <___vfprintf_internal_r+0xef0>
 200229c:	db012817 	ldw	r12,1184(sp)
 20022a0:	d8c13117 	ldw	r3,1220(sp)
 20022a4:	60e5c83a 	sub	r18,r12,r3
 20022a8:	003adb06 	br	2000e18 <___vfprintf_internal_r+0x63c>
 20022ac:	da013f15 	stw	r8,1276(sp)
 20022b0:	20007440 	call	2000744 <strlen>
 20022b4:	1025883a 	mov	r18,r2
 20022b8:	da013f17 	ldw	r8,1276(sp)
 20022bc:	903c8e0e 	bge	r18,zero,20014f8 <___vfprintf_internal_r+0xd1c>
 20022c0:	0005883a 	mov	r2,zero
 20022c4:	003c8c06 	br	20014f8 <___vfprintf_internal_r+0xd1c>
 20022c8:	b009883a 	mov	r4,r22
 20022cc:	b80b883a 	mov	r5,r23
 20022d0:	d9811e04 	addi	r6,sp,1144
 20022d4:	2007a240 	call	2007a24 <__sprint_r>
 20022d8:	103a571e 	bne	r2,zero,2000c38 <___vfprintf_internal_r+0x45c>
 20022dc:	d8c12017 	ldw	r3,1152(sp)
 20022e0:	d8811f17 	ldw	r2,1148(sp)
 20022e4:	da000404 	addi	r8,sp,16
 20022e8:	db013317 	ldw	r12,1228(sp)
 20022ec:	dac13117 	ldw	r11,1220(sp)
 20022f0:	10800044 	addi	r2,r2,1
 20022f4:	60c7883a 	add	r3,r12,r3
 20022f8:	42c00015 	stw	r11,0(r8)
 20022fc:	43000115 	stw	r12,4(r8)
 2002300:	d8c12015 	stw	r3,1152(sp)
 2002304:	d8811f15 	stw	r2,1148(sp)
 2002308:	010001c4 	movi	r4,7
 200230c:	20bb590e 	bge	r4,r2,2001074 <___vfprintf_internal_r+0x898>
 2002310:	003d7e06 	br	200190c <___vfprintf_internal_r+0x1130>
 2002314:	01008074 	movhi	r4,513
 2002318:	213c8084 	addi	r4,r4,-3582
 200231c:	d9013615 	stw	r4,1240(sp)
 2002320:	003af606 	br	2000efc <___vfprintf_internal_r+0x720>
 2002324:	d8812604 	addi	r2,sp,1176
 2002328:	d8800115 	stw	r2,4(sp)
 200232c:	d9413717 	ldw	r5,1244(sp)
 2002330:	d8812504 	addi	r2,sp,1172
 2002334:	d8800215 	stw	r2,8(sp)
 2002338:	d8812104 	addi	r2,sp,1156
 200233c:	da400015 	stw	r9,0(sp)
 2002340:	d8800315 	stw	r2,12(sp)
 2002344:	b009883a 	mov	r4,r22
 2002348:	900d883a 	mov	r6,r18
 200234c:	01c000c4 	movi	r7,3
 2002350:	da013f15 	stw	r8,1276(sp)
 2002354:	da413e15 	stw	r9,1272(sp)
 2002358:	2002b2c0 	call	2002b2c <_dtoa_r>
 200235c:	da413e17 	ldw	r9,1272(sp)
 2002360:	da013f17 	ldw	r8,1276(sp)
 2002364:	d8813115 	stw	r2,1220(sp)
 2002368:	4839883a 	mov	fp,r9
 200236c:	dac13117 	ldw	r11,1220(sp)
 2002370:	00801184 	movi	r2,70
 2002374:	5f15883a 	add	r10,r11,fp
 2002378:	a8bef01e 	bne	r21,r2,2001f3c <___vfprintf_internal_r+0x1760>
 200237c:	59000007 	ldb	r4,0(r11)
 2002380:	00800c04 	movi	r2,48
 2002384:	2080e026 	beq	r4,r2,2002708 <___vfprintf_internal_r+0x1f2c>
 2002388:	d8c12617 	ldw	r3,1176(sp)
 200238c:	50d5883a 	add	r10,r10,r3
 2002390:	003eea06 	br	2001f3c <___vfprintf_internal_r+0x1760>
 2002394:	0025883a 	mov	r18,zero
 2002398:	003db306 	br	2001a68 <___vfprintf_internal_r+0x128c>
 200239c:	b009883a 	mov	r4,r22
 20023a0:	b80b883a 	mov	r5,r23
 20023a4:	d9811e04 	addi	r6,sp,1144
 20023a8:	2007a240 	call	2007a24 <__sprint_r>
 20023ac:	103a221e 	bne	r2,zero,2000c38 <___vfprintf_internal_r+0x45c>
 20023b0:	d8c12017 	ldw	r3,1152(sp)
 20023b4:	da000404 	addi	r8,sp,16
 20023b8:	003daa06 	br	2001a64 <___vfprintf_internal_r+0x1288>
 20023bc:	b009883a 	mov	r4,r22
 20023c0:	b80b883a 	mov	r5,r23
 20023c4:	d9811e04 	addi	r6,sp,1144
 20023c8:	2007a240 	call	2007a24 <__sprint_r>
 20023cc:	103a1a1e 	bne	r2,zero,2000c38 <___vfprintf_internal_r+0x45c>
 20023d0:	d8812617 	ldw	r2,1176(sp)
 20023d4:	d8c12017 	ldw	r3,1152(sp)
 20023d8:	da000404 	addi	r8,sp,16
 20023dc:	003e2c06 	br	2001c90 <___vfprintf_internal_r+0x14b4>
 20023e0:	03008074 	movhi	r12,513
 20023e4:	633c7c84 	addi	r12,r12,-3598
 20023e8:	db012c15 	stw	r12,1200(sp)
 20023ec:	dac12c17 	ldw	r11,1200(sp)
 20023f0:	1c07883a 	add	r3,r3,r16
 20023f4:	10800044 	addi	r2,r2,1
 20023f8:	42c00015 	stw	r11,0(r8)
 20023fc:	44000115 	stw	r16,4(r8)
 2002400:	d8c12015 	stw	r3,1152(sp)
 2002404:	d8811f15 	stw	r2,1148(sp)
 2002408:	010001c4 	movi	r4,7
 200240c:	20bfae16 	blt	r4,r2,20022c8 <___vfprintf_internal_r+0x1aec>
 2002410:	42000204 	addi	r8,r8,8
 2002414:	003fb406 	br	20022e8 <___vfprintf_internal_r+0x1b0c>
 2002418:	03008074 	movhi	r12,513
 200241c:	633c8084 	addi	r12,r12,-3582
 2002420:	db013615 	stw	r12,1240(sp)
 2002424:	003b3806 	br	2001108 <___vfprintf_internal_r+0x92c>
 2002428:	b009883a 	mov	r4,r22
 200242c:	b80b883a 	mov	r5,r23
 2002430:	d9811e04 	addi	r6,sp,1144
 2002434:	2007a240 	call	2007a24 <__sprint_r>
 2002438:	1039ff1e 	bne	r2,zero,2000c38 <___vfprintf_internal_r+0x45c>
 200243c:	d8812617 	ldw	r2,1176(sp)
 2002440:	db013317 	ldw	r12,1228(sp)
 2002444:	d8c12017 	ldw	r3,1152(sp)
 2002448:	da000404 	addi	r8,sp,16
 200244c:	6085c83a 	sub	r2,r12,r2
 2002450:	003e2006 	br	2001cd4 <___vfprintf_internal_r+0x14f8>
 2002454:	0021883a 	mov	r16,zero
 2002458:	003e1f06 	br	2001cd8 <___vfprintf_internal_r+0x14fc>
 200245c:	00800184 	movi	r2,6
 2002460:	1240012e 	bgeu	r2,r9,2002468 <___vfprintf_internal_r+0x1c8c>
 2002464:	1013883a 	mov	r9,r2
 2002468:	4825883a 	mov	r18,r9
 200246c:	4805883a 	mov	r2,r9
 2002470:	48009e16 	blt	r9,zero,20026ec <___vfprintf_internal_r+0x1f10>
 2002474:	d8812b15 	stw	r2,1196(sp)
 2002478:	00808074 	movhi	r2,513
 200247c:	10bc7a04 	addi	r2,r2,-3608
 2002480:	d8813115 	stw	r2,1220(sp)
 2002484:	dcc12d15 	stw	r19,1204(sp)
 2002488:	d8013215 	stw	zero,1224(sp)
 200248c:	d8013415 	stw	zero,1232(sp)
 2002490:	0005883a 	mov	r2,zero
 2002494:	003a6c06 	br	2000e48 <___vfprintf_internal_r+0x66c>
 2002498:	00808074 	movhi	r2,513
 200249c:	10bc6f04 	addi	r2,r2,-3652
 20024a0:	d8813115 	stw	r2,1220(sp)
 20024a4:	003f4c06 	br	20021d8 <___vfprintf_internal_r+0x19fc>
 20024a8:	00c00b44 	movi	r3,45
 20024ac:	d8812b15 	stw	r2,1196(sp)
 20024b0:	dc412d17 	ldw	r17,1204(sp)
 20024b4:	d8c12785 	stb	r3,1182(sp)
 20024b8:	dcc12d15 	stw	r19,1204(sp)
 20024bc:	d8013215 	stw	zero,1224(sp)
 20024c0:	00800b44 	movi	r2,45
 20024c4:	003a5d06 	br	2000e3c <___vfprintf_internal_r+0x660>
 20024c8:	d8c12617 	ldw	r3,1176(sp)
 20024cc:	00bfff44 	movi	r2,-3
 20024d0:	18800d16 	blt	r3,r2,2002508 <___vfprintf_internal_r+0x1d2c>
 20024d4:	48c00c16 	blt	r9,r3,2002508 <___vfprintf_internal_r+0x1d2c>
 20024d8:	d8c13415 	stw	r3,1232(sp)
 20024dc:	040019c4 	movi	r16,103
 20024e0:	003eb506 	br	2001fb8 <___vfprintf_internal_r+0x17dc>
 20024e4:	05400b44 	movi	r21,45
 20024e8:	dd412785 	stb	r21,1182(sp)
 20024ec:	003a0f06 	br	2000d2c <___vfprintf_internal_r+0x550>
 20024f0:	01008074 	movhi	r4,513
 20024f4:	213c7c84 	addi	r4,r4,-3598
 20024f8:	d9012c15 	stw	r4,1200(sp)
 20024fc:	003cb106 	br	20017c4 <___vfprintf_internal_r+0xfe8>
 2002500:	5005883a 	mov	r2,r10
 2002504:	003ea106 	br	2001f8c <___vfprintf_internal_r+0x17b0>
 2002508:	843fff84 	addi	r16,r16,-2
 200250c:	1f3fffc4 	addi	fp,r3,-1
 2002510:	df012615 	stw	fp,1176(sp)
 2002514:	dc0122c5 	stb	r16,1163(sp)
 2002518:	e0009516 	blt	fp,zero,2002770 <___vfprintf_internal_r+0x1f94>
 200251c:	00800ac4 	movi	r2,43
 2002520:	d8812305 	stb	r2,1164(sp)
 2002524:	00800244 	movi	r2,9
 2002528:	1700690e 	bge	r2,fp,20026d0 <___vfprintf_internal_r+0x1ef4>
 200252c:	dd4122c4 	addi	r21,sp,1163
 2002530:	dc012c15 	stw	r16,1200(sp)
 2002534:	8825883a 	mov	r18,r17
 2002538:	a821883a 	mov	r16,r21
 200253c:	4023883a 	mov	r17,r8
 2002540:	e009883a 	mov	r4,fp
 2002544:	01400284 	movi	r5,10
 2002548:	200a3040 	call	200a304 <__modsi3>
 200254c:	10800c04 	addi	r2,r2,48
 2002550:	843fffc4 	addi	r16,r16,-1
 2002554:	e009883a 	mov	r4,fp
 2002558:	01400284 	movi	r5,10
 200255c:	80800005 	stb	r2,0(r16)
 2002560:	200a2b00 	call	200a2b0 <__divsi3>
 2002564:	1039883a 	mov	fp,r2
 2002568:	00800244 	movi	r2,9
 200256c:	173ff416 	blt	r2,fp,2002540 <___vfprintf_internal_r+0x1d64>
 2002570:	8811883a 	mov	r8,r17
 2002574:	e0800c04 	addi	r2,fp,48
 2002578:	9023883a 	mov	r17,r18
 200257c:	8025883a 	mov	r18,r16
 2002580:	913fffc4 	addi	r4,r18,-1
 2002584:	90bfffc5 	stb	r2,-1(r18)
 2002588:	dc012c17 	ldw	r16,1200(sp)
 200258c:	25408e2e 	bgeu	r4,r21,20027c8 <___vfprintf_internal_r+0x1fec>
 2002590:	d9412384 	addi	r5,sp,1166
 2002594:	2c8bc83a 	sub	r5,r5,r18
 2002598:	d8c12344 	addi	r3,sp,1165
 200259c:	a94b883a 	add	r5,r21,r5
 20025a0:	00000106 	br	20025a8 <___vfprintf_internal_r+0x1dcc>
 20025a4:	20800003 	ldbu	r2,0(r4)
 20025a8:	18800005 	stb	r2,0(r3)
 20025ac:	18c00044 	addi	r3,r3,1
 20025b0:	21000044 	addi	r4,r4,1
 20025b4:	197ffb1e 	bne	r3,r5,20025a4 <___vfprintf_internal_r+0x1dc8>
 20025b8:	d8812304 	addi	r2,sp,1164
 20025bc:	1485c83a 	sub	r2,r2,r18
 20025c0:	d8c12344 	addi	r3,sp,1165
 20025c4:	1885883a 	add	r2,r3,r2
 20025c8:	dac13317 	ldw	r11,1228(sp)
 20025cc:	156bc83a 	sub	r21,r2,r21
 20025d0:	dd413a15 	stw	r21,1256(sp)
 20025d4:	00800044 	movi	r2,1
 20025d8:	5d65883a 	add	r18,r11,r21
 20025dc:	12c0770e 	bge	r2,r11,20027bc <___vfprintf_internal_r+0x1fe0>
 20025e0:	94800044 	addi	r18,r18,1
 20025e4:	9005883a 	mov	r2,r18
 20025e8:	90007216 	blt	r18,zero,20027b4 <___vfprintf_internal_r+0x1fd8>
 20025ec:	d8013415 	stw	zero,1232(sp)
 20025f0:	003e7906 	br	2001fd8 <___vfprintf_internal_r+0x17fc>
 20025f4:	da412b15 	stw	r9,1196(sp)
 20025f8:	dd412783 	ldbu	r21,1182(sp)
 20025fc:	4825883a 	mov	r18,r9
 2002600:	dcc12d15 	stw	r19,1204(sp)
 2002604:	d8013215 	stw	zero,1224(sp)
 2002608:	d8013415 	stw	zero,1232(sp)
 200260c:	003a0706 	br	2000e2c <___vfprintf_internal_r+0x650>
 2002610:	b009883a 	mov	r4,r22
 2002614:	b80b883a 	mov	r5,r23
 2002618:	d9811e04 	addi	r6,sp,1144
 200261c:	2007a240 	call	2007a24 <__sprint_r>
 2002620:	1039851e 	bne	r2,zero,2000c38 <___vfprintf_internal_r+0x45c>
 2002624:	dc012617 	ldw	r16,1176(sp)
 2002628:	d8c12017 	ldw	r3,1152(sp)
 200262c:	d8811f17 	ldw	r2,1148(sp)
 2002630:	da000404 	addi	r8,sp,16
 2002634:	003ec706 	br	2002154 <___vfprintf_internal_r+0x1978>
 2002638:	483e1a1e 	bne	r9,zero,2001ea4 <___vfprintf_internal_r+0x16c8>
 200263c:	9013883a 	mov	r9,r18
 2002640:	003e1806 	br	2001ea4 <___vfprintf_internal_r+0x16c8>
 2002644:	00c00b44 	movi	r3,45
 2002648:	64a0003c 	xorhi	r18,r12,32768
 200264c:	d8c12b05 	stb	r3,1196(sp)
 2002650:	003e1a06 	br	2001ebc <___vfprintf_internal_r+0x16e0>
 2002654:	4f000044 	addi	fp,r9,1
 2002658:	003e1f06 	br	2001ed8 <___vfprintf_internal_r+0x16fc>
 200265c:	02400184 	movi	r9,6
 2002660:	003e1006 	br	2001ea4 <___vfprintf_internal_r+0x16c8>
 2002664:	d8c13417 	ldw	r3,1232(sp)
 2002668:	00c04b0e 	bge	zero,r3,2002798 <___vfprintf_internal_r+0x1fbc>
 200266c:	04800044 	movi	r18,1
 2002670:	dac13317 	ldw	r11,1228(sp)
 2002674:	92e5883a 	add	r18,r18,r11
 2002678:	9005883a 	mov	r2,r18
 200267c:	903e560e 	bge	r18,zero,2001fd8 <___vfprintf_internal_r+0x17fc>
 2002680:	0005883a 	mov	r2,zero
 2002684:	003e5406 	br	2001fd8 <___vfprintf_internal_r+0x17fc>
 2002688:	d8c12617 	ldw	r3,1176(sp)
 200268c:	d8c13415 	stw	r3,1232(sp)
 2002690:	00c03b0e 	bge	zero,r3,2002780 <___vfprintf_internal_r+0x1fa4>
 2002694:	4800081e 	bne	r9,zero,20026b8 <___vfprintf_internal_r+0x1edc>
 2002698:	8c40004c 	andi	r17,r17,1
 200269c:	8800061e 	bne	r17,zero,20026b8 <___vfprintf_internal_r+0x1edc>
 20026a0:	1805883a 	mov	r2,r3
 20026a4:	183e4b0e 	bge	r3,zero,2001fd4 <___vfprintf_internal_r+0x17f8>
 20026a8:	0005883a 	mov	r2,zero
 20026ac:	003e4906 	br	2001fd4 <___vfprintf_internal_r+0x17f8>
 20026b0:	d8812117 	ldw	r2,1156(sp)
 20026b4:	003e3506 	br	2001f8c <___vfprintf_internal_r+0x17b0>
 20026b8:	dac13417 	ldw	r11,1232(sp)
 20026bc:	4a400044 	addi	r9,r9,1
 20026c0:	5a65883a 	add	r18,r11,r9
 20026c4:	9005883a 	mov	r2,r18
 20026c8:	903e430e 	bge	r18,zero,2001fd8 <___vfprintf_internal_r+0x17fc>
 20026cc:	003fec06 	br	2002680 <___vfprintf_internal_r+0x1ea4>
 20026d0:	00800c04 	movi	r2,48
 20026d4:	e0c00c04 	addi	r3,fp,48
 20026d8:	d8812345 	stb	r2,1165(sp)
 20026dc:	d8c12385 	stb	r3,1166(sp)
 20026e0:	d88123c4 	addi	r2,sp,1167
 20026e4:	dd4122c4 	addi	r21,sp,1163
 20026e8:	003fb706 	br	20025c8 <___vfprintf_internal_r+0x1dec>
 20026ec:	0005883a 	mov	r2,zero
 20026f0:	003f6006 	br	2002474 <___vfprintf_internal_r+0x1c98>
 20026f4:	db013417 	ldw	r12,1232(sp)
 20026f8:	64800044 	addi	r18,r12,1
 20026fc:	9005883a 	mov	r2,r18
 2002700:	903e350e 	bge	r18,zero,2001fd8 <___vfprintf_internal_r+0x17fc>
 2002704:	003fde06 	br	2002680 <___vfprintf_internal_r+0x1ea4>
 2002708:	d9013717 	ldw	r4,1244(sp)
 200270c:	900b883a 	mov	r5,r18
 2002710:	000d883a 	mov	r6,zero
 2002714:	000f883a 	mov	r7,zero
 2002718:	da013f15 	stw	r8,1276(sp)
 200271c:	da413e15 	stw	r9,1272(sp)
 2002720:	da813d15 	stw	r10,1268(sp)
 2002724:	200b4d80 	call	200b4d8 <__eqdf2>
 2002728:	da013f17 	ldw	r8,1276(sp)
 200272c:	da413e17 	ldw	r9,1272(sp)
 2002730:	da813d17 	ldw	r10,1268(sp)
 2002734:	103f1426 	beq	r2,zero,2002388 <___vfprintf_internal_r+0x1bac>
 2002738:	00800044 	movi	r2,1
 200273c:	1707c83a 	sub	r3,r2,fp
 2002740:	d8c12615 	stw	r3,1176(sp)
 2002744:	003f1106 	br	200238c <___vfprintf_internal_r+0x1bb0>
 2002748:	dac12d17 	ldw	r11,1204(sp)
 200274c:	5a400017 	ldw	r9,0(r11)
 2002750:	5ac00104 	addi	r11,r11,4
 2002754:	dac12d15 	stw	r11,1204(sp)
 2002758:	483ec60e 	bge	r9,zero,2002274 <___vfprintf_internal_r+0x1a98>
 200275c:	027fffc4 	movi	r9,-1
 2002760:	1c000047 	ldb	r16,1(r3)
 2002764:	00388406 	br	2000978 <___vfprintf_internal_r+0x19c>
 2002768:	043fffc4 	movi	r16,-1
 200276c:	00391006 	br	2000bb0 <___vfprintf_internal_r+0x3d4>
 2002770:	00800b44 	movi	r2,45
 2002774:	0739c83a 	sub	fp,zero,fp
 2002778:	d8812305 	stb	r2,1164(sp)
 200277c:	003f6906 	br	2002524 <___vfprintf_internal_r+0x1d48>
 2002780:	4800081e 	bne	r9,zero,20027a4 <___vfprintf_internal_r+0x1fc8>
 2002784:	8c40004c 	andi	r17,r17,1
 2002788:	8800061e 	bne	r17,zero,20027a4 <___vfprintf_internal_r+0x1fc8>
 200278c:	00800044 	movi	r2,1
 2002790:	1025883a 	mov	r18,r2
 2002794:	003e1006 	br	2001fd8 <___vfprintf_internal_r+0x17fc>
 2002798:	04800084 	movi	r18,2
 200279c:	90e5c83a 	sub	r18,r18,r3
 20027a0:	003fb306 	br	2002670 <___vfprintf_internal_r+0x1e94>
 20027a4:	4c800084 	addi	r18,r9,2
 20027a8:	9005883a 	mov	r2,r18
 20027ac:	903e0a0e 	bge	r18,zero,2001fd8 <___vfprintf_internal_r+0x17fc>
 20027b0:	003fb306 	br	2002680 <___vfprintf_internal_r+0x1ea4>
 20027b4:	0005883a 	mov	r2,zero
 20027b8:	003f8c06 	br	20025ec <___vfprintf_internal_r+0x1e10>
 20027bc:	88a2703a 	and	r17,r17,r2
 20027c0:	883f8826 	beq	r17,zero,20025e4 <___vfprintf_internal_r+0x1e08>
 20027c4:	003f8606 	br	20025e0 <___vfprintf_internal_r+0x1e04>
 20027c8:	d8812344 	addi	r2,sp,1165
 20027cc:	003f7e06 	br	20025c8 <___vfprintf_internal_r+0x1dec>
 20027d0:	d8c12617 	ldw	r3,1176(sp)
 20027d4:	003f4d06 	br	200250c <___vfprintf_internal_r+0x1d30>

020027d8 <__vfprintf_internal>:
 20027d8:	2007883a 	mov	r3,r4
 20027dc:	01008074 	movhi	r4,513
 20027e0:	21039504 	addi	r4,r4,3668
 20027e4:	21000017 	ldw	r4,0(r4)
 20027e8:	2805883a 	mov	r2,r5
 20027ec:	300f883a 	mov	r7,r6
 20027f0:	180b883a 	mov	r5,r3
 20027f4:	100d883a 	mov	r6,r2
 20027f8:	20007dc1 	jmpi	20007dc <___vfprintf_internal_r>

020027fc <__swsetup_r>:
 20027fc:	00808074 	movhi	r2,513
 2002800:	defffd04 	addi	sp,sp,-12
 2002804:	10839504 	addi	r2,r2,3668
 2002808:	dc400115 	stw	r17,4(sp)
 200280c:	2023883a 	mov	r17,r4
 2002810:	11000017 	ldw	r4,0(r2)
 2002814:	dc000015 	stw	r16,0(sp)
 2002818:	dfc00215 	stw	ra,8(sp)
 200281c:	2821883a 	mov	r16,r5
 2002820:	20000226 	beq	r4,zero,200282c <__swsetup_r+0x30>
 2002824:	20c00e17 	ldw	r3,56(r4)
 2002828:	18002e26 	beq	r3,zero,20028e4 <__swsetup_r+0xe8>
 200282c:	8080030b 	ldhu	r2,12(r16)
 2002830:	10c0020c 	andi	r3,r2,8
 2002834:	100d883a 	mov	r6,r2
 2002838:	18000f26 	beq	r3,zero,2002878 <__swsetup_r+0x7c>
 200283c:	80c00417 	ldw	r3,16(r16)
 2002840:	18001526 	beq	r3,zero,2002898 <__swsetup_r+0x9c>
 2002844:	1100004c 	andi	r4,r2,1
 2002848:	20001c1e 	bne	r4,zero,20028bc <__swsetup_r+0xc0>
 200284c:	1080008c 	andi	r2,r2,2
 2002850:	1000261e 	bne	r2,zero,20028ec <__swsetup_r+0xf0>
 2002854:	80800517 	ldw	r2,20(r16)
 2002858:	80800215 	stw	r2,8(r16)
 200285c:	18001c26 	beq	r3,zero,20028d0 <__swsetup_r+0xd4>
 2002860:	0005883a 	mov	r2,zero
 2002864:	dfc00217 	ldw	ra,8(sp)
 2002868:	dc400117 	ldw	r17,4(sp)
 200286c:	dc000017 	ldw	r16,0(sp)
 2002870:	dec00304 	addi	sp,sp,12
 2002874:	f800283a 	ret
 2002878:	3080040c 	andi	r2,r6,16
 200287c:	10001726 	beq	r2,zero,20028dc <__swsetup_r+0xe0>
 2002880:	3080010c 	andi	r2,r6,4
 2002884:	10001b1e 	bne	r2,zero,20028f4 <__swsetup_r+0xf8>
 2002888:	80c00417 	ldw	r3,16(r16)
 200288c:	30800214 	ori	r2,r6,8
 2002890:	8080030d 	sth	r2,12(r16)
 2002894:	183feb1e 	bne	r3,zero,2002844 <__swsetup_r+0x48>
 2002898:	1140a00c 	andi	r5,r2,640
 200289c:	01008004 	movi	r4,512
 20028a0:	293fe826 	beq	r5,r4,2002844 <__swsetup_r+0x48>
 20028a4:	8809883a 	mov	r4,r17
 20028a8:	800b883a 	mov	r5,r16
 20028ac:	20053540 	call	2005354 <__smakebuf_r>
 20028b0:	8080030b 	ldhu	r2,12(r16)
 20028b4:	80c00417 	ldw	r3,16(r16)
 20028b8:	003fe206 	br	2002844 <__swsetup_r+0x48>
 20028bc:	80800517 	ldw	r2,20(r16)
 20028c0:	80000215 	stw	zero,8(r16)
 20028c4:	0085c83a 	sub	r2,zero,r2
 20028c8:	80800615 	stw	r2,24(r16)
 20028cc:	183fe41e 	bne	r3,zero,2002860 <__swsetup_r+0x64>
 20028d0:	8080030b 	ldhu	r2,12(r16)
 20028d4:	1080200c 	andi	r2,r2,128
 20028d8:	103fe226 	beq	r2,zero,2002864 <__swsetup_r+0x68>
 20028dc:	00bfffc4 	movi	r2,-1
 20028e0:	003fe006 	br	2002864 <__swsetup_r+0x68>
 20028e4:	20047fc0 	call	20047fc <__sinit>
 20028e8:	003fd006 	br	200282c <__swsetup_r+0x30>
 20028ec:	0005883a 	mov	r2,zero
 20028f0:	003fd906 	br	2002858 <__swsetup_r+0x5c>
 20028f4:	81400c17 	ldw	r5,48(r16)
 20028f8:	28000626 	beq	r5,zero,2002914 <__swsetup_r+0x118>
 20028fc:	80801004 	addi	r2,r16,64
 2002900:	28800326 	beq	r5,r2,2002910 <__swsetup_r+0x114>
 2002904:	8809883a 	mov	r4,r17
 2002908:	20049700 	call	2004970 <_free_r>
 200290c:	8180030b 	ldhu	r6,12(r16)
 2002910:	80000c15 	stw	zero,48(r16)
 2002914:	80c00417 	ldw	r3,16(r16)
 2002918:	00bff6c4 	movi	r2,-37
 200291c:	118c703a 	and	r6,r2,r6
 2002920:	80000115 	stw	zero,4(r16)
 2002924:	80c00015 	stw	r3,0(r16)
 2002928:	003fd806 	br	200288c <__swsetup_r+0x90>

0200292c <quorem>:
 200292c:	defff704 	addi	sp,sp,-36
 2002930:	dc800215 	stw	r18,8(sp)
 2002934:	20800417 	ldw	r2,16(r4)
 2002938:	2c800417 	ldw	r18,16(r5)
 200293c:	dfc00815 	stw	ra,32(sp)
 2002940:	ddc00715 	stw	r23,28(sp)
 2002944:	dd800615 	stw	r22,24(sp)
 2002948:	dd400515 	stw	r21,20(sp)
 200294c:	dd000415 	stw	r20,16(sp)
 2002950:	dcc00315 	stw	r19,12(sp)
 2002954:	dc400115 	stw	r17,4(sp)
 2002958:	dc000015 	stw	r16,0(sp)
 200295c:	14807116 	blt	r2,r18,2002b24 <quorem+0x1f8>
 2002960:	94bfffc4 	addi	r18,r18,-1
 2002964:	94ad883a 	add	r22,r18,r18
 2002968:	b5ad883a 	add	r22,r22,r22
 200296c:	2c400504 	addi	r17,r5,20
 2002970:	8da9883a 	add	r20,r17,r22
 2002974:	25400504 	addi	r21,r4,20
 2002978:	282f883a 	mov	r23,r5
 200297c:	adad883a 	add	r22,r21,r22
 2002980:	a1400017 	ldw	r5,0(r20)
 2002984:	2021883a 	mov	r16,r4
 2002988:	b1000017 	ldw	r4,0(r22)
 200298c:	29400044 	addi	r5,r5,1
 2002990:	200a3600 	call	200a360 <__udivsi3>
 2002994:	1027883a 	mov	r19,r2
 2002998:	10002c26 	beq	r2,zero,2002a4c <quorem+0x120>
 200299c:	a813883a 	mov	r9,r21
 20029a0:	8811883a 	mov	r8,r17
 20029a4:	0009883a 	mov	r4,zero
 20029a8:	000d883a 	mov	r6,zero
 20029ac:	41c00017 	ldw	r7,0(r8)
 20029b0:	49400017 	ldw	r5,0(r9)
 20029b4:	42000104 	addi	r8,r8,4
 20029b8:	38bfffcc 	andi	r2,r7,65535
 20029bc:	14c5383a 	mul	r2,r2,r19
 20029c0:	380ed43a 	srli	r7,r7,16
 20029c4:	28ffffcc 	andi	r3,r5,65535
 20029c8:	2085883a 	add	r2,r4,r2
 20029cc:	1008d43a 	srli	r4,r2,16
 20029d0:	3ccf383a 	mul	r7,r7,r19
 20029d4:	198d883a 	add	r6,r3,r6
 20029d8:	10ffffcc 	andi	r3,r2,65535
 20029dc:	30c7c83a 	sub	r3,r6,r3
 20029e0:	280ad43a 	srli	r5,r5,16
 20029e4:	21c9883a 	add	r4,r4,r7
 20029e8:	180dd43a 	srai	r6,r3,16
 20029ec:	20bfffcc 	andi	r2,r4,65535
 20029f0:	288bc83a 	sub	r5,r5,r2
 20029f4:	298b883a 	add	r5,r5,r6
 20029f8:	280e943a 	slli	r7,r5,16
 20029fc:	18ffffcc 	andi	r3,r3,65535
 2002a00:	2008d43a 	srli	r4,r4,16
 2002a04:	38ceb03a 	or	r7,r7,r3
 2002a08:	49c00015 	stw	r7,0(r9)
 2002a0c:	280dd43a 	srai	r6,r5,16
 2002a10:	4a400104 	addi	r9,r9,4
 2002a14:	a23fe52e 	bgeu	r20,r8,20029ac <quorem+0x80>
 2002a18:	b0800017 	ldw	r2,0(r22)
 2002a1c:	10000b1e 	bne	r2,zero,2002a4c <quorem+0x120>
 2002a20:	b0bfff04 	addi	r2,r22,-4
 2002a24:	a880082e 	bgeu	r21,r2,2002a48 <quorem+0x11c>
 2002a28:	b0ffff17 	ldw	r3,-4(r22)
 2002a2c:	18000326 	beq	r3,zero,2002a3c <quorem+0x110>
 2002a30:	00000506 	br	2002a48 <quorem+0x11c>
 2002a34:	10c00017 	ldw	r3,0(r2)
 2002a38:	1800031e 	bne	r3,zero,2002a48 <quorem+0x11c>
 2002a3c:	10bfff04 	addi	r2,r2,-4
 2002a40:	94bfffc4 	addi	r18,r18,-1
 2002a44:	a8bffb36 	bltu	r21,r2,2002a34 <quorem+0x108>
 2002a48:	84800415 	stw	r18,16(r16)
 2002a4c:	8009883a 	mov	r4,r16
 2002a50:	b80b883a 	mov	r5,r23
 2002a54:	2006a140 	call	2006a14 <__mcmp>
 2002a58:	10002616 	blt	r2,zero,2002af4 <quorem+0x1c8>
 2002a5c:	9cc00044 	addi	r19,r19,1
 2002a60:	a80d883a 	mov	r6,r21
 2002a64:	000b883a 	mov	r5,zero
 2002a68:	31000017 	ldw	r4,0(r6)
 2002a6c:	88800017 	ldw	r2,0(r17)
 2002a70:	31800104 	addi	r6,r6,4
 2002a74:	20ffffcc 	andi	r3,r4,65535
 2002a78:	194b883a 	add	r5,r3,r5
 2002a7c:	10ffffcc 	andi	r3,r2,65535
 2002a80:	28c7c83a 	sub	r3,r5,r3
 2002a84:	1004d43a 	srli	r2,r2,16
 2002a88:	2008d43a 	srli	r4,r4,16
 2002a8c:	180bd43a 	srai	r5,r3,16
 2002a90:	18ffffcc 	andi	r3,r3,65535
 2002a94:	2089c83a 	sub	r4,r4,r2
 2002a98:	2149883a 	add	r4,r4,r5
 2002a9c:	2004943a 	slli	r2,r4,16
 2002aa0:	8c400104 	addi	r17,r17,4
 2002aa4:	200bd43a 	srai	r5,r4,16
 2002aa8:	10c6b03a 	or	r3,r2,r3
 2002aac:	30ffff15 	stw	r3,-4(r6)
 2002ab0:	a47fed2e 	bgeu	r20,r17,2002a68 <quorem+0x13c>
 2002ab4:	9485883a 	add	r2,r18,r18
 2002ab8:	1085883a 	add	r2,r2,r2
 2002abc:	a887883a 	add	r3,r21,r2
 2002ac0:	18800017 	ldw	r2,0(r3)
 2002ac4:	10000b1e 	bne	r2,zero,2002af4 <quorem+0x1c8>
 2002ac8:	18bfff04 	addi	r2,r3,-4
 2002acc:	a880082e 	bgeu	r21,r2,2002af0 <quorem+0x1c4>
 2002ad0:	18ffff17 	ldw	r3,-4(r3)
 2002ad4:	18000326 	beq	r3,zero,2002ae4 <quorem+0x1b8>
 2002ad8:	00000506 	br	2002af0 <quorem+0x1c4>
 2002adc:	10c00017 	ldw	r3,0(r2)
 2002ae0:	1800031e 	bne	r3,zero,2002af0 <quorem+0x1c4>
 2002ae4:	10bfff04 	addi	r2,r2,-4
 2002ae8:	94bfffc4 	addi	r18,r18,-1
 2002aec:	a8bffb36 	bltu	r21,r2,2002adc <quorem+0x1b0>
 2002af0:	84800415 	stw	r18,16(r16)
 2002af4:	9805883a 	mov	r2,r19
 2002af8:	dfc00817 	ldw	ra,32(sp)
 2002afc:	ddc00717 	ldw	r23,28(sp)
 2002b00:	dd800617 	ldw	r22,24(sp)
 2002b04:	dd400517 	ldw	r21,20(sp)
 2002b08:	dd000417 	ldw	r20,16(sp)
 2002b0c:	dcc00317 	ldw	r19,12(sp)
 2002b10:	dc800217 	ldw	r18,8(sp)
 2002b14:	dc400117 	ldw	r17,4(sp)
 2002b18:	dc000017 	ldw	r16,0(sp)
 2002b1c:	dec00904 	addi	sp,sp,36
 2002b20:	f800283a 	ret
 2002b24:	0005883a 	mov	r2,zero
 2002b28:	003ff306 	br	2002af8 <quorem+0x1cc>

02002b2c <_dtoa_r>:
 2002b2c:	20801017 	ldw	r2,64(r4)
 2002b30:	deffde04 	addi	sp,sp,-136
 2002b34:	dd401d15 	stw	r21,116(sp)
 2002b38:	dcc01b15 	stw	r19,108(sp)
 2002b3c:	dc801a15 	stw	r18,104(sp)
 2002b40:	dc401915 	stw	r17,100(sp)
 2002b44:	dc001815 	stw	r16,96(sp)
 2002b48:	dfc02115 	stw	ra,132(sp)
 2002b4c:	df002015 	stw	fp,128(sp)
 2002b50:	ddc01f15 	stw	r23,124(sp)
 2002b54:	dd801e15 	stw	r22,120(sp)
 2002b58:	dd001c15 	stw	r20,112(sp)
 2002b5c:	d9c00315 	stw	r7,12(sp)
 2002b60:	2021883a 	mov	r16,r4
 2002b64:	302b883a 	mov	r21,r6
 2002b68:	2825883a 	mov	r18,r5
 2002b6c:	dc402417 	ldw	r17,144(sp)
 2002b70:	3027883a 	mov	r19,r6
 2002b74:	10000826 	beq	r2,zero,2002b98 <_dtoa_r+0x6c>
 2002b78:	21801117 	ldw	r6,68(r4)
 2002b7c:	00c00044 	movi	r3,1
 2002b80:	100b883a 	mov	r5,r2
 2002b84:	1986983a 	sll	r3,r3,r6
 2002b88:	11800115 	stw	r6,4(r2)
 2002b8c:	10c00215 	stw	r3,8(r2)
 2002b90:	20061fc0 	call	20061fc <_Bfree>
 2002b94:	80001015 	stw	zero,64(r16)
 2002b98:	a8002d16 	blt	r21,zero,2002c50 <_dtoa_r+0x124>
 2002b9c:	88000015 	stw	zero,0(r17)
 2002ba0:	a8dffc2c 	andhi	r3,r21,32752
 2002ba4:	009ffc34 	movhi	r2,32752
 2002ba8:	18801b26 	beq	r3,r2,2002c18 <_dtoa_r+0xec>
 2002bac:	9009883a 	mov	r4,r18
 2002bb0:	980b883a 	mov	r5,r19
 2002bb4:	000d883a 	mov	r6,zero
 2002bb8:	000f883a 	mov	r7,zero
 2002bbc:	200b4d80 	call	200b4d8 <__eqdf2>
 2002bc0:	10002a1e 	bne	r2,zero,2002c6c <_dtoa_r+0x140>
 2002bc4:	d8c02317 	ldw	r3,140(sp)
 2002bc8:	d9002517 	ldw	r4,148(sp)
 2002bcc:	00800044 	movi	r2,1
 2002bd0:	18800015 	stw	r2,0(r3)
 2002bd4:	2001a226 	beq	r4,zero,2003260 <_dtoa_r+0x734>
 2002bd8:	00808074 	movhi	r2,513
 2002bdc:	10bc7c44 	addi	r2,r2,-3599
 2002be0:	20800015 	stw	r2,0(r4)
 2002be4:	10bfffc4 	addi	r2,r2,-1
 2002be8:	dfc02117 	ldw	ra,132(sp)
 2002bec:	df002017 	ldw	fp,128(sp)
 2002bf0:	ddc01f17 	ldw	r23,124(sp)
 2002bf4:	dd801e17 	ldw	r22,120(sp)
 2002bf8:	dd401d17 	ldw	r21,116(sp)
 2002bfc:	dd001c17 	ldw	r20,112(sp)
 2002c00:	dcc01b17 	ldw	r19,108(sp)
 2002c04:	dc801a17 	ldw	r18,104(sp)
 2002c08:	dc401917 	ldw	r17,100(sp)
 2002c0c:	dc001817 	ldw	r16,96(sp)
 2002c10:	dec02204 	addi	sp,sp,136
 2002c14:	f800283a 	ret
 2002c18:	d8c02317 	ldw	r3,140(sp)
 2002c1c:	0089c3c4 	movi	r2,9999
 2002c20:	18800015 	stw	r2,0(r3)
 2002c24:	90017c26 	beq	r18,zero,2003218 <_dtoa_r+0x6ec>
 2002c28:	00808074 	movhi	r2,513
 2002c2c:	10bc8804 	addi	r2,r2,-3552
 2002c30:	d9002517 	ldw	r4,148(sp)
 2002c34:	203fec26 	beq	r4,zero,2002be8 <_dtoa_r+0xbc>
 2002c38:	10c000c7 	ldb	r3,3(r2)
 2002c3c:	18017d1e 	bne	r3,zero,2003234 <_dtoa_r+0x708>
 2002c40:	10c000c4 	addi	r3,r2,3
 2002c44:	d9802517 	ldw	r6,148(sp)
 2002c48:	30c00015 	stw	r3,0(r6)
 2002c4c:	003fe606 	br	2002be8 <_dtoa_r+0xbc>
 2002c50:	04e00034 	movhi	r19,32768
 2002c54:	9cffffc4 	addi	r19,r19,-1
 2002c58:	00800044 	movi	r2,1
 2002c5c:	ace6703a 	and	r19,r21,r19
 2002c60:	88800015 	stw	r2,0(r17)
 2002c64:	982b883a 	mov	r21,r19
 2002c68:	003fcd06 	br	2002ba0 <_dtoa_r+0x74>
 2002c6c:	d8800204 	addi	r2,sp,8
 2002c70:	a822d53a 	srli	r17,r21,20
 2002c74:	d8800015 	stw	r2,0(sp)
 2002c78:	8009883a 	mov	r4,r16
 2002c7c:	900b883a 	mov	r5,r18
 2002c80:	980d883a 	mov	r6,r19
 2002c84:	d9c00104 	addi	r7,sp,4
 2002c88:	2006d880 	call	2006d88 <__d2b>
 2002c8c:	1039883a 	mov	fp,r2
 2002c90:	88016a1e 	bne	r17,zero,200323c <_dtoa_r+0x710>
 2002c94:	dd000217 	ldw	r20,8(sp)
 2002c98:	dc400117 	ldw	r17,4(sp)
 2002c9c:	00befbc4 	movi	r2,-1041
 2002ca0:	a463883a 	add	r17,r20,r17
 2002ca4:	8882ea16 	blt	r17,r2,2003850 <_dtoa_r+0xd24>
 2002ca8:	00bf0384 	movi	r2,-1010
 2002cac:	1445c83a 	sub	r2,r2,r17
 2002cb0:	89010484 	addi	r4,r17,1042
 2002cb4:	a8aa983a 	sll	r21,r21,r2
 2002cb8:	9108d83a 	srl	r4,r18,r4
 2002cbc:	a908b03a 	or	r4,r21,r4
 2002cc0:	200c8680 	call	200c868 <__floatunsidf>
 2002cc4:	017f8434 	movhi	r5,65040
 2002cc8:	01800044 	movi	r6,1
 2002ccc:	1009883a 	mov	r4,r2
 2002cd0:	194b883a 	add	r5,r3,r5
 2002cd4:	8c7fffc4 	addi	r17,r17,-1
 2002cd8:	d9800f15 	stw	r6,60(sp)
 2002cdc:	000d883a 	mov	r6,zero
 2002ce0:	01cffe34 	movhi	r7,16376
 2002ce4:	200be400 	call	200be40 <__subdf3>
 2002ce8:	0198dbf4 	movhi	r6,25455
 2002cec:	01cff4f4 	movhi	r7,16339
 2002cf0:	1009883a 	mov	r4,r2
 2002cf4:	180b883a 	mov	r5,r3
 2002cf8:	3190d844 	addi	r6,r6,17249
 2002cfc:	39e1e9c4 	addi	r7,r7,-30809
 2002d00:	200b71c0 	call	200b71c <__muldf3>
 2002d04:	01a2d874 	movhi	r6,35681
 2002d08:	01cff1f4 	movhi	r7,16327
 2002d0c:	180b883a 	mov	r5,r3
 2002d10:	31b22cc4 	addi	r6,r6,-14157
 2002d14:	39e28a04 	addi	r7,r7,-30168
 2002d18:	1009883a 	mov	r4,r2
 2002d1c:	200a3700 	call	200a370 <__adddf3>
 2002d20:	8809883a 	mov	r4,r17
 2002d24:	102d883a 	mov	r22,r2
 2002d28:	182b883a 	mov	r21,r3
 2002d2c:	200c7980 	call	200c798 <__floatsidf>
 2002d30:	019427f4 	movhi	r6,20639
 2002d34:	01cff4f4 	movhi	r7,16339
 2002d38:	1009883a 	mov	r4,r2
 2002d3c:	180b883a 	mov	r5,r3
 2002d40:	319e7ec4 	addi	r6,r6,31227
 2002d44:	39d104c4 	addi	r7,r7,17427
 2002d48:	200b71c0 	call	200b71c <__muldf3>
 2002d4c:	b009883a 	mov	r4,r22
 2002d50:	a80b883a 	mov	r5,r21
 2002d54:	100d883a 	mov	r6,r2
 2002d58:	180f883a 	mov	r7,r3
 2002d5c:	200a3700 	call	200a370 <__adddf3>
 2002d60:	1009883a 	mov	r4,r2
 2002d64:	180b883a 	mov	r5,r3
 2002d68:	102d883a 	mov	r22,r2
 2002d6c:	182b883a 	mov	r21,r3
 2002d70:	200c7100 	call	200c710 <__fixdfsi>
 2002d74:	b009883a 	mov	r4,r22
 2002d78:	a80b883a 	mov	r5,r21
 2002d7c:	000d883a 	mov	r6,zero
 2002d80:	000f883a 	mov	r7,zero
 2002d84:	d8800515 	stw	r2,20(sp)
 2002d88:	200b63c0 	call	200b63c <__ledf2>
 2002d8c:	10023116 	blt	r2,zero,2003654 <_dtoa_r+0xb28>
 2002d90:	d8c00517 	ldw	r3,20(sp)
 2002d94:	00800584 	movi	r2,22
 2002d98:	10c21f36 	bltu	r2,r3,2003618 <_dtoa_r+0xaec>
 2002d9c:	180490fa 	slli	r2,r3,3
 2002da0:	00c08074 	movhi	r3,513
 2002da4:	18fca404 	addi	r3,r3,-3440
 2002da8:	1885883a 	add	r2,r3,r2
 2002dac:	11000017 	ldw	r4,0(r2)
 2002db0:	11400117 	ldw	r5,4(r2)
 2002db4:	900d883a 	mov	r6,r18
 2002db8:	980f883a 	mov	r7,r19
 2002dbc:	200b55c0 	call	200b55c <__gedf2>
 2002dc0:	0082a70e 	bge	zero,r2,2003860 <_dtoa_r+0xd34>
 2002dc4:	d9000517 	ldw	r4,20(sp)
 2002dc8:	d8000c15 	stw	zero,48(sp)
 2002dcc:	213fffc4 	addi	r4,r4,-1
 2002dd0:	d9000515 	stw	r4,20(sp)
 2002dd4:	a463c83a 	sub	r17,r20,r17
 2002dd8:	8dbfffc4 	addi	r22,r17,-1
 2002ddc:	b0021916 	blt	r22,zero,2003644 <_dtoa_r+0xb18>
 2002de0:	d8000815 	stw	zero,32(sp)
 2002de4:	d8800517 	ldw	r2,20(sp)
 2002de8:	10020e16 	blt	r2,zero,2003624 <_dtoa_r+0xaf8>
 2002dec:	b0ad883a 	add	r22,r22,r2
 2002df0:	d8800a15 	stw	r2,40(sp)
 2002df4:	d8000915 	stw	zero,36(sp)
 2002df8:	d8c00317 	ldw	r3,12(sp)
 2002dfc:	00800244 	movi	r2,9
 2002e00:	10c11a36 	bltu	r2,r3,200326c <_dtoa_r+0x740>
 2002e04:	00800144 	movi	r2,5
 2002e08:	10c4fc0e 	bge	r2,r3,20041fc <_dtoa_r+0x16d0>
 2002e0c:	18ffff04 	addi	r3,r3,-4
 2002e10:	d8c00315 	stw	r3,12(sp)
 2002e14:	0029883a 	mov	r20,zero
 2002e18:	d9800317 	ldw	r6,12(sp)
 2002e1c:	008000c4 	movi	r2,3
 2002e20:	3083bd26 	beq	r6,r2,2003d18 <_dtoa_r+0x11ec>
 2002e24:	1183670e 	bge	r2,r6,2003bc4 <_dtoa_r+0x1098>
 2002e28:	d8c00317 	ldw	r3,12(sp)
 2002e2c:	00800104 	movi	r2,4
 2002e30:	1882e726 	beq	r3,r2,20039d0 <_dtoa_r+0xea4>
 2002e34:	00800144 	movi	r2,5
 2002e38:	1884f21e 	bne	r3,r2,2004204 <_dtoa_r+0x16d8>
 2002e3c:	00800044 	movi	r2,1
 2002e40:	d8800b15 	stw	r2,44(sp)
 2002e44:	d8c02217 	ldw	r3,136(sp)
 2002e48:	d9000517 	ldw	r4,20(sp)
 2002e4c:	1907883a 	add	r3,r3,r4
 2002e50:	19800044 	addi	r6,r3,1
 2002e54:	d8c00d15 	stw	r3,52(sp)
 2002e58:	d9800615 	stw	r6,24(sp)
 2002e5c:	0183c30e 	bge	zero,r6,2003d6c <_dtoa_r+0x1240>
 2002e60:	d9800617 	ldw	r6,24(sp)
 2002e64:	3023883a 	mov	r17,r6
 2002e68:	80001115 	stw	zero,68(r16)
 2002e6c:	008005c4 	movi	r2,23
 2002e70:	1184f62e 	bgeu	r2,r6,200424c <_dtoa_r+0x1720>
 2002e74:	00c00044 	movi	r3,1
 2002e78:	00800104 	movi	r2,4
 2002e7c:	1085883a 	add	r2,r2,r2
 2002e80:	11000504 	addi	r4,r2,20
 2002e84:	180b883a 	mov	r5,r3
 2002e88:	18c00044 	addi	r3,r3,1
 2002e8c:	313ffb2e 	bgeu	r6,r4,2002e7c <_dtoa_r+0x350>
 2002e90:	81401115 	stw	r5,68(r16)
 2002e94:	8009883a 	mov	r4,r16
 2002e98:	20061540 	call	2006154 <_Balloc>
 2002e9c:	d8800715 	stw	r2,28(sp)
 2002ea0:	80801015 	stw	r2,64(r16)
 2002ea4:	00800384 	movi	r2,14
 2002ea8:	1440fd36 	bltu	r2,r17,20032a0 <_dtoa_r+0x774>
 2002eac:	a000fc26 	beq	r20,zero,20032a0 <_dtoa_r+0x774>
 2002eb0:	d8800517 	ldw	r2,20(sp)
 2002eb4:	0083b90e 	bge	zero,r2,2003d9c <_dtoa_r+0x1270>
 2002eb8:	d8c00517 	ldw	r3,20(sp)
 2002ebc:	108003cc 	andi	r2,r2,15
 2002ec0:	100490fa 	slli	r2,r2,3
 2002ec4:	182fd13a 	srai	r23,r3,4
 2002ec8:	00c08074 	movhi	r3,513
 2002ecc:	18fca404 	addi	r3,r3,-3440
 2002ed0:	1885883a 	add	r2,r3,r2
 2002ed4:	b8c0040c 	andi	r3,r23,16
 2002ed8:	12c00017 	ldw	r11,0(r2)
 2002edc:	12800117 	ldw	r10,4(r2)
 2002ee0:	18039726 	beq	r3,zero,2003d40 <_dtoa_r+0x1214>
 2002ee4:	00808074 	movhi	r2,513
 2002ee8:	10bc9a04 	addi	r2,r2,-3480
 2002eec:	11800817 	ldw	r6,32(r2)
 2002ef0:	11c00917 	ldw	r7,36(r2)
 2002ef4:	9009883a 	mov	r4,r18
 2002ef8:	980b883a 	mov	r5,r19
 2002efc:	da801615 	stw	r10,88(sp)
 2002f00:	dac01515 	stw	r11,84(sp)
 2002f04:	200ac0c0 	call	200ac0c <__divdf3>
 2002f08:	da801617 	ldw	r10,88(sp)
 2002f0c:	dac01517 	ldw	r11,84(sp)
 2002f10:	bdc003cc 	andi	r23,r23,15
 2002f14:	044000c4 	movi	r17,3
 2002f18:	d8800e15 	stw	r2,56(sp)
 2002f1c:	182b883a 	mov	r21,r3
 2002f20:	b8001126 	beq	r23,zero,2002f68 <_dtoa_r+0x43c>
 2002f24:	05008074 	movhi	r20,513
 2002f28:	a53c9a04 	addi	r20,r20,-3480
 2002f2c:	5805883a 	mov	r2,r11
 2002f30:	5007883a 	mov	r3,r10
 2002f34:	b980004c 	andi	r6,r23,1
 2002f38:	1009883a 	mov	r4,r2
 2002f3c:	b82fd07a 	srai	r23,r23,1
 2002f40:	180b883a 	mov	r5,r3
 2002f44:	30000426 	beq	r6,zero,2002f58 <_dtoa_r+0x42c>
 2002f48:	a1800017 	ldw	r6,0(r20)
 2002f4c:	a1c00117 	ldw	r7,4(r20)
 2002f50:	8c400044 	addi	r17,r17,1
 2002f54:	200b71c0 	call	200b71c <__muldf3>
 2002f58:	a5000204 	addi	r20,r20,8
 2002f5c:	b83ff51e 	bne	r23,zero,2002f34 <_dtoa_r+0x408>
 2002f60:	1017883a 	mov	r11,r2
 2002f64:	1815883a 	mov	r10,r3
 2002f68:	d9000e17 	ldw	r4,56(sp)
 2002f6c:	a80b883a 	mov	r5,r21
 2002f70:	580d883a 	mov	r6,r11
 2002f74:	500f883a 	mov	r7,r10
 2002f78:	200ac0c0 	call	200ac0c <__divdf3>
 2002f7c:	1029883a 	mov	r20,r2
 2002f80:	182b883a 	mov	r21,r3
 2002f84:	d9800c17 	ldw	r6,48(sp)
 2002f88:	30000626 	beq	r6,zero,2002fa4 <_dtoa_r+0x478>
 2002f8c:	a009883a 	mov	r4,r20
 2002f90:	a80b883a 	mov	r5,r21
 2002f94:	000d883a 	mov	r6,zero
 2002f98:	01cffc34 	movhi	r7,16368
 2002f9c:	200b63c0 	call	200b63c <__ledf2>
 2002fa0:	10043216 	blt	r2,zero,200406c <_dtoa_r+0x1540>
 2002fa4:	8809883a 	mov	r4,r17
 2002fa8:	200c7980 	call	200c798 <__floatsidf>
 2002fac:	1009883a 	mov	r4,r2
 2002fb0:	180b883a 	mov	r5,r3
 2002fb4:	a00d883a 	mov	r6,r20
 2002fb8:	a80f883a 	mov	r7,r21
 2002fbc:	200b71c0 	call	200b71c <__muldf3>
 2002fc0:	000d883a 	mov	r6,zero
 2002fc4:	1009883a 	mov	r4,r2
 2002fc8:	180b883a 	mov	r5,r3
 2002fcc:	01d00734 	movhi	r7,16412
 2002fd0:	200a3700 	call	200a370 <__adddf3>
 2002fd4:	1023883a 	mov	r17,r2
 2002fd8:	d9800617 	ldw	r6,24(sp)
 2002fdc:	00bf3034 	movhi	r2,64704
 2002fe0:	1885883a 	add	r2,r3,r2
 2002fe4:	d8800e15 	stw	r2,56(sp)
 2002fe8:	30032e26 	beq	r6,zero,2003ca4 <_dtoa_r+0x1178>
 2002fec:	d8c00517 	ldw	r3,20(sp)
 2002ff0:	da800617 	ldw	r10,24(sp)
 2002ff4:	d8c01215 	stw	r3,72(sp)
 2002ff8:	d9000b17 	ldw	r4,44(sp)
 2002ffc:	2003b026 	beq	r4,zero,2003ec0 <_dtoa_r+0x1394>
 2003000:	50bfffc4 	addi	r2,r10,-1
 2003004:	100490fa 	slli	r2,r2,3
 2003008:	00c08074 	movhi	r3,513
 200300c:	18fca404 	addi	r3,r3,-3440
 2003010:	1885883a 	add	r2,r3,r2
 2003014:	11800017 	ldw	r6,0(r2)
 2003018:	11c00117 	ldw	r7,4(r2)
 200301c:	d8800717 	ldw	r2,28(sp)
 2003020:	0009883a 	mov	r4,zero
 2003024:	014ff834 	movhi	r5,16352
 2003028:	da801615 	stw	r10,88(sp)
 200302c:	15c00044 	addi	r23,r2,1
 2003030:	200ac0c0 	call	200ac0c <__divdf3>
 2003034:	d9c00e17 	ldw	r7,56(sp)
 2003038:	880d883a 	mov	r6,r17
 200303c:	1009883a 	mov	r4,r2
 2003040:	180b883a 	mov	r5,r3
 2003044:	200be400 	call	200be40 <__subdf3>
 2003048:	a80b883a 	mov	r5,r21
 200304c:	a009883a 	mov	r4,r20
 2003050:	d8c01015 	stw	r3,64(sp)
 2003054:	d8800e15 	stw	r2,56(sp)
 2003058:	200c7100 	call	200c710 <__fixdfsi>
 200305c:	1009883a 	mov	r4,r2
 2003060:	d8801715 	stw	r2,92(sp)
 2003064:	200c7980 	call	200c798 <__floatsidf>
 2003068:	a009883a 	mov	r4,r20
 200306c:	a80b883a 	mov	r5,r21
 2003070:	100d883a 	mov	r6,r2
 2003074:	180f883a 	mov	r7,r3
 2003078:	200be400 	call	200be40 <__subdf3>
 200307c:	da001717 	ldw	r8,92(sp)
 2003080:	1829883a 	mov	r20,r3
 2003084:	d8c00717 	ldw	r3,28(sp)
 2003088:	d9000e17 	ldw	r4,56(sp)
 200308c:	d9401017 	ldw	r5,64(sp)
 2003090:	42000c04 	addi	r8,r8,48
 2003094:	1023883a 	mov	r17,r2
 2003098:	1a000005 	stb	r8,0(r3)
 200309c:	880d883a 	mov	r6,r17
 20030a0:	a00f883a 	mov	r7,r20
 20030a4:	402b883a 	mov	r21,r8
 20030a8:	200b55c0 	call	200b55c <__gedf2>
 20030ac:	00844516 	blt	zero,r2,20041c4 <_dtoa_r+0x1698>
 20030b0:	0009883a 	mov	r4,zero
 20030b4:	014ffc34 	movhi	r5,16368
 20030b8:	880d883a 	mov	r6,r17
 20030bc:	a00f883a 	mov	r7,r20
 20030c0:	200be400 	call	200be40 <__subdf3>
 20030c4:	d9000e17 	ldw	r4,56(sp)
 20030c8:	d9401017 	ldw	r5,64(sp)
 20030cc:	100d883a 	mov	r6,r2
 20030d0:	180f883a 	mov	r7,r3
 20030d4:	200b55c0 	call	200b55c <__gedf2>
 20030d8:	da801617 	ldw	r10,88(sp)
 20030dc:	00843616 	blt	zero,r2,20041b8 <_dtoa_r+0x168c>
 20030e0:	00800044 	movi	r2,1
 20030e4:	12806e0e 	bge	r2,r10,20032a0 <_dtoa_r+0x774>
 20030e8:	d9000717 	ldw	r4,28(sp)
 20030ec:	dd801315 	stw	r22,76(sp)
 20030f0:	dc001115 	stw	r16,68(sp)
 20030f4:	2295883a 	add	r10,r4,r10
 20030f8:	dcc01415 	stw	r19,80(sp)
 20030fc:	502d883a 	mov	r22,r10
 2003100:	dcc01017 	ldw	r19,64(sp)
 2003104:	b821883a 	mov	r16,r23
 2003108:	dc801015 	stw	r18,64(sp)
 200310c:	dc800e17 	ldw	r18,56(sp)
 2003110:	00000906 	br	2003138 <_dtoa_r+0x60c>
 2003114:	200be400 	call	200be40 <__subdf3>
 2003118:	1009883a 	mov	r4,r2
 200311c:	180b883a 	mov	r5,r3
 2003120:	900d883a 	mov	r6,r18
 2003124:	980f883a 	mov	r7,r19
 2003128:	200b63c0 	call	200b63c <__ledf2>
 200312c:	10040e16 	blt	r2,zero,2004168 <_dtoa_r+0x163c>
 2003130:	b821883a 	mov	r16,r23
 2003134:	bd841026 	beq	r23,r22,2004178 <_dtoa_r+0x164c>
 2003138:	9009883a 	mov	r4,r18
 200313c:	980b883a 	mov	r5,r19
 2003140:	000d883a 	mov	r6,zero
 2003144:	01d00934 	movhi	r7,16420
 2003148:	200b71c0 	call	200b71c <__muldf3>
 200314c:	000d883a 	mov	r6,zero
 2003150:	01d00934 	movhi	r7,16420
 2003154:	8809883a 	mov	r4,r17
 2003158:	a00b883a 	mov	r5,r20
 200315c:	1025883a 	mov	r18,r2
 2003160:	1827883a 	mov	r19,r3
 2003164:	200b71c0 	call	200b71c <__muldf3>
 2003168:	180b883a 	mov	r5,r3
 200316c:	1009883a 	mov	r4,r2
 2003170:	1823883a 	mov	r17,r3
 2003174:	1029883a 	mov	r20,r2
 2003178:	200c7100 	call	200c710 <__fixdfsi>
 200317c:	1009883a 	mov	r4,r2
 2003180:	102b883a 	mov	r21,r2
 2003184:	200c7980 	call	200c798 <__floatsidf>
 2003188:	a009883a 	mov	r4,r20
 200318c:	880b883a 	mov	r5,r17
 2003190:	100d883a 	mov	r6,r2
 2003194:	180f883a 	mov	r7,r3
 2003198:	200be400 	call	200be40 <__subdf3>
 200319c:	ad400c04 	addi	r21,r21,48
 20031a0:	1009883a 	mov	r4,r2
 20031a4:	180b883a 	mov	r5,r3
 20031a8:	900d883a 	mov	r6,r18
 20031ac:	980f883a 	mov	r7,r19
 20031b0:	85400005 	stb	r21,0(r16)
 20031b4:	1023883a 	mov	r17,r2
 20031b8:	1829883a 	mov	r20,r3
 20031bc:	200b63c0 	call	200b63c <__ledf2>
 20031c0:	bdc00044 	addi	r23,r23,1
 20031c4:	0009883a 	mov	r4,zero
 20031c8:	014ffc34 	movhi	r5,16368
 20031cc:	880d883a 	mov	r6,r17
 20031d0:	a00f883a 	mov	r7,r20
 20031d4:	103fcf0e 	bge	r2,zero,2003114 <_dtoa_r+0x5e8>
 20031d8:	d9801217 	ldw	r6,72(sp)
 20031dc:	dc001117 	ldw	r16,68(sp)
 20031e0:	d9800515 	stw	r6,20(sp)
 20031e4:	8009883a 	mov	r4,r16
 20031e8:	e00b883a 	mov	r5,fp
 20031ec:	20061fc0 	call	20061fc <_Bfree>
 20031f0:	d8c00517 	ldw	r3,20(sp)
 20031f4:	d9002317 	ldw	r4,140(sp)
 20031f8:	d9802517 	ldw	r6,148(sp)
 20031fc:	b8000005 	stb	zero,0(r23)
 2003200:	18800044 	addi	r2,r3,1
 2003204:	20800015 	stw	r2,0(r4)
 2003208:	30027226 	beq	r6,zero,2003bd4 <_dtoa_r+0x10a8>
 200320c:	35c00015 	stw	r23,0(r6)
 2003210:	d8800717 	ldw	r2,28(sp)
 2003214:	003e7406 	br	2002be8 <_dtoa_r+0xbc>
 2003218:	00800434 	movhi	r2,16
 200321c:	10bfffc4 	addi	r2,r2,-1
 2003220:	a8aa703a 	and	r21,r21,r2
 2003224:	a83e801e 	bne	r21,zero,2002c28 <_dtoa_r+0xfc>
 2003228:	00808074 	movhi	r2,513
 200322c:	10bc8504 	addi	r2,r2,-3564
 2003230:	003e7f06 	br	2002c30 <_dtoa_r+0x104>
 2003234:	10c00204 	addi	r3,r2,8
 2003238:	003e8206 	br	2002c44 <_dtoa_r+0x118>
 200323c:	01400434 	movhi	r5,16
 2003240:	297fffc4 	addi	r5,r5,-1
 2003244:	994a703a 	and	r5,r19,r5
 2003248:	9009883a 	mov	r4,r18
 200324c:	8c7f0044 	addi	r17,r17,-1023
 2003250:	294ffc34 	orhi	r5,r5,16368
 2003254:	dd000217 	ldw	r20,8(sp)
 2003258:	d8000f15 	stw	zero,60(sp)
 200325c:	003e9f06 	br	2002cdc <_dtoa_r+0x1b0>
 2003260:	00808074 	movhi	r2,513
 2003264:	10bc7c04 	addi	r2,r2,-3600
 2003268:	003e5f06 	br	2002be8 <_dtoa_r+0xbc>
 200326c:	80001115 	stw	zero,68(r16)
 2003270:	8009883a 	mov	r4,r16
 2003274:	000b883a 	mov	r5,zero
 2003278:	20061540 	call	2006154 <_Balloc>
 200327c:	01bfffc4 	movi	r6,-1
 2003280:	d8800715 	stw	r2,28(sp)
 2003284:	80801015 	stw	r2,64(r16)
 2003288:	00800044 	movi	r2,1
 200328c:	d9800615 	stw	r6,24(sp)
 2003290:	d8800b15 	stw	r2,44(sp)
 2003294:	d8002215 	stw	zero,136(sp)
 2003298:	d9800d15 	stw	r6,52(sp)
 200329c:	d8000315 	stw	zero,12(sp)
 20032a0:	d8800117 	ldw	r2,4(sp)
 20032a4:	10008e16 	blt	r2,zero,20034e0 <_dtoa_r+0x9b4>
 20032a8:	d9000517 	ldw	r4,20(sp)
 20032ac:	00c00384 	movi	r3,14
 20032b0:	19008b16 	blt	r3,r4,20034e0 <_dtoa_r+0x9b4>
 20032b4:	200490fa 	slli	r2,r4,3
 20032b8:	00c08074 	movhi	r3,513
 20032bc:	d9802217 	ldw	r6,136(sp)
 20032c0:	18fca404 	addi	r3,r3,-3440
 20032c4:	1885883a 	add	r2,r3,r2
 20032c8:	14400017 	ldw	r17,0(r2)
 20032cc:	15000117 	ldw	r20,4(r2)
 20032d0:	3001c716 	blt	r6,zero,20039f0 <_dtoa_r+0xec4>
 20032d4:	880d883a 	mov	r6,r17
 20032d8:	a00f883a 	mov	r7,r20
 20032dc:	9009883a 	mov	r4,r18
 20032e0:	980b883a 	mov	r5,r19
 20032e4:	200ac0c0 	call	200ac0c <__divdf3>
 20032e8:	180b883a 	mov	r5,r3
 20032ec:	1009883a 	mov	r4,r2
 20032f0:	200c7100 	call	200c710 <__fixdfsi>
 20032f4:	1009883a 	mov	r4,r2
 20032f8:	102d883a 	mov	r22,r2
 20032fc:	200c7980 	call	200c798 <__floatsidf>
 2003300:	1009883a 	mov	r4,r2
 2003304:	180b883a 	mov	r5,r3
 2003308:	880d883a 	mov	r6,r17
 200330c:	a00f883a 	mov	r7,r20
 2003310:	200b71c0 	call	200b71c <__muldf3>
 2003314:	9009883a 	mov	r4,r18
 2003318:	980b883a 	mov	r5,r19
 200331c:	100d883a 	mov	r6,r2
 2003320:	180f883a 	mov	r7,r3
 2003324:	200be400 	call	200be40 <__subdf3>
 2003328:	d9000717 	ldw	r4,28(sp)
 200332c:	d9800617 	ldw	r6,24(sp)
 2003330:	180b883a 	mov	r5,r3
 2003334:	b0c00c04 	addi	r3,r22,48
 2003338:	20c00005 	stb	r3,0(r4)
 200333c:	25c00044 	addi	r23,r4,1
 2003340:	01000044 	movi	r4,1
 2003344:	1011883a 	mov	r8,r2
 2003348:	2807883a 	mov	r3,r5
 200334c:	31003d26 	beq	r6,r4,2003444 <_dtoa_r+0x918>
 2003350:	000d883a 	mov	r6,zero
 2003354:	01d00934 	movhi	r7,16420
 2003358:	1009883a 	mov	r4,r2
 200335c:	200b71c0 	call	200b71c <__muldf3>
 2003360:	1009883a 	mov	r4,r2
 2003364:	180b883a 	mov	r5,r3
 2003368:	000d883a 	mov	r6,zero
 200336c:	000f883a 	mov	r7,zero
 2003370:	1027883a 	mov	r19,r2
 2003374:	182b883a 	mov	r21,r3
 2003378:	200b4d80 	call	200b4d8 <__eqdf2>
 200337c:	103f9926 	beq	r2,zero,20031e4 <_dtoa_r+0x6b8>
 2003380:	d8c00617 	ldw	r3,24(sp)
 2003384:	d9000717 	ldw	r4,28(sp)
 2003388:	b825883a 	mov	r18,r23
 200338c:	18bfffc4 	addi	r2,r3,-1
 2003390:	20ad883a 	add	r22,r4,r2
 2003394:	dc000315 	stw	r16,12(sp)
 2003398:	00000a06 	br	20033c4 <_dtoa_r+0x898>
 200339c:	200b71c0 	call	200b71c <__muldf3>
 20033a0:	1009883a 	mov	r4,r2
 20033a4:	180b883a 	mov	r5,r3
 20033a8:	000d883a 	mov	r6,zero
 20033ac:	000f883a 	mov	r7,zero
 20033b0:	1027883a 	mov	r19,r2
 20033b4:	182b883a 	mov	r21,r3
 20033b8:	b825883a 	mov	r18,r23
 20033bc:	200b4d80 	call	200b4d8 <__eqdf2>
 20033c0:	10022626 	beq	r2,zero,2003c5c <_dtoa_r+0x1130>
 20033c4:	880d883a 	mov	r6,r17
 20033c8:	a00f883a 	mov	r7,r20
 20033cc:	9809883a 	mov	r4,r19
 20033d0:	a80b883a 	mov	r5,r21
 20033d4:	200ac0c0 	call	200ac0c <__divdf3>
 20033d8:	180b883a 	mov	r5,r3
 20033dc:	1009883a 	mov	r4,r2
 20033e0:	200c7100 	call	200c710 <__fixdfsi>
 20033e4:	1009883a 	mov	r4,r2
 20033e8:	1021883a 	mov	r16,r2
 20033ec:	200c7980 	call	200c798 <__floatsidf>
 20033f0:	1009883a 	mov	r4,r2
 20033f4:	180b883a 	mov	r5,r3
 20033f8:	880d883a 	mov	r6,r17
 20033fc:	a00f883a 	mov	r7,r20
 2003400:	200b71c0 	call	200b71c <__muldf3>
 2003404:	9809883a 	mov	r4,r19
 2003408:	a80b883a 	mov	r5,r21
 200340c:	100d883a 	mov	r6,r2
 2003410:	180f883a 	mov	r7,r3
 2003414:	200be400 	call	200be40 <__subdf3>
 2003418:	82000c04 	addi	r8,r16,48
 200341c:	92000005 	stb	r8,0(r18)
 2003420:	1009883a 	mov	r4,r2
 2003424:	180b883a 	mov	r5,r3
 2003428:	000d883a 	mov	r6,zero
 200342c:	01d00934 	movhi	r7,16420
 2003430:	1011883a 	mov	r8,r2
 2003434:	bdc00044 	addi	r23,r23,1
 2003438:	95bfd81e 	bne	r18,r22,200339c <_dtoa_r+0x870>
 200343c:	802d883a 	mov	r22,r16
 2003440:	dc000317 	ldw	r16,12(sp)
 2003444:	4009883a 	mov	r4,r8
 2003448:	180b883a 	mov	r5,r3
 200344c:	400d883a 	mov	r6,r8
 2003450:	180f883a 	mov	r7,r3
 2003454:	200a3700 	call	200a370 <__adddf3>
 2003458:	8809883a 	mov	r4,r17
 200345c:	a00b883a 	mov	r5,r20
 2003460:	100d883a 	mov	r6,r2
 2003464:	180f883a 	mov	r7,r3
 2003468:	1027883a 	mov	r19,r2
 200346c:	1825883a 	mov	r18,r3
 2003470:	200b63c0 	call	200b63c <__ledf2>
 2003474:	10000816 	blt	r2,zero,2003498 <_dtoa_r+0x96c>
 2003478:	8809883a 	mov	r4,r17
 200347c:	a00b883a 	mov	r5,r20
 2003480:	980d883a 	mov	r6,r19
 2003484:	900f883a 	mov	r7,r18
 2003488:	200b4d80 	call	200b4d8 <__eqdf2>
 200348c:	103f551e 	bne	r2,zero,20031e4 <_dtoa_r+0x6b8>
 2003490:	b580004c 	andi	r22,r22,1
 2003494:	b03f5326 	beq	r22,zero,20031e4 <_dtoa_r+0x6b8>
 2003498:	bd7fffc3 	ldbu	r21,-1(r23)
 200349c:	b8bfffc4 	addi	r2,r23,-1
 20034a0:	1007883a 	mov	r3,r2
 20034a4:	01400e44 	movi	r5,57
 20034a8:	d9800717 	ldw	r6,28(sp)
 20034ac:	00000506 	br	20034c4 <_dtoa_r+0x998>
 20034b0:	18ffffc4 	addi	r3,r3,-1
 20034b4:	30825e26 	beq	r6,r2,2003e30 <_dtoa_r+0x1304>
 20034b8:	1d400003 	ldbu	r21,0(r3)
 20034bc:	102f883a 	mov	r23,r2
 20034c0:	10bfffc4 	addi	r2,r2,-1
 20034c4:	a9003fcc 	andi	r4,r21,255
 20034c8:	2100201c 	xori	r4,r4,128
 20034cc:	213fe004 	addi	r4,r4,-128
 20034d0:	217ff726 	beq	r4,r5,20034b0 <_dtoa_r+0x984>
 20034d4:	aa000044 	addi	r8,r21,1
 20034d8:	12000005 	stb	r8,0(r2)
 20034dc:	003f4106 	br	20031e4 <_dtoa_r+0x6b8>
 20034e0:	d8c00b17 	ldw	r3,44(sp)
 20034e4:	18006726 	beq	r3,zero,2003684 <_dtoa_r+0xb58>
 20034e8:	d9000317 	ldw	r4,12(sp)
 20034ec:	00c00044 	movi	r3,1
 20034f0:	19016a0e 	bge	r3,r4,2003a9c <_dtoa_r+0xf70>
 20034f4:	d8800617 	ldw	r2,24(sp)
 20034f8:	d8c00917 	ldw	r3,36(sp)
 20034fc:	157fffc4 	addi	r21,r2,-1
 2003500:	1d420716 	blt	r3,r21,2003d20 <_dtoa_r+0x11f4>
 2003504:	1d6bc83a 	sub	r21,r3,r21
 2003508:	d8800617 	ldw	r2,24(sp)
 200350c:	1002c716 	blt	r2,zero,200402c <_dtoa_r+0x1500>
 2003510:	dd000817 	ldw	r20,32(sp)
 2003514:	d8800617 	ldw	r2,24(sp)
 2003518:	d9800817 	ldw	r6,32(sp)
 200351c:	8009883a 	mov	r4,r16
 2003520:	01400044 	movi	r5,1
 2003524:	308d883a 	add	r6,r6,r2
 2003528:	d9800815 	stw	r6,32(sp)
 200352c:	b0ad883a 	add	r22,r22,r2
 2003530:	20065540 	call	2006554 <__i2b>
 2003534:	1023883a 	mov	r17,r2
 2003538:	a0000826 	beq	r20,zero,200355c <_dtoa_r+0xa30>
 200353c:	0580070e 	bge	zero,r22,200355c <_dtoa_r+0xa30>
 2003540:	b005883a 	mov	r2,r22
 2003544:	a5812016 	blt	r20,r22,20039c8 <_dtoa_r+0xe9c>
 2003548:	d8c00817 	ldw	r3,32(sp)
 200354c:	a0a9c83a 	sub	r20,r20,r2
 2003550:	b0adc83a 	sub	r22,r22,r2
 2003554:	1887c83a 	sub	r3,r3,r2
 2003558:	d8c00815 	stw	r3,32(sp)
 200355c:	d9000917 	ldw	r4,36(sp)
 2003560:	0100140e 	bge	zero,r4,20035b4 <_dtoa_r+0xa88>
 2003564:	d9800b17 	ldw	r6,44(sp)
 2003568:	3001e526 	beq	r6,zero,2003d00 <_dtoa_r+0x11d4>
 200356c:	05400e0e 	bge	zero,r21,20035a8 <_dtoa_r+0xa7c>
 2003570:	880b883a 	mov	r5,r17
 2003574:	8009883a 	mov	r4,r16
 2003578:	a80d883a 	mov	r6,r21
 200357c:	200678c0 	call	200678c <__pow5mult>
 2003580:	e00d883a 	mov	r6,fp
 2003584:	8009883a 	mov	r4,r16
 2003588:	100b883a 	mov	r5,r2
 200358c:	1023883a 	mov	r17,r2
 2003590:	20065900 	call	2006590 <__multiply>
 2003594:	102f883a 	mov	r23,r2
 2003598:	e00b883a 	mov	r5,fp
 200359c:	8009883a 	mov	r4,r16
 20035a0:	20061fc0 	call	20061fc <_Bfree>
 20035a4:	b839883a 	mov	fp,r23
 20035a8:	d8800917 	ldw	r2,36(sp)
 20035ac:	154dc83a 	sub	r6,r2,r21
 20035b0:	3001281e 	bne	r6,zero,2003a54 <_dtoa_r+0xf28>
 20035b4:	05c00044 	movi	r23,1
 20035b8:	8009883a 	mov	r4,r16
 20035bc:	b80b883a 	mov	r5,r23
 20035c0:	20065540 	call	2006554 <__i2b>
 20035c4:	d8c00a17 	ldw	r3,40(sp)
 20035c8:	102b883a 	mov	r21,r2
 20035cc:	00c0310e 	bge	zero,r3,2003694 <_dtoa_r+0xb68>
 20035d0:	8009883a 	mov	r4,r16
 20035d4:	100b883a 	mov	r5,r2
 20035d8:	180d883a 	mov	r6,r3
 20035dc:	200678c0 	call	200678c <__pow5mult>
 20035e0:	d9000317 	ldw	r4,12(sp)
 20035e4:	102b883a 	mov	r21,r2
 20035e8:	b9011f0e 	bge	r23,r4,2003a68 <_dtoa_r+0xf3c>
 20035ec:	0027883a 	mov	r19,zero
 20035f0:	a8800417 	ldw	r2,16(r21)
 20035f4:	10800104 	addi	r2,r2,4
 20035f8:	1085883a 	add	r2,r2,r2
 20035fc:	1085883a 	add	r2,r2,r2
 2003600:	a885883a 	add	r2,r21,r2
 2003604:	11000017 	ldw	r4,0(r2)
 2003608:	200643c0 	call	200643c <__hi0bits>
 200360c:	00c00804 	movi	r3,32
 2003610:	1885c83a 	sub	r2,r3,r2
 2003614:	00002506 	br	20036ac <_dtoa_r+0xb80>
 2003618:	01800044 	movi	r6,1
 200361c:	d9800c15 	stw	r6,48(sp)
 2003620:	003dec06 	br	2002dd4 <_dtoa_r+0x2a8>
 2003624:	d8c00817 	ldw	r3,32(sp)
 2003628:	d9000517 	ldw	r4,20(sp)
 200362c:	d8000a15 	stw	zero,40(sp)
 2003630:	1907c83a 	sub	r3,r3,r4
 2003634:	010dc83a 	sub	r6,zero,r4
 2003638:	d8c00815 	stw	r3,32(sp)
 200363c:	d9800915 	stw	r6,36(sp)
 2003640:	003ded06 	br	2002df8 <_dtoa_r+0x2cc>
 2003644:	05adc83a 	sub	r22,zero,r22
 2003648:	dd800815 	stw	r22,32(sp)
 200364c:	002d883a 	mov	r22,zero
 2003650:	003de406 	br	2002de4 <_dtoa_r+0x2b8>
 2003654:	d9000517 	ldw	r4,20(sp)
 2003658:	200c7980 	call	200c798 <__floatsidf>
 200365c:	1009883a 	mov	r4,r2
 2003660:	180b883a 	mov	r5,r3
 2003664:	b00d883a 	mov	r6,r22
 2003668:	a80f883a 	mov	r7,r21
 200366c:	200b4d80 	call	200b4d8 <__eqdf2>
 2003670:	103dc726 	beq	r2,zero,2002d90 <_dtoa_r+0x264>
 2003674:	d8800517 	ldw	r2,20(sp)
 2003678:	10bfffc4 	addi	r2,r2,-1
 200367c:	d8800515 	stw	r2,20(sp)
 2003680:	003dc306 	br	2002d90 <_dtoa_r+0x264>
 2003684:	dd400917 	ldw	r21,36(sp)
 2003688:	dd000817 	ldw	r20,32(sp)
 200368c:	0023883a 	mov	r17,zero
 2003690:	003fa906 	br	2003538 <_dtoa_r+0xa0c>
 2003694:	d9800317 	ldw	r6,12(sp)
 2003698:	b981670e 	bge	r23,r6,2003c38 <_dtoa_r+0x110c>
 200369c:	0027883a 	mov	r19,zero
 20036a0:	d8c00a17 	ldw	r3,40(sp)
 20036a4:	183fd21e 	bne	r3,zero,20035f0 <_dtoa_r+0xac4>
 20036a8:	00800044 	movi	r2,1
 20036ac:	1585883a 	add	r2,r2,r22
 20036b0:	108007cc 	andi	r2,r2,31
 20036b4:	10005f26 	beq	r2,zero,2003834 <_dtoa_r+0xd08>
 20036b8:	00c00804 	movi	r3,32
 20036bc:	1887c83a 	sub	r3,r3,r2
 20036c0:	01000104 	movi	r4,4
 20036c4:	20c2dd0e 	bge	r4,r3,200423c <_dtoa_r+0x1710>
 20036c8:	d9000817 	ldw	r4,32(sp)
 20036cc:	00c00704 	movi	r3,28
 20036d0:	1885c83a 	sub	r2,r3,r2
 20036d4:	2089883a 	add	r4,r4,r2
 20036d8:	d9000815 	stw	r4,32(sp)
 20036dc:	a0a9883a 	add	r20,r20,r2
 20036e0:	b0ad883a 	add	r22,r22,r2
 20036e4:	d8800817 	ldw	r2,32(sp)
 20036e8:	0080050e 	bge	zero,r2,2003700 <_dtoa_r+0xbd4>
 20036ec:	e00b883a 	mov	r5,fp
 20036f0:	8009883a 	mov	r4,r16
 20036f4:	100d883a 	mov	r6,r2
 20036f8:	20068cc0 	call	20068cc <__lshift>
 20036fc:	1039883a 	mov	fp,r2
 2003700:	0580050e 	bge	zero,r22,2003718 <_dtoa_r+0xbec>
 2003704:	a80b883a 	mov	r5,r21
 2003708:	8009883a 	mov	r4,r16
 200370c:	b00d883a 	mov	r6,r22
 2003710:	20068cc0 	call	20068cc <__lshift>
 2003714:	102b883a 	mov	r21,r2
 2003718:	d8c00c17 	ldw	r3,48(sp)
 200371c:	1801161e 	bne	r3,zero,2003b78 <_dtoa_r+0x104c>
 2003720:	d8c00617 	ldw	r3,24(sp)
 2003724:	00c12d0e 	bge	zero,r3,2003bdc <_dtoa_r+0x10b0>
 2003728:	d8c00b17 	ldw	r3,44(sp)
 200372c:	1800571e 	bne	r3,zero,200388c <_dtoa_r+0xd60>
 2003730:	dc800717 	ldw	r18,28(sp)
 2003734:	dcc00617 	ldw	r19,24(sp)
 2003738:	9029883a 	mov	r20,r18
 200373c:	00000206 	br	2003748 <_dtoa_r+0xc1c>
 2003740:	20062240 	call	2006224 <__multadd>
 2003744:	1039883a 	mov	fp,r2
 2003748:	e009883a 	mov	r4,fp
 200374c:	a80b883a 	mov	r5,r21
 2003750:	200292c0 	call	200292c <quorem>
 2003754:	10800c04 	addi	r2,r2,48
 2003758:	90800005 	stb	r2,0(r18)
 200375c:	94800044 	addi	r18,r18,1
 2003760:	9507c83a 	sub	r3,r18,r20
 2003764:	8009883a 	mov	r4,r16
 2003768:	e00b883a 	mov	r5,fp
 200376c:	01800284 	movi	r6,10
 2003770:	000f883a 	mov	r7,zero
 2003774:	1cfff216 	blt	r3,r19,2003740 <_dtoa_r+0xc14>
 2003778:	1011883a 	mov	r8,r2
 200377c:	d8800617 	ldw	r2,24(sp)
 2003780:	00822e0e 	bge	zero,r2,200403c <_dtoa_r+0x1510>
 2003784:	d9000717 	ldw	r4,28(sp)
 2003788:	0025883a 	mov	r18,zero
 200378c:	20af883a 	add	r23,r4,r2
 2003790:	e00b883a 	mov	r5,fp
 2003794:	01800044 	movi	r6,1
 2003798:	8009883a 	mov	r4,r16
 200379c:	da001715 	stw	r8,92(sp)
 20037a0:	20068cc0 	call	20068cc <__lshift>
 20037a4:	1009883a 	mov	r4,r2
 20037a8:	a80b883a 	mov	r5,r21
 20037ac:	1039883a 	mov	fp,r2
 20037b0:	2006a140 	call	2006a14 <__mcmp>
 20037b4:	da001717 	ldw	r8,92(sp)
 20037b8:	00816e0e 	bge	zero,r2,2003d74 <_dtoa_r+0x1248>
 20037bc:	b93fffc3 	ldbu	r4,-1(r23)
 20037c0:	b8bfffc4 	addi	r2,r23,-1
 20037c4:	1007883a 	mov	r3,r2
 20037c8:	01800e44 	movi	r6,57
 20037cc:	d9c00717 	ldw	r7,28(sp)
 20037d0:	00000506 	br	20037e8 <_dtoa_r+0xcbc>
 20037d4:	18ffffc4 	addi	r3,r3,-1
 20037d8:	38811926 	beq	r7,r2,2003c40 <_dtoa_r+0x1114>
 20037dc:	19000003 	ldbu	r4,0(r3)
 20037e0:	102f883a 	mov	r23,r2
 20037e4:	10bfffc4 	addi	r2,r2,-1
 20037e8:	21403fcc 	andi	r5,r4,255
 20037ec:	2940201c 	xori	r5,r5,128
 20037f0:	297fe004 	addi	r5,r5,-128
 20037f4:	29bff726 	beq	r5,r6,20037d4 <_dtoa_r+0xca8>
 20037f8:	21000044 	addi	r4,r4,1
 20037fc:	11000005 	stb	r4,0(r2)
 2003800:	8009883a 	mov	r4,r16
 2003804:	a80b883a 	mov	r5,r21
 2003808:	20061fc0 	call	20061fc <_Bfree>
 200380c:	883e7526 	beq	r17,zero,20031e4 <_dtoa_r+0x6b8>
 2003810:	90000426 	beq	r18,zero,2003824 <_dtoa_r+0xcf8>
 2003814:	94400326 	beq	r18,r17,2003824 <_dtoa_r+0xcf8>
 2003818:	8009883a 	mov	r4,r16
 200381c:	900b883a 	mov	r5,r18
 2003820:	20061fc0 	call	20061fc <_Bfree>
 2003824:	8009883a 	mov	r4,r16
 2003828:	880b883a 	mov	r5,r17
 200382c:	20061fc0 	call	20061fc <_Bfree>
 2003830:	003e6c06 	br	20031e4 <_dtoa_r+0x6b8>
 2003834:	00800704 	movi	r2,28
 2003838:	d9800817 	ldw	r6,32(sp)
 200383c:	a0a9883a 	add	r20,r20,r2
 2003840:	b0ad883a 	add	r22,r22,r2
 2003844:	308d883a 	add	r6,r6,r2
 2003848:	d9800815 	stw	r6,32(sp)
 200384c:	003fa506 	br	20036e4 <_dtoa_r+0xbb8>
 2003850:	013efb84 	movi	r4,-1042
 2003854:	246bc83a 	sub	r21,r4,r17
 2003858:	9548983a 	sll	r4,r18,r21
 200385c:	003d1806 	br	2002cc0 <_dtoa_r+0x194>
 2003860:	d8000c15 	stw	zero,48(sp)
 2003864:	003d5b06 	br	2002dd4 <_dtoa_r+0x2a8>
 2003868:	880b883a 	mov	r5,r17
 200386c:	8009883a 	mov	r4,r16
 2003870:	01800284 	movi	r6,10
 2003874:	000f883a 	mov	r7,zero
 2003878:	20062240 	call	2006224 <__multadd>
 200387c:	1023883a 	mov	r17,r2
 2003880:	d8800d17 	ldw	r2,52(sp)
 2003884:	0082550e 	bge	zero,r2,20041dc <_dtoa_r+0x16b0>
 2003888:	d8800615 	stw	r2,24(sp)
 200388c:	0500050e 	bge	zero,r20,20038a4 <_dtoa_r+0xd78>
 2003890:	880b883a 	mov	r5,r17
 2003894:	8009883a 	mov	r4,r16
 2003898:	a00d883a 	mov	r6,r20
 200389c:	20068cc0 	call	20068cc <__lshift>
 20038a0:	1023883a 	mov	r17,r2
 20038a4:	98016a1e 	bne	r19,zero,2003e50 <_dtoa_r+0x1324>
 20038a8:	8829883a 	mov	r20,r17
 20038ac:	d9000617 	ldw	r4,24(sp)
 20038b0:	dcc00717 	ldw	r19,28(sp)
 20038b4:	9480004c 	andi	r18,r18,1
 20038b8:	20bfffc4 	addi	r2,r4,-1
 20038bc:	9885883a 	add	r2,r19,r2
 20038c0:	d8800415 	stw	r2,16(sp)
 20038c4:	dc800615 	stw	r18,24(sp)
 20038c8:	e009883a 	mov	r4,fp
 20038cc:	a80b883a 	mov	r5,r21
 20038d0:	200292c0 	call	200292c <quorem>
 20038d4:	e009883a 	mov	r4,fp
 20038d8:	880b883a 	mov	r5,r17
 20038dc:	102f883a 	mov	r23,r2
 20038e0:	2006a140 	call	2006a14 <__mcmp>
 20038e4:	8009883a 	mov	r4,r16
 20038e8:	a80b883a 	mov	r5,r21
 20038ec:	a00d883a 	mov	r6,r20
 20038f0:	102d883a 	mov	r22,r2
 20038f4:	2006a740 	call	2006a74 <__mdiff>
 20038f8:	1007883a 	mov	r3,r2
 20038fc:	10800317 	ldw	r2,12(r2)
 2003900:	bc800c04 	addi	r18,r23,48
 2003904:	1000971e 	bne	r2,zero,2003b64 <_dtoa_r+0x1038>
 2003908:	180b883a 	mov	r5,r3
 200390c:	e009883a 	mov	r4,fp
 2003910:	d8c01515 	stw	r3,84(sp)
 2003914:	2006a140 	call	2006a14 <__mcmp>
 2003918:	d8c01517 	ldw	r3,84(sp)
 200391c:	8009883a 	mov	r4,r16
 2003920:	d8801515 	stw	r2,84(sp)
 2003924:	180b883a 	mov	r5,r3
 2003928:	20061fc0 	call	20061fc <_Bfree>
 200392c:	d8801517 	ldw	r2,84(sp)
 2003930:	1000041e 	bne	r2,zero,2003944 <_dtoa_r+0xe18>
 2003934:	d9800317 	ldw	r6,12(sp)
 2003938:	3000021e 	bne	r6,zero,2003944 <_dtoa_r+0xe18>
 200393c:	d8c00617 	ldw	r3,24(sp)
 2003940:	18007626 	beq	r3,zero,2003b1c <_dtoa_r+0xff0>
 2003944:	b0005b16 	blt	r22,zero,2003ab4 <_dtoa_r+0xf88>
 2003948:	b000041e 	bne	r22,zero,200395c <_dtoa_r+0xe30>
 200394c:	d9000317 	ldw	r4,12(sp)
 2003950:	2000021e 	bne	r4,zero,200395c <_dtoa_r+0xe30>
 2003954:	d8c00617 	ldw	r3,24(sp)
 2003958:	18005626 	beq	r3,zero,2003ab4 <_dtoa_r+0xf88>
 200395c:	00814d16 	blt	zero,r2,2003e94 <_dtoa_r+0x1368>
 2003960:	d8c00417 	ldw	r3,16(sp)
 2003964:	9d800044 	addi	r22,r19,1
 2003968:	9c800005 	stb	r18,0(r19)
 200396c:	b02f883a 	mov	r23,r22
 2003970:	98c14c26 	beq	r19,r3,2003ea4 <_dtoa_r+0x1378>
 2003974:	e00b883a 	mov	r5,fp
 2003978:	8009883a 	mov	r4,r16
 200397c:	01800284 	movi	r6,10
 2003980:	000f883a 	mov	r7,zero
 2003984:	20062240 	call	2006224 <__multadd>
 2003988:	1039883a 	mov	fp,r2
 200398c:	8d006d26 	beq	r17,r20,2003b44 <_dtoa_r+0x1018>
 2003990:	880b883a 	mov	r5,r17
 2003994:	01800284 	movi	r6,10
 2003998:	000f883a 	mov	r7,zero
 200399c:	8009883a 	mov	r4,r16
 20039a0:	20062240 	call	2006224 <__multadd>
 20039a4:	a00b883a 	mov	r5,r20
 20039a8:	8009883a 	mov	r4,r16
 20039ac:	01800284 	movi	r6,10
 20039b0:	000f883a 	mov	r7,zero
 20039b4:	1023883a 	mov	r17,r2
 20039b8:	20062240 	call	2006224 <__multadd>
 20039bc:	1029883a 	mov	r20,r2
 20039c0:	b027883a 	mov	r19,r22
 20039c4:	003fc006 	br	20038c8 <_dtoa_r+0xd9c>
 20039c8:	a005883a 	mov	r2,r20
 20039cc:	003ede06 	br	2003548 <_dtoa_r+0xa1c>
 20039d0:	01000044 	movi	r4,1
 20039d4:	d9000b15 	stw	r4,44(sp)
 20039d8:	d9802217 	ldw	r6,136(sp)
 20039dc:	0180dc0e 	bge	zero,r6,2003d50 <_dtoa_r+0x1224>
 20039e0:	3023883a 	mov	r17,r6
 20039e4:	d9800d15 	stw	r6,52(sp)
 20039e8:	d9800615 	stw	r6,24(sp)
 20039ec:	003d1e06 	br	2002e68 <_dtoa_r+0x33c>
 20039f0:	d8800617 	ldw	r2,24(sp)
 20039f4:	00be3716 	blt	zero,r2,20032d4 <_dtoa_r+0x7a8>
 20039f8:	1000be1e 	bne	r2,zero,2003cf4 <_dtoa_r+0x11c8>
 20039fc:	8809883a 	mov	r4,r17
 2003a00:	a00b883a 	mov	r5,r20
 2003a04:	000d883a 	mov	r6,zero
 2003a08:	01d00534 	movhi	r7,16404
 2003a0c:	200b71c0 	call	200b71c <__muldf3>
 2003a10:	1009883a 	mov	r4,r2
 2003a14:	180b883a 	mov	r5,r3
 2003a18:	900d883a 	mov	r6,r18
 2003a1c:	980f883a 	mov	r7,r19
 2003a20:	200b55c0 	call	200b55c <__gedf2>
 2003a24:	002b883a 	mov	r21,zero
 2003a28:	0023883a 	mov	r17,zero
 2003a2c:	10007a16 	blt	r2,zero,2003c18 <_dtoa_r+0x10ec>
 2003a30:	d9002217 	ldw	r4,136(sp)
 2003a34:	ddc00717 	ldw	r23,28(sp)
 2003a38:	0108303a 	nor	r4,zero,r4
 2003a3c:	d9000515 	stw	r4,20(sp)
 2003a40:	8009883a 	mov	r4,r16
 2003a44:	a80b883a 	mov	r5,r21
 2003a48:	20061fc0 	call	20061fc <_Bfree>
 2003a4c:	883f751e 	bne	r17,zero,2003824 <_dtoa_r+0xcf8>
 2003a50:	003de406 	br	20031e4 <_dtoa_r+0x6b8>
 2003a54:	e00b883a 	mov	r5,fp
 2003a58:	8009883a 	mov	r4,r16
 2003a5c:	200678c0 	call	200678c <__pow5mult>
 2003a60:	1039883a 	mov	fp,r2
 2003a64:	003ed306 	br	20035b4 <_dtoa_r+0xa88>
 2003a68:	903ee01e 	bne	r18,zero,20035ec <_dtoa_r+0xac0>
 2003a6c:	00800434 	movhi	r2,16
 2003a70:	10bfffc4 	addi	r2,r2,-1
 2003a74:	9884703a 	and	r2,r19,r2
 2003a78:	103f081e 	bne	r2,zero,200369c <_dtoa_r+0xb70>
 2003a7c:	9cdffc2c 	andhi	r19,r19,32752
 2003a80:	983f0626 	beq	r19,zero,200369c <_dtoa_r+0xb70>
 2003a84:	d8800817 	ldw	r2,32(sp)
 2003a88:	b5800044 	addi	r22,r22,1
 2003a8c:	04c00044 	movi	r19,1
 2003a90:	10800044 	addi	r2,r2,1
 2003a94:	d8800815 	stw	r2,32(sp)
 2003a98:	003f0106 	br	20036a0 <_dtoa_r+0xb74>
 2003a9c:	d9800f17 	ldw	r6,60(sp)
 2003aa0:	30016826 	beq	r6,zero,2004044 <_dtoa_r+0x1518>
 2003aa4:	10810cc4 	addi	r2,r2,1075
 2003aa8:	dd400917 	ldw	r21,36(sp)
 2003aac:	dd000817 	ldw	r20,32(sp)
 2003ab0:	003e9906 	br	2003518 <_dtoa_r+0x9ec>
 2003ab4:	9011883a 	mov	r8,r18
 2003ab8:	4007883a 	mov	r3,r8
 2003abc:	e02d883a 	mov	r22,fp
 2003ac0:	0080100e 	bge	zero,r2,2003b04 <_dtoa_r+0xfd8>
 2003ac4:	01800044 	movi	r6,1
 2003ac8:	8009883a 	mov	r4,r16
 2003acc:	e00b883a 	mov	r5,fp
 2003ad0:	da001515 	stw	r8,84(sp)
 2003ad4:	da001715 	stw	r8,92(sp)
 2003ad8:	20068cc0 	call	20068cc <__lshift>
 2003adc:	1009883a 	mov	r4,r2
 2003ae0:	a80b883a 	mov	r5,r21
 2003ae4:	102d883a 	mov	r22,r2
 2003ae8:	2006a140 	call	2006a14 <__mcmp>
 2003aec:	d8c01517 	ldw	r3,84(sp)
 2003af0:	da001717 	ldw	r8,92(sp)
 2003af4:	0081a50e 	bge	zero,r2,200418c <_dtoa_r+0x1660>
 2003af8:	00800e44 	movi	r2,57
 2003afc:	40817b26 	beq	r8,r2,20040ec <_dtoa_r+0x15c0>
 2003b00:	40c00044 	addi	r3,r8,1
 2003b04:	8825883a 	mov	r18,r17
 2003b08:	9dc00044 	addi	r23,r19,1
 2003b0c:	98c00005 	stb	r3,0(r19)
 2003b10:	a023883a 	mov	r17,r20
 2003b14:	b039883a 	mov	fp,r22
 2003b18:	003f3906 	br	2003800 <_dtoa_r+0xcd4>
 2003b1c:	00800e44 	movi	r2,57
 2003b20:	9011883a 	mov	r8,r18
 2003b24:	90817226 	beq	r18,r2,20040f0 <_dtoa_r+0x15c4>
 2003b28:	0580010e 	bge	zero,r22,2003b30 <_dtoa_r+0x1004>
 2003b2c:	ba000c44 	addi	r8,r23,49
 2003b30:	8825883a 	mov	r18,r17
 2003b34:	9dc00044 	addi	r23,r19,1
 2003b38:	9a000005 	stb	r8,0(r19)
 2003b3c:	a023883a 	mov	r17,r20
 2003b40:	003f2f06 	br	2003800 <_dtoa_r+0xcd4>
 2003b44:	880b883a 	mov	r5,r17
 2003b48:	8009883a 	mov	r4,r16
 2003b4c:	01800284 	movi	r6,10
 2003b50:	000f883a 	mov	r7,zero
 2003b54:	20062240 	call	2006224 <__multadd>
 2003b58:	1023883a 	mov	r17,r2
 2003b5c:	1029883a 	mov	r20,r2
 2003b60:	003f9706 	br	20039c0 <_dtoa_r+0xe94>
 2003b64:	8009883a 	mov	r4,r16
 2003b68:	180b883a 	mov	r5,r3
 2003b6c:	20061fc0 	call	20061fc <_Bfree>
 2003b70:	00800044 	movi	r2,1
 2003b74:	003f7306 	br	2003944 <_dtoa_r+0xe18>
 2003b78:	e009883a 	mov	r4,fp
 2003b7c:	a80b883a 	mov	r5,r21
 2003b80:	2006a140 	call	2006a14 <__mcmp>
 2003b84:	103ee60e 	bge	r2,zero,2003720 <_dtoa_r+0xbf4>
 2003b88:	8009883a 	mov	r4,r16
 2003b8c:	e00b883a 	mov	r5,fp
 2003b90:	01800284 	movi	r6,10
 2003b94:	000f883a 	mov	r7,zero
 2003b98:	20062240 	call	2006224 <__multadd>
 2003b9c:	d9000517 	ldw	r4,20(sp)
 2003ba0:	d9800b17 	ldw	r6,44(sp)
 2003ba4:	1039883a 	mov	fp,r2
 2003ba8:	213fffc4 	addi	r4,r4,-1
 2003bac:	d9000515 	stw	r4,20(sp)
 2003bb0:	303f2d1e 	bne	r6,zero,2003868 <_dtoa_r+0xd3c>
 2003bb4:	d9000d17 	ldw	r4,52(sp)
 2003bb8:	0101780e 	bge	zero,r4,200419c <_dtoa_r+0x1670>
 2003bbc:	d9000615 	stw	r4,24(sp)
 2003bc0:	003edb06 	br	2003730 <_dtoa_r+0xc04>
 2003bc4:	00800084 	movi	r2,2
 2003bc8:	30818e1e 	bne	r6,r2,2004204 <_dtoa_r+0x16d8>
 2003bcc:	d8000b15 	stw	zero,44(sp)
 2003bd0:	003f8106 	br	20039d8 <_dtoa_r+0xeac>
 2003bd4:	d8800717 	ldw	r2,28(sp)
 2003bd8:	003c0306 	br	2002be8 <_dtoa_r+0xbc>
 2003bdc:	d9000317 	ldw	r4,12(sp)
 2003be0:	00800084 	movi	r2,2
 2003be4:	113ed00e 	bge	r2,r4,2003728 <_dtoa_r+0xbfc>
 2003be8:	d8c00617 	ldw	r3,24(sp)
 2003bec:	183f901e 	bne	r3,zero,2003a30 <_dtoa_r+0xf04>
 2003bf0:	a80b883a 	mov	r5,r21
 2003bf4:	8009883a 	mov	r4,r16
 2003bf8:	01800144 	movi	r6,5
 2003bfc:	000f883a 	mov	r7,zero
 2003c00:	20062240 	call	2006224 <__multadd>
 2003c04:	e009883a 	mov	r4,fp
 2003c08:	100b883a 	mov	r5,r2
 2003c0c:	102b883a 	mov	r21,r2
 2003c10:	2006a140 	call	2006a14 <__mcmp>
 2003c14:	00bf860e 	bge	zero,r2,2003a30 <_dtoa_r+0xf04>
 2003c18:	d9800717 	ldw	r6,28(sp)
 2003c1c:	00800c44 	movi	r2,49
 2003c20:	30800005 	stb	r2,0(r6)
 2003c24:	d8800517 	ldw	r2,20(sp)
 2003c28:	35c00044 	addi	r23,r6,1
 2003c2c:	10800044 	addi	r2,r2,1
 2003c30:	d8800515 	stw	r2,20(sp)
 2003c34:	003f8206 	br	2003a40 <_dtoa_r+0xf14>
 2003c38:	903e981e 	bne	r18,zero,200369c <_dtoa_r+0xb70>
 2003c3c:	003f8b06 	br	2003a6c <_dtoa_r+0xf40>
 2003c40:	d9800517 	ldw	r6,20(sp)
 2003c44:	d8c00717 	ldw	r3,28(sp)
 2003c48:	00800c44 	movi	r2,49
 2003c4c:	31800044 	addi	r6,r6,1
 2003c50:	d9800515 	stw	r6,20(sp)
 2003c54:	18800005 	stb	r2,0(r3)
 2003c58:	003ee906 	br	2003800 <_dtoa_r+0xcd4>
 2003c5c:	dc000317 	ldw	r16,12(sp)
 2003c60:	003d6006 	br	20031e4 <_dtoa_r+0x6b8>
 2003c64:	8809883a 	mov	r4,r17
 2003c68:	200c7980 	call	200c798 <__floatsidf>
 2003c6c:	a009883a 	mov	r4,r20
 2003c70:	a80b883a 	mov	r5,r21
 2003c74:	100d883a 	mov	r6,r2
 2003c78:	180f883a 	mov	r7,r3
 2003c7c:	200b71c0 	call	200b71c <__muldf3>
 2003c80:	1009883a 	mov	r4,r2
 2003c84:	180b883a 	mov	r5,r3
 2003c88:	000d883a 	mov	r6,zero
 2003c8c:	01d00734 	movhi	r7,16412
 2003c90:	200a3700 	call	200a370 <__adddf3>
 2003c94:	1023883a 	mov	r17,r2
 2003c98:	00bf3034 	movhi	r2,64704
 2003c9c:	1885883a 	add	r2,r3,r2
 2003ca0:	d8800e15 	stw	r2,56(sp)
 2003ca4:	a009883a 	mov	r4,r20
 2003ca8:	a80b883a 	mov	r5,r21
 2003cac:	000d883a 	mov	r6,zero
 2003cb0:	01d00534 	movhi	r7,16404
 2003cb4:	200be400 	call	200be40 <__subdf3>
 2003cb8:	d9c00e17 	ldw	r7,56(sp)
 2003cbc:	1009883a 	mov	r4,r2
 2003cc0:	180b883a 	mov	r5,r3
 2003cc4:	880d883a 	mov	r6,r17
 2003cc8:	102b883a 	mov	r21,r2
 2003ccc:	1829883a 	mov	r20,r3
 2003cd0:	200b55c0 	call	200b55c <__gedf2>
 2003cd4:	00807716 	blt	zero,r2,2003eb4 <_dtoa_r+0x1388>
 2003cd8:	d8800e17 	ldw	r2,56(sp)
 2003cdc:	a809883a 	mov	r4,r21
 2003ce0:	a00b883a 	mov	r5,r20
 2003ce4:	11e0003c 	xorhi	r7,r2,32768
 2003ce8:	880d883a 	mov	r6,r17
 2003cec:	200b63c0 	call	200b63c <__ledf2>
 2003cf0:	103d6b0e 	bge	r2,zero,20032a0 <_dtoa_r+0x774>
 2003cf4:	002b883a 	mov	r21,zero
 2003cf8:	0023883a 	mov	r17,zero
 2003cfc:	003f4c06 	br	2003a30 <_dtoa_r+0xf04>
 2003d00:	d9800917 	ldw	r6,36(sp)
 2003d04:	e00b883a 	mov	r5,fp
 2003d08:	8009883a 	mov	r4,r16
 2003d0c:	200678c0 	call	200678c <__pow5mult>
 2003d10:	1039883a 	mov	fp,r2
 2003d14:	003e2706 	br	20035b4 <_dtoa_r+0xa88>
 2003d18:	d8000b15 	stw	zero,44(sp)
 2003d1c:	003c4906 	br	2002e44 <_dtoa_r+0x318>
 2003d20:	d9000917 	ldw	r4,36(sp)
 2003d24:	d9800a17 	ldw	r6,40(sp)
 2003d28:	dd400915 	stw	r21,36(sp)
 2003d2c:	a905c83a 	sub	r2,r21,r4
 2003d30:	308d883a 	add	r6,r6,r2
 2003d34:	d9800a15 	stw	r6,40(sp)
 2003d38:	002b883a 	mov	r21,zero
 2003d3c:	003df206 	br	2003508 <_dtoa_r+0x9dc>
 2003d40:	dc800e15 	stw	r18,56(sp)
 2003d44:	982b883a 	mov	r21,r19
 2003d48:	04400084 	movi	r17,2
 2003d4c:	003c7406 	br	2002f20 <_dtoa_r+0x3f4>
 2003d50:	04400044 	movi	r17,1
 2003d54:	dc400d15 	stw	r17,52(sp)
 2003d58:	dc400615 	stw	r17,24(sp)
 2003d5c:	dc402215 	stw	r17,136(sp)
 2003d60:	80001115 	stw	zero,68(r16)
 2003d64:	000b883a 	mov	r5,zero
 2003d68:	003c4a06 	br	2002e94 <_dtoa_r+0x368>
 2003d6c:	3023883a 	mov	r17,r6
 2003d70:	003ffb06 	br	2003d60 <_dtoa_r+0x1234>
 2003d74:	1000021e 	bne	r2,zero,2003d80 <_dtoa_r+0x1254>
 2003d78:	4200004c 	andi	r8,r8,1
 2003d7c:	403e8f1e 	bne	r8,zero,20037bc <_dtoa_r+0xc90>
 2003d80:	01000c04 	movi	r4,48
 2003d84:	00000106 	br	2003d8c <_dtoa_r+0x1260>
 2003d88:	102f883a 	mov	r23,r2
 2003d8c:	b8bfffc4 	addi	r2,r23,-1
 2003d90:	10c00007 	ldb	r3,0(r2)
 2003d94:	193ffc26 	beq	r3,r4,2003d88 <_dtoa_r+0x125c>
 2003d98:	003e9906 	br	2003800 <_dtoa_r+0xcd4>
 2003d9c:	d9000517 	ldw	r4,20(sp)
 2003da0:	012fc83a 	sub	r23,zero,r4
 2003da4:	b800ad26 	beq	r23,zero,200405c <_dtoa_r+0x1530>
 2003da8:	b88003cc 	andi	r2,r23,15
 2003dac:	100490fa 	slli	r2,r2,3
 2003db0:	00c08074 	movhi	r3,513
 2003db4:	18fca404 	addi	r3,r3,-3440
 2003db8:	1885883a 	add	r2,r3,r2
 2003dbc:	11800017 	ldw	r6,0(r2)
 2003dc0:	11c00117 	ldw	r7,4(r2)
 2003dc4:	b82fd13a 	srai	r23,r23,4
 2003dc8:	9009883a 	mov	r4,r18
 2003dcc:	980b883a 	mov	r5,r19
 2003dd0:	200b71c0 	call	200b71c <__muldf3>
 2003dd4:	1029883a 	mov	r20,r2
 2003dd8:	182b883a 	mov	r21,r3
 2003ddc:	b800f426 	beq	r23,zero,20041b0 <_dtoa_r+0x1684>
 2003de0:	02008074 	movhi	r8,513
 2003de4:	423c9a04 	addi	r8,r8,-3480
 2003de8:	8029883a 	mov	r20,r16
 2003dec:	04400084 	movi	r17,2
 2003df0:	4021883a 	mov	r16,r8
 2003df4:	b980004c 	andi	r6,r23,1
 2003df8:	1009883a 	mov	r4,r2
 2003dfc:	b82fd07a 	srai	r23,r23,1
 2003e00:	180b883a 	mov	r5,r3
 2003e04:	30000426 	beq	r6,zero,2003e18 <_dtoa_r+0x12ec>
 2003e08:	81800017 	ldw	r6,0(r16)
 2003e0c:	81c00117 	ldw	r7,4(r16)
 2003e10:	8c400044 	addi	r17,r17,1
 2003e14:	200b71c0 	call	200b71c <__muldf3>
 2003e18:	84000204 	addi	r16,r16,8
 2003e1c:	b83ff51e 	bne	r23,zero,2003df4 <_dtoa_r+0x12c8>
 2003e20:	a021883a 	mov	r16,r20
 2003e24:	182b883a 	mov	r21,r3
 2003e28:	1029883a 	mov	r20,r2
 2003e2c:	003c5506 	br	2002f84 <_dtoa_r+0x458>
 2003e30:	d9800517 	ldw	r6,20(sp)
 2003e34:	d9000717 	ldw	r4,28(sp)
 2003e38:	00c00c04 	movi	r3,48
 2003e3c:	31800044 	addi	r6,r6,1
 2003e40:	d9800515 	stw	r6,20(sp)
 2003e44:	20c00005 	stb	r3,0(r4)
 2003e48:	02000c44 	movi	r8,49
 2003e4c:	003da206 	br	20034d8 <_dtoa_r+0x9ac>
 2003e50:	89400117 	ldw	r5,4(r17)
 2003e54:	8009883a 	mov	r4,r16
 2003e58:	20061540 	call	2006154 <_Balloc>
 2003e5c:	89800417 	ldw	r6,16(r17)
 2003e60:	11000304 	addi	r4,r2,12
 2003e64:	89400304 	addi	r5,r17,12
 2003e68:	31800084 	addi	r6,r6,2
 2003e6c:	318d883a 	add	r6,r6,r6
 2003e70:	318d883a 	add	r6,r6,r6
 2003e74:	1027883a 	mov	r19,r2
 2003e78:	2005d9c0 	call	2005d9c <memcpy>
 2003e7c:	8009883a 	mov	r4,r16
 2003e80:	980b883a 	mov	r5,r19
 2003e84:	01800044 	movi	r6,1
 2003e88:	20068cc0 	call	20068cc <__lshift>
 2003e8c:	1029883a 	mov	r20,r2
 2003e90:	003e8606 	br	20038ac <_dtoa_r+0xd80>
 2003e94:	00800e44 	movi	r2,57
 2003e98:	90809526 	beq	r18,r2,20040f0 <_dtoa_r+0x15c4>
 2003e9c:	92000044 	addi	r8,r18,1
 2003ea0:	003f2306 	br	2003b30 <_dtoa_r+0x1004>
 2003ea4:	9011883a 	mov	r8,r18
 2003ea8:	8825883a 	mov	r18,r17
 2003eac:	a023883a 	mov	r17,r20
 2003eb0:	003e3706 	br	2003790 <_dtoa_r+0xc64>
 2003eb4:	002b883a 	mov	r21,zero
 2003eb8:	0023883a 	mov	r17,zero
 2003ebc:	003f5606 	br	2003c18 <_dtoa_r+0x10ec>
 2003ec0:	51bfffc4 	addi	r6,r10,-1
 2003ec4:	300490fa 	slli	r2,r6,3
 2003ec8:	00c08074 	movhi	r3,513
 2003ecc:	18fca404 	addi	r3,r3,-3440
 2003ed0:	1885883a 	add	r2,r3,r2
 2003ed4:	d9c00e17 	ldw	r7,56(sp)
 2003ed8:	11000017 	ldw	r4,0(r2)
 2003edc:	11400117 	ldw	r5,4(r2)
 2003ee0:	d8800717 	ldw	r2,28(sp)
 2003ee4:	d9801015 	stw	r6,64(sp)
 2003ee8:	880d883a 	mov	r6,r17
 2003eec:	da801615 	stw	r10,88(sp)
 2003ef0:	15c00044 	addi	r23,r2,1
 2003ef4:	200b71c0 	call	200b71c <__muldf3>
 2003ef8:	a80b883a 	mov	r5,r21
 2003efc:	a009883a 	mov	r4,r20
 2003f00:	d8c01115 	stw	r3,68(sp)
 2003f04:	d8800e15 	stw	r2,56(sp)
 2003f08:	200c7100 	call	200c710 <__fixdfsi>
 2003f0c:	1009883a 	mov	r4,r2
 2003f10:	1023883a 	mov	r17,r2
 2003f14:	200c7980 	call	200c798 <__floatsidf>
 2003f18:	a009883a 	mov	r4,r20
 2003f1c:	a80b883a 	mov	r5,r21
 2003f20:	100d883a 	mov	r6,r2
 2003f24:	180f883a 	mov	r7,r3
 2003f28:	200be400 	call	200be40 <__subdf3>
 2003f2c:	1813883a 	mov	r9,r3
 2003f30:	d8c00717 	ldw	r3,28(sp)
 2003f34:	8c400c04 	addi	r17,r17,48
 2003f38:	1011883a 	mov	r8,r2
 2003f3c:	1c400005 	stb	r17,0(r3)
 2003f40:	da801617 	ldw	r10,88(sp)
 2003f44:	00800044 	movi	r2,1
 2003f48:	50802326 	beq	r10,r2,2003fd8 <_dtoa_r+0x14ac>
 2003f4c:	d8800717 	ldw	r2,28(sp)
 2003f50:	b82b883a 	mov	r21,r23
 2003f54:	dc001315 	stw	r16,76(sp)
 2003f58:	12a9883a 	add	r20,r2,r10
 2003f5c:	4807883a 	mov	r3,r9
 2003f60:	4005883a 	mov	r2,r8
 2003f64:	dc801415 	stw	r18,80(sp)
 2003f68:	000d883a 	mov	r6,zero
 2003f6c:	01d00934 	movhi	r7,16420
 2003f70:	1009883a 	mov	r4,r2
 2003f74:	180b883a 	mov	r5,r3
 2003f78:	200b71c0 	call	200b71c <__muldf3>
 2003f7c:	180b883a 	mov	r5,r3
 2003f80:	1009883a 	mov	r4,r2
 2003f84:	1821883a 	mov	r16,r3
 2003f88:	1025883a 	mov	r18,r2
 2003f8c:	200c7100 	call	200c710 <__fixdfsi>
 2003f90:	1009883a 	mov	r4,r2
 2003f94:	1023883a 	mov	r17,r2
 2003f98:	200c7980 	call	200c798 <__floatsidf>
 2003f9c:	9009883a 	mov	r4,r18
 2003fa0:	800b883a 	mov	r5,r16
 2003fa4:	100d883a 	mov	r6,r2
 2003fa8:	180f883a 	mov	r7,r3
 2003fac:	8c400c04 	addi	r17,r17,48
 2003fb0:	200be400 	call	200be40 <__subdf3>
 2003fb4:	ad400044 	addi	r21,r21,1
 2003fb8:	ac7fffc5 	stb	r17,-1(r21)
 2003fbc:	ad3fea1e 	bne	r21,r20,2003f68 <_dtoa_r+0x143c>
 2003fc0:	1813883a 	mov	r9,r3
 2003fc4:	d8c01017 	ldw	r3,64(sp)
 2003fc8:	dc001317 	ldw	r16,76(sp)
 2003fcc:	dc801417 	ldw	r18,80(sp)
 2003fd0:	1011883a 	mov	r8,r2
 2003fd4:	b8ef883a 	add	r23,r23,r3
 2003fd8:	d9000e17 	ldw	r4,56(sp)
 2003fdc:	d9401117 	ldw	r5,68(sp)
 2003fe0:	000d883a 	mov	r6,zero
 2003fe4:	01cff834 	movhi	r7,16352
 2003fe8:	da001715 	stw	r8,92(sp)
 2003fec:	da401515 	stw	r9,84(sp)
 2003ff0:	200a3700 	call	200a370 <__adddf3>
 2003ff4:	da001717 	ldw	r8,92(sp)
 2003ff8:	da401517 	ldw	r9,84(sp)
 2003ffc:	1009883a 	mov	r4,r2
 2004000:	400d883a 	mov	r6,r8
 2004004:	480f883a 	mov	r7,r9
 2004008:	180b883a 	mov	r5,r3
 200400c:	200b63c0 	call	200b63c <__ledf2>
 2004010:	da001717 	ldw	r8,92(sp)
 2004014:	da401517 	ldw	r9,84(sp)
 2004018:	10003b0e 	bge	r2,zero,2004108 <_dtoa_r+0x15dc>
 200401c:	d9001217 	ldw	r4,72(sp)
 2004020:	bd7fffc3 	ldbu	r21,-1(r23)
 2004024:	d9000515 	stw	r4,20(sp)
 2004028:	003d1c06 	br	200349c <_dtoa_r+0x970>
 200402c:	d8c00817 	ldw	r3,32(sp)
 2004030:	18a9c83a 	sub	r20,r3,r2
 2004034:	0005883a 	mov	r2,zero
 2004038:	003d3706 	br	2003518 <_dtoa_r+0x9ec>
 200403c:	00800044 	movi	r2,1
 2004040:	003dd006 	br	2003784 <_dtoa_r+0xc58>
 2004044:	d8c00217 	ldw	r3,8(sp)
 2004048:	00800d84 	movi	r2,54
 200404c:	dd400917 	ldw	r21,36(sp)
 2004050:	10c5c83a 	sub	r2,r2,r3
 2004054:	dd000817 	ldw	r20,32(sp)
 2004058:	003d2f06 	br	2003518 <_dtoa_r+0x9ec>
 200405c:	9029883a 	mov	r20,r18
 2004060:	982b883a 	mov	r21,r19
 2004064:	04400084 	movi	r17,2
 2004068:	003bc606 	br	2002f84 <_dtoa_r+0x458>
 200406c:	d8800617 	ldw	r2,24(sp)
 2004070:	103efc26 	beq	r2,zero,2003c64 <_dtoa_r+0x1138>
 2004074:	d8c00d17 	ldw	r3,52(sp)
 2004078:	00fc890e 	bge	zero,r3,20032a0 <_dtoa_r+0x774>
 200407c:	a80b883a 	mov	r5,r21
 2004080:	a009883a 	mov	r4,r20
 2004084:	000d883a 	mov	r6,zero
 2004088:	01d00934 	movhi	r7,16420
 200408c:	200b71c0 	call	200b71c <__muldf3>
 2004090:	89000044 	addi	r4,r17,1
 2004094:	1029883a 	mov	r20,r2
 2004098:	182b883a 	mov	r21,r3
 200409c:	200c7980 	call	200c798 <__floatsidf>
 20040a0:	a009883a 	mov	r4,r20
 20040a4:	a80b883a 	mov	r5,r21
 20040a8:	100d883a 	mov	r6,r2
 20040ac:	180f883a 	mov	r7,r3
 20040b0:	200b71c0 	call	200b71c <__muldf3>
 20040b4:	1009883a 	mov	r4,r2
 20040b8:	180b883a 	mov	r5,r3
 20040bc:	000d883a 	mov	r6,zero
 20040c0:	01d00734 	movhi	r7,16412
 20040c4:	200a3700 	call	200a370 <__adddf3>
 20040c8:	d9000517 	ldw	r4,20(sp)
 20040cc:	1023883a 	mov	r17,r2
 20040d0:	00bf3034 	movhi	r2,64704
 20040d4:	213fffc4 	addi	r4,r4,-1
 20040d8:	1885883a 	add	r2,r3,r2
 20040dc:	d9001215 	stw	r4,72(sp)
 20040e0:	d8800e15 	stw	r2,56(sp)
 20040e4:	da800d17 	ldw	r10,52(sp)
 20040e8:	003bc306 	br	2002ff8 <_dtoa_r+0x4cc>
 20040ec:	b039883a 	mov	fp,r22
 20040f0:	01000e44 	movi	r4,57
 20040f4:	8825883a 	mov	r18,r17
 20040f8:	9dc00044 	addi	r23,r19,1
 20040fc:	99000005 	stb	r4,0(r19)
 2004100:	a023883a 	mov	r17,r20
 2004104:	003dae06 	br	20037c0 <_dtoa_r+0xc94>
 2004108:	d9800e17 	ldw	r6,56(sp)
 200410c:	d9c01117 	ldw	r7,68(sp)
 2004110:	0009883a 	mov	r4,zero
 2004114:	014ff834 	movhi	r5,16352
 2004118:	da001715 	stw	r8,92(sp)
 200411c:	da401515 	stw	r9,84(sp)
 2004120:	200be400 	call	200be40 <__subdf3>
 2004124:	da001717 	ldw	r8,92(sp)
 2004128:	da401517 	ldw	r9,84(sp)
 200412c:	1009883a 	mov	r4,r2
 2004130:	180b883a 	mov	r5,r3
 2004134:	400d883a 	mov	r6,r8
 2004138:	480f883a 	mov	r7,r9
 200413c:	200b55c0 	call	200b55c <__gedf2>
 2004140:	00bc570e 	bge	zero,r2,20032a0 <_dtoa_r+0x774>
 2004144:	01000c04 	movi	r4,48
 2004148:	00000106 	br	2004150 <_dtoa_r+0x1624>
 200414c:	102f883a 	mov	r23,r2
 2004150:	b8bfffc4 	addi	r2,r23,-1
 2004154:	10c00007 	ldb	r3,0(r2)
 2004158:	193ffc26 	beq	r3,r4,200414c <_dtoa_r+0x1620>
 200415c:	d9801217 	ldw	r6,72(sp)
 2004160:	d9800515 	stw	r6,20(sp)
 2004164:	003c1f06 	br	20031e4 <_dtoa_r+0x6b8>
 2004168:	d8801217 	ldw	r2,72(sp)
 200416c:	dc001117 	ldw	r16,68(sp)
 2004170:	d8800515 	stw	r2,20(sp)
 2004174:	003cc906 	br	200349c <_dtoa_r+0x970>
 2004178:	dd801317 	ldw	r22,76(sp)
 200417c:	dc001117 	ldw	r16,68(sp)
 2004180:	dcc01417 	ldw	r19,80(sp)
 2004184:	dc801017 	ldw	r18,64(sp)
 2004188:	003c4506 	br	20032a0 <_dtoa_r+0x774>
 200418c:	103e5d1e 	bne	r2,zero,2003b04 <_dtoa_r+0xfd8>
 2004190:	4080004c 	andi	r2,r8,1
 2004194:	103e5b26 	beq	r2,zero,2003b04 <_dtoa_r+0xfd8>
 2004198:	003e5706 	br	2003af8 <_dtoa_r+0xfcc>
 200419c:	d8c00317 	ldw	r3,12(sp)
 20041a0:	00800084 	movi	r2,2
 20041a4:	10c00a16 	blt	r2,r3,20041d0 <_dtoa_r+0x16a4>
 20041a8:	d9000d17 	ldw	r4,52(sp)
 20041ac:	003e8306 	br	2003bbc <_dtoa_r+0x1090>
 20041b0:	04400084 	movi	r17,2
 20041b4:	003b7306 	br	2002f84 <_dtoa_r+0x458>
 20041b8:	d9801217 	ldw	r6,72(sp)
 20041bc:	d9800515 	stw	r6,20(sp)
 20041c0:	003cb606 	br	200349c <_dtoa_r+0x970>
 20041c4:	d9001217 	ldw	r4,72(sp)
 20041c8:	d9000515 	stw	r4,20(sp)
 20041cc:	003c0506 	br	20031e4 <_dtoa_r+0x6b8>
 20041d0:	d9800d17 	ldw	r6,52(sp)
 20041d4:	d9800615 	stw	r6,24(sp)
 20041d8:	003e8306 	br	2003be8 <_dtoa_r+0x10bc>
 20041dc:	d9800317 	ldw	r6,12(sp)
 20041e0:	00800084 	movi	r2,2
 20041e4:	11800216 	blt	r2,r6,20041f0 <_dtoa_r+0x16c4>
 20041e8:	d8800d17 	ldw	r2,52(sp)
 20041ec:	003da606 	br	2003888 <_dtoa_r+0xd5c>
 20041f0:	d8800d17 	ldw	r2,52(sp)
 20041f4:	d8800615 	stw	r2,24(sp)
 20041f8:	003e7b06 	br	2003be8 <_dtoa_r+0x10bc>
 20041fc:	05000044 	movi	r20,1
 2004200:	003b0506 	br	2002e18 <_dtoa_r+0x2ec>
 2004204:	8009883a 	mov	r4,r16
 2004208:	80001115 	stw	zero,68(r16)
 200420c:	000b883a 	mov	r5,zero
 2004210:	20061540 	call	2006154 <_Balloc>
 2004214:	d8800715 	stw	r2,28(sp)
 2004218:	d8c00717 	ldw	r3,28(sp)
 200421c:	00bfffc4 	movi	r2,-1
 2004220:	01000044 	movi	r4,1
 2004224:	d8800615 	stw	r2,24(sp)
 2004228:	80c01015 	stw	r3,64(r16)
 200422c:	d9000b15 	stw	r4,44(sp)
 2004230:	d8002215 	stw	zero,136(sp)
 2004234:	d8800d15 	stw	r2,52(sp)
 2004238:	003c1906 	br	20032a0 <_dtoa_r+0x774>
 200423c:	193d2926 	beq	r3,r4,20036e4 <_dtoa_r+0xbb8>
 2004240:	00c00f04 	movi	r3,60
 2004244:	1885c83a 	sub	r2,r3,r2
 2004248:	003d7b06 	br	2003838 <_dtoa_r+0xd0c>
 200424c:	000b883a 	mov	r5,zero
 2004250:	003b1006 	br	2002e94 <_dtoa_r+0x368>

02004254 <_fflush_r>:
 2004254:	defffb04 	addi	sp,sp,-20
 2004258:	dcc00315 	stw	r19,12(sp)
 200425c:	dc000015 	stw	r16,0(sp)
 2004260:	dfc00415 	stw	ra,16(sp)
 2004264:	dc800215 	stw	r18,8(sp)
 2004268:	dc400115 	stw	r17,4(sp)
 200426c:	2027883a 	mov	r19,r4
 2004270:	2821883a 	mov	r16,r5
 2004274:	20000226 	beq	r4,zero,2004280 <_fflush_r+0x2c>
 2004278:	20800e17 	ldw	r2,56(r4)
 200427c:	10005326 	beq	r2,zero,20043cc <_fflush_r+0x178>
 2004280:	8080030b 	ldhu	r2,12(r16)
 2004284:	10ffffcc 	andi	r3,r2,65535
 2004288:	18e0001c 	xori	r3,r3,32768
 200428c:	18e00004 	addi	r3,r3,-32768
 2004290:	18002c26 	beq	r3,zero,2004344 <_fflush_r+0xf0>
 2004294:	10c0020c 	andi	r3,r2,8
 2004298:	1800321e 	bne	r3,zero,2004364 <_fflush_r+0x110>
 200429c:	80c00117 	ldw	r3,4(r16)
 20042a0:	10820014 	ori	r2,r2,2048
 20042a4:	8080030d 	sth	r2,12(r16)
 20042a8:	00c0570e 	bge	zero,r3,2004408 <_fflush_r+0x1b4>
 20042ac:	82000a17 	ldw	r8,40(r16)
 20042b0:	40002426 	beq	r8,zero,2004344 <_fflush_r+0xf0>
 20042b4:	9c400017 	ldw	r17,0(r19)
 20042b8:	10c4000c 	andi	r3,r2,4096
 20042bc:	98000015 	stw	zero,0(r19)
 20042c0:	18004626 	beq	r3,zero,20043dc <_fflush_r+0x188>
 20042c4:	81801417 	ldw	r6,80(r16)
 20042c8:	10c0010c 	andi	r3,r2,4
 20042cc:	18000626 	beq	r3,zero,20042e8 <_fflush_r+0x94>
 20042d0:	80c00117 	ldw	r3,4(r16)
 20042d4:	80800c17 	ldw	r2,48(r16)
 20042d8:	30cdc83a 	sub	r6,r6,r3
 20042dc:	10000226 	beq	r2,zero,20042e8 <_fflush_r+0x94>
 20042e0:	80800f17 	ldw	r2,60(r16)
 20042e4:	308dc83a 	sub	r6,r6,r2
 20042e8:	81400717 	ldw	r5,28(r16)
 20042ec:	9809883a 	mov	r4,r19
 20042f0:	000f883a 	mov	r7,zero
 20042f4:	403ee83a 	callr	r8
 20042f8:	00ffffc4 	movi	r3,-1
 20042fc:	10c04526 	beq	r2,r3,2004414 <_fflush_r+0x1c0>
 2004300:	80c0030b 	ldhu	r3,12(r16)
 2004304:	81000417 	ldw	r4,16(r16)
 2004308:	80000115 	stw	zero,4(r16)
 200430c:	197dffcc 	andi	r5,r3,63487
 2004310:	8140030d 	sth	r5,12(r16)
 2004314:	81000015 	stw	r4,0(r16)
 2004318:	18c4000c 	andi	r3,r3,4096
 200431c:	18000126 	beq	r3,zero,2004324 <_fflush_r+0xd0>
 2004320:	80801415 	stw	r2,80(r16)
 2004324:	81400c17 	ldw	r5,48(r16)
 2004328:	9c400015 	stw	r17,0(r19)
 200432c:	28000526 	beq	r5,zero,2004344 <_fflush_r+0xf0>
 2004330:	80801004 	addi	r2,r16,64
 2004334:	28800226 	beq	r5,r2,2004340 <_fflush_r+0xec>
 2004338:	9809883a 	mov	r4,r19
 200433c:	20049700 	call	2004970 <_free_r>
 2004340:	80000c15 	stw	zero,48(r16)
 2004344:	0005883a 	mov	r2,zero
 2004348:	dfc00417 	ldw	ra,16(sp)
 200434c:	dcc00317 	ldw	r19,12(sp)
 2004350:	dc800217 	ldw	r18,8(sp)
 2004354:	dc400117 	ldw	r17,4(sp)
 2004358:	dc000017 	ldw	r16,0(sp)
 200435c:	dec00504 	addi	sp,sp,20
 2004360:	f800283a 	ret
 2004364:	84800417 	ldw	r18,16(r16)
 2004368:	903ff626 	beq	r18,zero,2004344 <_fflush_r+0xf0>
 200436c:	84400017 	ldw	r17,0(r16)
 2004370:	108000cc 	andi	r2,r2,3
 2004374:	84800015 	stw	r18,0(r16)
 2004378:	8ca3c83a 	sub	r17,r17,r18
 200437c:	10001526 	beq	r2,zero,20043d4 <_fflush_r+0x180>
 2004380:	0005883a 	mov	r2,zero
 2004384:	80800215 	stw	r2,8(r16)
 2004388:	04400316 	blt	zero,r17,2004398 <_fflush_r+0x144>
 200438c:	003fed06 	br	2004344 <_fflush_r+0xf0>
 2004390:	90a5883a 	add	r18,r18,r2
 2004394:	047feb0e 	bge	zero,r17,2004344 <_fflush_r+0xf0>
 2004398:	80800917 	ldw	r2,36(r16)
 200439c:	81400717 	ldw	r5,28(r16)
 20043a0:	880f883a 	mov	r7,r17
 20043a4:	900d883a 	mov	r6,r18
 20043a8:	9809883a 	mov	r4,r19
 20043ac:	103ee83a 	callr	r2
 20043b0:	88a3c83a 	sub	r17,r17,r2
 20043b4:	00bff616 	blt	zero,r2,2004390 <_fflush_r+0x13c>
 20043b8:	80c0030b 	ldhu	r3,12(r16)
 20043bc:	00bfffc4 	movi	r2,-1
 20043c0:	18c01014 	ori	r3,r3,64
 20043c4:	80c0030d 	sth	r3,12(r16)
 20043c8:	003fdf06 	br	2004348 <_fflush_r+0xf4>
 20043cc:	20047fc0 	call	20047fc <__sinit>
 20043d0:	003fab06 	br	2004280 <_fflush_r+0x2c>
 20043d4:	80800517 	ldw	r2,20(r16)
 20043d8:	003fea06 	br	2004384 <_fflush_r+0x130>
 20043dc:	81400717 	ldw	r5,28(r16)
 20043e0:	000d883a 	mov	r6,zero
 20043e4:	9809883a 	mov	r4,r19
 20043e8:	01c00044 	movi	r7,1
 20043ec:	403ee83a 	callr	r8
 20043f0:	100d883a 	mov	r6,r2
 20043f4:	00bfffc4 	movi	r2,-1
 20043f8:	30801326 	beq	r6,r2,2004448 <_fflush_r+0x1f4>
 20043fc:	8080030b 	ldhu	r2,12(r16)
 2004400:	82000a17 	ldw	r8,40(r16)
 2004404:	003fb006 	br	20042c8 <_fflush_r+0x74>
 2004408:	80c00f17 	ldw	r3,60(r16)
 200440c:	00ffa716 	blt	zero,r3,20042ac <_fflush_r+0x58>
 2004410:	003fcc06 	br	2004344 <_fflush_r+0xf0>
 2004414:	98c00017 	ldw	r3,0(r19)
 2004418:	183fb926 	beq	r3,zero,2004300 <_fflush_r+0xac>
 200441c:	01000744 	movi	r4,29
 2004420:	19000226 	beq	r3,r4,200442c <_fflush_r+0x1d8>
 2004424:	01000584 	movi	r4,22
 2004428:	1900101e 	bne	r3,r4,200446c <_fflush_r+0x218>
 200442c:	8080030b 	ldhu	r2,12(r16)
 2004430:	80c00417 	ldw	r3,16(r16)
 2004434:	80000115 	stw	zero,4(r16)
 2004438:	10bdffcc 	andi	r2,r2,63487
 200443c:	8080030d 	sth	r2,12(r16)
 2004440:	80c00015 	stw	r3,0(r16)
 2004444:	003fb706 	br	2004324 <_fflush_r+0xd0>
 2004448:	98800017 	ldw	r2,0(r19)
 200444c:	103feb26 	beq	r2,zero,20043fc <_fflush_r+0x1a8>
 2004450:	00c00744 	movi	r3,29
 2004454:	10c00226 	beq	r2,r3,2004460 <_fflush_r+0x20c>
 2004458:	00c00584 	movi	r3,22
 200445c:	10ffd61e 	bne	r2,r3,20043b8 <_fflush_r+0x164>
 2004460:	9c400015 	stw	r17,0(r19)
 2004464:	0005883a 	mov	r2,zero
 2004468:	003fb706 	br	2004348 <_fflush_r+0xf4>
 200446c:	80c0030b 	ldhu	r3,12(r16)
 2004470:	18c01014 	ori	r3,r3,64
 2004474:	80c0030d 	sth	r3,12(r16)
 2004478:	003fb306 	br	2004348 <_fflush_r+0xf4>

0200447c <fflush>:
 200447c:	20000526 	beq	r4,zero,2004494 <fflush+0x18>
 2004480:	00808074 	movhi	r2,513
 2004484:	10839504 	addi	r2,r2,3668
 2004488:	200b883a 	mov	r5,r4
 200448c:	11000017 	ldw	r4,0(r2)
 2004490:	20042541 	jmpi	2004254 <_fflush_r>
 2004494:	00808074 	movhi	r2,513
 2004498:	10839404 	addi	r2,r2,3664
 200449c:	11000017 	ldw	r4,0(r2)
 20044a0:	01408034 	movhi	r5,512
 20044a4:	29509504 	addi	r5,r5,16980
 20044a8:	20051bc1 	jmpi	20051bc <_fwalk_reent>

020044ac <__fp_lock>:
 20044ac:	0005883a 	mov	r2,zero
 20044b0:	f800283a 	ret

020044b4 <__fp_unlock>:
 20044b4:	0005883a 	mov	r2,zero
 20044b8:	f800283a 	ret

020044bc <_cleanup_r>:
 20044bc:	01408074 	movhi	r5,513
 20044c0:	29640c04 	addi	r5,r5,-28624
 20044c4:	20051041 	jmpi	2005104 <_fwalk>

020044c8 <__sinit.part.1>:
 20044c8:	defff604 	addi	sp,sp,-40
 20044cc:	00c08034 	movhi	r3,512
 20044d0:	dfc00915 	stw	ra,36(sp)
 20044d4:	df000815 	stw	fp,32(sp)
 20044d8:	ddc00715 	stw	r23,28(sp)
 20044dc:	dd800615 	stw	r22,24(sp)
 20044e0:	dd400515 	stw	r21,20(sp)
 20044e4:	dd000415 	stw	r20,16(sp)
 20044e8:	dcc00315 	stw	r19,12(sp)
 20044ec:	dc800215 	stw	r18,8(sp)
 20044f0:	dc400115 	stw	r17,4(sp)
 20044f4:	dc000015 	stw	r16,0(sp)
 20044f8:	18d12f04 	addi	r3,r3,17596
 20044fc:	24000117 	ldw	r16,4(r4)
 2004500:	20c00f15 	stw	r3,60(r4)
 2004504:	07000044 	movi	fp,1
 2004508:	00c000c4 	movi	r3,3
 200450c:	2080bb04 	addi	r2,r4,748
 2004510:	20c0b915 	stw	r3,740(r4)
 2004514:	27000e15 	stw	fp,56(r4)
 2004518:	2080ba15 	stw	r2,744(r4)
 200451c:	2000b815 	stw	zero,736(r4)
 2004520:	05c00204 	movi	r23,8
 2004524:	00800104 	movi	r2,4
 2004528:	2025883a 	mov	r18,r4
 200452c:	b80d883a 	mov	r6,r23
 2004530:	81001704 	addi	r4,r16,92
 2004534:	000b883a 	mov	r5,zero
 2004538:	80000015 	stw	zero,0(r16)
 200453c:	80000115 	stw	zero,4(r16)
 2004540:	80000215 	stw	zero,8(r16)
 2004544:	8080030d 	sth	r2,12(r16)
 2004548:	80001915 	stw	zero,100(r16)
 200454c:	8000038d 	sth	zero,14(r16)
 2004550:	80000415 	stw	zero,16(r16)
 2004554:	80000515 	stw	zero,20(r16)
 2004558:	80000615 	stw	zero,24(r16)
 200455c:	20060300 	call	2006030 <memset>
 2004560:	05808034 	movhi	r22,512
 2004564:	94400217 	ldw	r17,8(r18)
 2004568:	05408034 	movhi	r21,512
 200456c:	05008034 	movhi	r20,512
 2004570:	04c08034 	movhi	r19,512
 2004574:	b59dd204 	addi	r22,r22,30536
 2004578:	ad5de904 	addi	r21,r21,30628
 200457c:	a51e0804 	addi	r20,r20,30752
 2004580:	9cde1f04 	addi	r19,r19,30844
 2004584:	85800815 	stw	r22,32(r16)
 2004588:	85400915 	stw	r21,36(r16)
 200458c:	85000a15 	stw	r20,40(r16)
 2004590:	84c00b15 	stw	r19,44(r16)
 2004594:	84000715 	stw	r16,28(r16)
 2004598:	00800284 	movi	r2,10
 200459c:	89001704 	addi	r4,r17,92
 20045a0:	b80d883a 	mov	r6,r23
 20045a4:	000b883a 	mov	r5,zero
 20045a8:	88000015 	stw	zero,0(r17)
 20045ac:	88000115 	stw	zero,4(r17)
 20045b0:	88000215 	stw	zero,8(r17)
 20045b4:	8880030d 	sth	r2,12(r17)
 20045b8:	88001915 	stw	zero,100(r17)
 20045bc:	8f00038d 	sth	fp,14(r17)
 20045c0:	88000415 	stw	zero,16(r17)
 20045c4:	88000515 	stw	zero,20(r17)
 20045c8:	88000615 	stw	zero,24(r17)
 20045cc:	20060300 	call	2006030 <memset>
 20045d0:	94000317 	ldw	r16,12(r18)
 20045d4:	00800484 	movi	r2,18
 20045d8:	8c400715 	stw	r17,28(r17)
 20045dc:	8d800815 	stw	r22,32(r17)
 20045e0:	8d400915 	stw	r21,36(r17)
 20045e4:	8d000a15 	stw	r20,40(r17)
 20045e8:	8cc00b15 	stw	r19,44(r17)
 20045ec:	8080030d 	sth	r2,12(r16)
 20045f0:	00800084 	movi	r2,2
 20045f4:	80000015 	stw	zero,0(r16)
 20045f8:	80000115 	stw	zero,4(r16)
 20045fc:	80000215 	stw	zero,8(r16)
 2004600:	80001915 	stw	zero,100(r16)
 2004604:	8080038d 	sth	r2,14(r16)
 2004608:	80000415 	stw	zero,16(r16)
 200460c:	80000515 	stw	zero,20(r16)
 2004610:	80000615 	stw	zero,24(r16)
 2004614:	81001704 	addi	r4,r16,92
 2004618:	000b883a 	mov	r5,zero
 200461c:	b80d883a 	mov	r6,r23
 2004620:	20060300 	call	2006030 <memset>
 2004624:	84000715 	stw	r16,28(r16)
 2004628:	85800815 	stw	r22,32(r16)
 200462c:	85400915 	stw	r21,36(r16)
 2004630:	85000a15 	stw	r20,40(r16)
 2004634:	84c00b15 	stw	r19,44(r16)
 2004638:	dfc00917 	ldw	ra,36(sp)
 200463c:	df000817 	ldw	fp,32(sp)
 2004640:	ddc00717 	ldw	r23,28(sp)
 2004644:	dd800617 	ldw	r22,24(sp)
 2004648:	dd400517 	ldw	r21,20(sp)
 200464c:	dd000417 	ldw	r20,16(sp)
 2004650:	dcc00317 	ldw	r19,12(sp)
 2004654:	dc800217 	ldw	r18,8(sp)
 2004658:	dc400117 	ldw	r17,4(sp)
 200465c:	dc000017 	ldw	r16,0(sp)
 2004660:	dec00a04 	addi	sp,sp,40
 2004664:	f800283a 	ret

02004668 <__sfmoreglue>:
 2004668:	defffc04 	addi	sp,sp,-16
 200466c:	dc400115 	stw	r17,4(sp)
 2004670:	2c401a24 	muli	r17,r5,104
 2004674:	dc800215 	stw	r18,8(sp)
 2004678:	2825883a 	mov	r18,r5
 200467c:	89400304 	addi	r5,r17,12
 2004680:	dc000015 	stw	r16,0(sp)
 2004684:	dfc00315 	stw	ra,12(sp)
 2004688:	200550c0 	call	200550c <_malloc_r>
 200468c:	1021883a 	mov	r16,r2
 2004690:	10000726 	beq	r2,zero,20046b0 <__sfmoreglue+0x48>
 2004694:	11000304 	addi	r4,r2,12
 2004698:	10000015 	stw	zero,0(r2)
 200469c:	14800115 	stw	r18,4(r2)
 20046a0:	11000215 	stw	r4,8(r2)
 20046a4:	000b883a 	mov	r5,zero
 20046a8:	880d883a 	mov	r6,r17
 20046ac:	20060300 	call	2006030 <memset>
 20046b0:	8005883a 	mov	r2,r16
 20046b4:	dfc00317 	ldw	ra,12(sp)
 20046b8:	dc800217 	ldw	r18,8(sp)
 20046bc:	dc400117 	ldw	r17,4(sp)
 20046c0:	dc000017 	ldw	r16,0(sp)
 20046c4:	dec00404 	addi	sp,sp,16
 20046c8:	f800283a 	ret

020046cc <__sfp>:
 20046cc:	00808074 	movhi	r2,513
 20046d0:	defffb04 	addi	sp,sp,-20
 20046d4:	10839404 	addi	r2,r2,3664
 20046d8:	dc800215 	stw	r18,8(sp)
 20046dc:	14800017 	ldw	r18,0(r2)
 20046e0:	dcc00315 	stw	r19,12(sp)
 20046e4:	dfc00415 	stw	ra,16(sp)
 20046e8:	90800e17 	ldw	r2,56(r18)
 20046ec:	dc400115 	stw	r17,4(sp)
 20046f0:	dc000015 	stw	r16,0(sp)
 20046f4:	2027883a 	mov	r19,r4
 20046f8:	1000021e 	bne	r2,zero,2004704 <__sfp+0x38>
 20046fc:	9009883a 	mov	r4,r18
 2004700:	20044c80 	call	20044c8 <__sinit.part.1>
 2004704:	9480b804 	addi	r18,r18,736
 2004708:	047fffc4 	movi	r17,-1
 200470c:	91400117 	ldw	r5,4(r18)
 2004710:	94000217 	ldw	r16,8(r18)
 2004714:	297fffc4 	addi	r5,r5,-1
 2004718:	28000a16 	blt	r5,zero,2004744 <__sfp+0x78>
 200471c:	8080030f 	ldh	r2,12(r16)
 2004720:	10000c26 	beq	r2,zero,2004754 <__sfp+0x88>
 2004724:	80c01d04 	addi	r3,r16,116
 2004728:	00000206 	br	2004734 <__sfp+0x68>
 200472c:	18bfe60f 	ldh	r2,-104(r3)
 2004730:	10000826 	beq	r2,zero,2004754 <__sfp+0x88>
 2004734:	297fffc4 	addi	r5,r5,-1
 2004738:	1c3ffd04 	addi	r16,r3,-12
 200473c:	18c01a04 	addi	r3,r3,104
 2004740:	2c7ffa1e 	bne	r5,r17,200472c <__sfp+0x60>
 2004744:	90800017 	ldw	r2,0(r18)
 2004748:	10001d26 	beq	r2,zero,20047c0 <__sfp+0xf4>
 200474c:	1025883a 	mov	r18,r2
 2004750:	003fee06 	br	200470c <__sfp+0x40>
 2004754:	00bfffc4 	movi	r2,-1
 2004758:	8080038d 	sth	r2,14(r16)
 200475c:	00800044 	movi	r2,1
 2004760:	8080030d 	sth	r2,12(r16)
 2004764:	80001915 	stw	zero,100(r16)
 2004768:	80000015 	stw	zero,0(r16)
 200476c:	80000215 	stw	zero,8(r16)
 2004770:	80000115 	stw	zero,4(r16)
 2004774:	80000415 	stw	zero,16(r16)
 2004778:	80000515 	stw	zero,20(r16)
 200477c:	80000615 	stw	zero,24(r16)
 2004780:	81001704 	addi	r4,r16,92
 2004784:	000b883a 	mov	r5,zero
 2004788:	01800204 	movi	r6,8
 200478c:	20060300 	call	2006030 <memset>
 2004790:	8005883a 	mov	r2,r16
 2004794:	80000c15 	stw	zero,48(r16)
 2004798:	80000d15 	stw	zero,52(r16)
 200479c:	80001115 	stw	zero,68(r16)
 20047a0:	80001215 	stw	zero,72(r16)
 20047a4:	dfc00417 	ldw	ra,16(sp)
 20047a8:	dcc00317 	ldw	r19,12(sp)
 20047ac:	dc800217 	ldw	r18,8(sp)
 20047b0:	dc400117 	ldw	r17,4(sp)
 20047b4:	dc000017 	ldw	r16,0(sp)
 20047b8:	dec00504 	addi	sp,sp,20
 20047bc:	f800283a 	ret
 20047c0:	9809883a 	mov	r4,r19
 20047c4:	01400104 	movi	r5,4
 20047c8:	20046680 	call	2004668 <__sfmoreglue>
 20047cc:	90800015 	stw	r2,0(r18)
 20047d0:	103fde1e 	bne	r2,zero,200474c <__sfp+0x80>
 20047d4:	00800304 	movi	r2,12
 20047d8:	98800015 	stw	r2,0(r19)
 20047dc:	0005883a 	mov	r2,zero
 20047e0:	003ff006 	br	20047a4 <__sfp+0xd8>

020047e4 <_cleanup>:
 20047e4:	00808074 	movhi	r2,513
 20047e8:	10839404 	addi	r2,r2,3664
 20047ec:	11000017 	ldw	r4,0(r2)
 20047f0:	01408074 	movhi	r5,513
 20047f4:	29640c04 	addi	r5,r5,-28624
 20047f8:	20051041 	jmpi	2005104 <_fwalk>

020047fc <__sinit>:
 20047fc:	20800e17 	ldw	r2,56(r4)
 2004800:	10000126 	beq	r2,zero,2004808 <__sinit+0xc>
 2004804:	f800283a 	ret
 2004808:	20044c81 	jmpi	20044c8 <__sinit.part.1>

0200480c <__sfp_lock_acquire>:
 200480c:	f800283a 	ret

02004810 <__sfp_lock_release>:
 2004810:	f800283a 	ret

02004814 <__sinit_lock_acquire>:
 2004814:	f800283a 	ret

02004818 <__sinit_lock_release>:
 2004818:	f800283a 	ret

0200481c <__fp_lock_all>:
 200481c:	00808074 	movhi	r2,513
 2004820:	10839504 	addi	r2,r2,3668
 2004824:	11000017 	ldw	r4,0(r2)
 2004828:	01408034 	movhi	r5,512
 200482c:	29512b04 	addi	r5,r5,17580
 2004830:	20051041 	jmpi	2005104 <_fwalk>

02004834 <__fp_unlock_all>:
 2004834:	00808074 	movhi	r2,513
 2004838:	10839504 	addi	r2,r2,3668
 200483c:	11000017 	ldw	r4,0(r2)
 2004840:	01408034 	movhi	r5,512
 2004844:	29512d04 	addi	r5,r5,17588
 2004848:	20051041 	jmpi	2005104 <_fwalk>

0200484c <_malloc_trim_r>:
 200484c:	defffb04 	addi	sp,sp,-20
 2004850:	dcc00315 	stw	r19,12(sp)
 2004854:	04c08074 	movhi	r19,513
 2004858:	dc800215 	stw	r18,8(sp)
 200485c:	dc400115 	stw	r17,4(sp)
 2004860:	dc000015 	stw	r16,0(sp)
 2004864:	dfc00415 	stw	ra,16(sp)
 2004868:	2821883a 	mov	r16,r5
 200486c:	9cfe1004 	addi	r19,r19,-1984
 2004870:	2025883a 	mov	r18,r4
 2004874:	200cf100 	call	200cf10 <__malloc_lock>
 2004878:	98800217 	ldw	r2,8(r19)
 200487c:	14400117 	ldw	r17,4(r2)
 2004880:	00bfff04 	movi	r2,-4
 2004884:	88a2703a 	and	r17,r17,r2
 2004888:	8c21c83a 	sub	r16,r17,r16
 200488c:	8403fbc4 	addi	r16,r16,4079
 2004890:	8020d33a 	srli	r16,r16,12
 2004894:	0083ffc4 	movi	r2,4095
 2004898:	843fffc4 	addi	r16,r16,-1
 200489c:	8020933a 	slli	r16,r16,12
 20048a0:	1400060e 	bge	r2,r16,20048bc <_malloc_trim_r+0x70>
 20048a4:	9009883a 	mov	r4,r18
 20048a8:	000b883a 	mov	r5,zero
 20048ac:	20076f40 	call	20076f4 <_sbrk_r>
 20048b0:	98c00217 	ldw	r3,8(r19)
 20048b4:	1c47883a 	add	r3,r3,r17
 20048b8:	10c00a26 	beq	r2,r3,20048e4 <_malloc_trim_r+0x98>
 20048bc:	9009883a 	mov	r4,r18
 20048c0:	200cf300 	call	200cf30 <__malloc_unlock>
 20048c4:	0005883a 	mov	r2,zero
 20048c8:	dfc00417 	ldw	ra,16(sp)
 20048cc:	dcc00317 	ldw	r19,12(sp)
 20048d0:	dc800217 	ldw	r18,8(sp)
 20048d4:	dc400117 	ldw	r17,4(sp)
 20048d8:	dc000017 	ldw	r16,0(sp)
 20048dc:	dec00504 	addi	sp,sp,20
 20048e0:	f800283a 	ret
 20048e4:	9009883a 	mov	r4,r18
 20048e8:	040bc83a 	sub	r5,zero,r16
 20048ec:	20076f40 	call	20076f4 <_sbrk_r>
 20048f0:	00ffffc4 	movi	r3,-1
 20048f4:	10c00d26 	beq	r2,r3,200492c <_malloc_trim_r+0xe0>
 20048f8:	00c08074 	movhi	r3,513
 20048fc:	18ca6c04 	addi	r3,r3,10672
 2004900:	18800017 	ldw	r2,0(r3)
 2004904:	99000217 	ldw	r4,8(r19)
 2004908:	8c23c83a 	sub	r17,r17,r16
 200490c:	8c400054 	ori	r17,r17,1
 2004910:	1421c83a 	sub	r16,r2,r16
 2004914:	24400115 	stw	r17,4(r4)
 2004918:	9009883a 	mov	r4,r18
 200491c:	1c000015 	stw	r16,0(r3)
 2004920:	200cf300 	call	200cf30 <__malloc_unlock>
 2004924:	00800044 	movi	r2,1
 2004928:	003fe706 	br	20048c8 <_malloc_trim_r+0x7c>
 200492c:	9009883a 	mov	r4,r18
 2004930:	000b883a 	mov	r5,zero
 2004934:	20076f40 	call	20076f4 <_sbrk_r>
 2004938:	99000217 	ldw	r4,8(r19)
 200493c:	014003c4 	movi	r5,15
 2004940:	1107c83a 	sub	r3,r2,r4
 2004944:	28ffdd0e 	bge	r5,r3,20048bc <_malloc_trim_r+0x70>
 2004948:	01408074 	movhi	r5,513
 200494c:	29439704 	addi	r5,r5,3676
 2004950:	29400017 	ldw	r5,0(r5)
 2004954:	18c00054 	ori	r3,r3,1
 2004958:	20c00115 	stw	r3,4(r4)
 200495c:	00c08074 	movhi	r3,513
 2004960:	1145c83a 	sub	r2,r2,r5
 2004964:	18ca6c04 	addi	r3,r3,10672
 2004968:	18800015 	stw	r2,0(r3)
 200496c:	003fd306 	br	20048bc <_malloc_trim_r+0x70>

02004970 <_free_r>:
 2004970:	28004c26 	beq	r5,zero,2004aa4 <_free_r+0x134>
 2004974:	defffd04 	addi	sp,sp,-12
 2004978:	dc400115 	stw	r17,4(sp)
 200497c:	dc000015 	stw	r16,0(sp)
 2004980:	2023883a 	mov	r17,r4
 2004984:	2821883a 	mov	r16,r5
 2004988:	dfc00215 	stw	ra,8(sp)
 200498c:	200cf100 	call	200cf10 <__malloc_lock>
 2004990:	813fff17 	ldw	r4,-4(r16)
 2004994:	00bfff84 	movi	r2,-2
 2004998:	02408074 	movhi	r9,513
 200499c:	81bffe04 	addi	r6,r16,-8
 20049a0:	2084703a 	and	r2,r4,r2
 20049a4:	4a7e1004 	addi	r9,r9,-1984
 20049a8:	308b883a 	add	r5,r6,r2
 20049ac:	2a000117 	ldw	r8,4(r5)
 20049b0:	49c00217 	ldw	r7,8(r9)
 20049b4:	00ffff04 	movi	r3,-4
 20049b8:	40c6703a 	and	r3,r8,r3
 20049bc:	39405326 	beq	r7,r5,2004b0c <_free_r+0x19c>
 20049c0:	28c00115 	stw	r3,4(r5)
 20049c4:	2100004c 	andi	r4,r4,1
 20049c8:	2000091e 	bne	r4,zero,20049f0 <_free_r+0x80>
 20049cc:	81fffe17 	ldw	r7,-8(r16)
 20049d0:	4a000204 	addi	r8,r9,8
 20049d4:	31cdc83a 	sub	r6,r6,r7
 20049d8:	31000217 	ldw	r4,8(r6)
 20049dc:	11c5883a 	add	r2,r2,r7
 20049e0:	22006126 	beq	r4,r8,2004b68 <_free_r+0x1f8>
 20049e4:	31c00317 	ldw	r7,12(r6)
 20049e8:	21c00315 	stw	r7,12(r4)
 20049ec:	39000215 	stw	r4,8(r7)
 20049f0:	28c9883a 	add	r4,r5,r3
 20049f4:	21c00117 	ldw	r7,4(r4)
 20049f8:	39c0004c 	andi	r7,r7,1
 20049fc:	38000d1e 	bne	r7,zero,2004a34 <_free_r+0xc4>
 2004a00:	29000217 	ldw	r4,8(r5)
 2004a04:	10c5883a 	add	r2,r2,r3
 2004a08:	00c08074 	movhi	r3,513
 2004a0c:	18fe1204 	addi	r3,r3,-1976
 2004a10:	20c07526 	beq	r4,r3,2004be8 <_free_r+0x278>
 2004a14:	29c00317 	ldw	r7,12(r5)
 2004a18:	11400054 	ori	r5,r2,1
 2004a1c:	3087883a 	add	r3,r6,r2
 2004a20:	21c00315 	stw	r7,12(r4)
 2004a24:	39000215 	stw	r4,8(r7)
 2004a28:	31400115 	stw	r5,4(r6)
 2004a2c:	18800015 	stw	r2,0(r3)
 2004a30:	00000406 	br	2004a44 <_free_r+0xd4>
 2004a34:	10c00054 	ori	r3,r2,1
 2004a38:	30c00115 	stw	r3,4(r6)
 2004a3c:	3087883a 	add	r3,r6,r2
 2004a40:	18800015 	stw	r2,0(r3)
 2004a44:	00c07fc4 	movi	r3,511
 2004a48:	18801736 	bltu	r3,r2,2004aa8 <_free_r+0x138>
 2004a4c:	1004d0fa 	srli	r2,r2,3
 2004a50:	01400044 	movi	r5,1
 2004a54:	49000117 	ldw	r4,4(r9)
 2004a58:	1087883a 	add	r3,r2,r2
 2004a5c:	18c7883a 	add	r3,r3,r3
 2004a60:	1005d0ba 	srai	r2,r2,2
 2004a64:	18c7883a 	add	r3,r3,r3
 2004a68:	1a47883a 	add	r3,r3,r9
 2004a6c:	19c00217 	ldw	r7,8(r3)
 2004a70:	2884983a 	sll	r2,r5,r2
 2004a74:	30c00315 	stw	r3,12(r6)
 2004a78:	31c00215 	stw	r7,8(r6)
 2004a7c:	1104b03a 	or	r2,r2,r4
 2004a80:	19800215 	stw	r6,8(r3)
 2004a84:	48800115 	stw	r2,4(r9)
 2004a88:	39800315 	stw	r6,12(r7)
 2004a8c:	8809883a 	mov	r4,r17
 2004a90:	dfc00217 	ldw	ra,8(sp)
 2004a94:	dc400117 	ldw	r17,4(sp)
 2004a98:	dc000017 	ldw	r16,0(sp)
 2004a9c:	dec00304 	addi	sp,sp,12
 2004aa0:	200cf301 	jmpi	200cf30 <__malloc_unlock>
 2004aa4:	f800283a 	ret
 2004aa8:	1006d27a 	srli	r3,r2,9
 2004aac:	01000104 	movi	r4,4
 2004ab0:	20c04036 	bltu	r4,r3,2004bb4 <_free_r+0x244>
 2004ab4:	1006d1ba 	srli	r3,r2,6
 2004ab8:	19400e04 	addi	r5,r3,56
 2004abc:	2947883a 	add	r3,r5,r5
 2004ac0:	18c7883a 	add	r3,r3,r3
 2004ac4:	18c7883a 	add	r3,r3,r3
 2004ac8:	1a49883a 	add	r4,r3,r9
 2004acc:	20c00217 	ldw	r3,8(r4)
 2004ad0:	01c08074 	movhi	r7,513
 2004ad4:	39fe1004 	addi	r7,r7,-1984
 2004ad8:	19003b26 	beq	r3,r4,2004bc8 <_free_r+0x258>
 2004adc:	01ffff04 	movi	r7,-4
 2004ae0:	19400117 	ldw	r5,4(r3)
 2004ae4:	29ca703a 	and	r5,r5,r7
 2004ae8:	1140022e 	bgeu	r2,r5,2004af4 <_free_r+0x184>
 2004aec:	18c00217 	ldw	r3,8(r3)
 2004af0:	20fffb1e 	bne	r4,r3,2004ae0 <_free_r+0x170>
 2004af4:	18800317 	ldw	r2,12(r3)
 2004af8:	30800315 	stw	r2,12(r6)
 2004afc:	30c00215 	stw	r3,8(r6)
 2004b00:	11800215 	stw	r6,8(r2)
 2004b04:	19800315 	stw	r6,12(r3)
 2004b08:	003fe006 	br	2004a8c <_free_r+0x11c>
 2004b0c:	2100004c 	andi	r4,r4,1
 2004b10:	1885883a 	add	r2,r3,r2
 2004b14:	2000071e 	bne	r4,zero,2004b34 <_free_r+0x1c4>
 2004b18:	817ffe17 	ldw	r5,-8(r16)
 2004b1c:	314dc83a 	sub	r6,r6,r5
 2004b20:	30c00317 	ldw	r3,12(r6)
 2004b24:	31000217 	ldw	r4,8(r6)
 2004b28:	1145883a 	add	r2,r2,r5
 2004b2c:	20c00315 	stw	r3,12(r4)
 2004b30:	19000215 	stw	r4,8(r3)
 2004b34:	10c00054 	ori	r3,r2,1
 2004b38:	30c00115 	stw	r3,4(r6)
 2004b3c:	00c08074 	movhi	r3,513
 2004b40:	18c39804 	addi	r3,r3,3680
 2004b44:	18c00017 	ldw	r3,0(r3)
 2004b48:	49800215 	stw	r6,8(r9)
 2004b4c:	10ffcf36 	bltu	r2,r3,2004a8c <_free_r+0x11c>
 2004b50:	00808074 	movhi	r2,513
 2004b54:	108a6404 	addi	r2,r2,10640
 2004b58:	11400017 	ldw	r5,0(r2)
 2004b5c:	8809883a 	mov	r4,r17
 2004b60:	200484c0 	call	200484c <_malloc_trim_r>
 2004b64:	003fc906 	br	2004a8c <_free_r+0x11c>
 2004b68:	28c9883a 	add	r4,r5,r3
 2004b6c:	21000117 	ldw	r4,4(r4)
 2004b70:	2100004c 	andi	r4,r4,1
 2004b74:	20000a1e 	bne	r4,zero,2004ba0 <_free_r+0x230>
 2004b78:	29000317 	ldw	r4,12(r5)
 2004b7c:	29400217 	ldw	r5,8(r5)
 2004b80:	10c5883a 	add	r2,r2,r3
 2004b84:	10c00054 	ori	r3,r2,1
 2004b88:	29000315 	stw	r4,12(r5)
 2004b8c:	21400215 	stw	r5,8(r4)
 2004b90:	30c00115 	stw	r3,4(r6)
 2004b94:	308d883a 	add	r6,r6,r2
 2004b98:	30800015 	stw	r2,0(r6)
 2004b9c:	003fbb06 	br	2004a8c <_free_r+0x11c>
 2004ba0:	10c00054 	ori	r3,r2,1
 2004ba4:	30c00115 	stw	r3,4(r6)
 2004ba8:	308d883a 	add	r6,r6,r2
 2004bac:	30800015 	stw	r2,0(r6)
 2004bb0:	003fb606 	br	2004a8c <_free_r+0x11c>
 2004bb4:	01000504 	movi	r4,20
 2004bb8:	20c01436 	bltu	r4,r3,2004c0c <_free_r+0x29c>
 2004bbc:	194016c4 	addi	r5,r3,91
 2004bc0:	2947883a 	add	r3,r5,r5
 2004bc4:	003fbe06 	br	2004ac0 <_free_r+0x150>
 2004bc8:	280bd0ba 	srai	r5,r5,2
 2004bcc:	00800044 	movi	r2,1
 2004bd0:	39000117 	ldw	r4,4(r7)
 2004bd4:	114a983a 	sll	r5,r2,r5
 2004bd8:	1805883a 	mov	r2,r3
 2004bdc:	2908b03a 	or	r4,r5,r4
 2004be0:	39000115 	stw	r4,4(r7)
 2004be4:	003fc406 	br	2004af8 <_free_r+0x188>
 2004be8:	49800515 	stw	r6,20(r9)
 2004bec:	49800415 	stw	r6,16(r9)
 2004bf0:	10c00054 	ori	r3,r2,1
 2004bf4:	31000315 	stw	r4,12(r6)
 2004bf8:	31000215 	stw	r4,8(r6)
 2004bfc:	30c00115 	stw	r3,4(r6)
 2004c00:	308d883a 	add	r6,r6,r2
 2004c04:	30800015 	stw	r2,0(r6)
 2004c08:	003fa006 	br	2004a8c <_free_r+0x11c>
 2004c0c:	01001504 	movi	r4,84
 2004c10:	20c00436 	bltu	r4,r3,2004c24 <_free_r+0x2b4>
 2004c14:	1006d33a 	srli	r3,r2,12
 2004c18:	19401b84 	addi	r5,r3,110
 2004c1c:	2947883a 	add	r3,r5,r5
 2004c20:	003fa706 	br	2004ac0 <_free_r+0x150>
 2004c24:	01005504 	movi	r4,340
 2004c28:	20c00436 	bltu	r4,r3,2004c3c <_free_r+0x2cc>
 2004c2c:	1006d3fa 	srli	r3,r2,15
 2004c30:	19401dc4 	addi	r5,r3,119
 2004c34:	2947883a 	add	r3,r5,r5
 2004c38:	003fa106 	br	2004ac0 <_free_r+0x150>
 2004c3c:	01015504 	movi	r4,1364
 2004c40:	20c00436 	bltu	r4,r3,2004c54 <_free_r+0x2e4>
 2004c44:	1006d4ba 	srli	r3,r2,18
 2004c48:	19401f04 	addi	r5,r3,124
 2004c4c:	2947883a 	add	r3,r5,r5
 2004c50:	003f9b06 	br	2004ac0 <_free_r+0x150>
 2004c54:	00c03f04 	movi	r3,252
 2004c58:	01401f84 	movi	r5,126
 2004c5c:	003f9806 	br	2004ac0 <_free_r+0x150>

02004c60 <__sfvwrite_r>:
 2004c60:	30800217 	ldw	r2,8(r6)
 2004c64:	10004526 	beq	r2,zero,2004d7c <__sfvwrite_r+0x11c>
 2004c68:	28c0030b 	ldhu	r3,12(r5)
 2004c6c:	defff404 	addi	sp,sp,-48
 2004c70:	dd400715 	stw	r21,28(sp)
 2004c74:	dcc00515 	stw	r19,20(sp)
 2004c78:	dc000215 	stw	r16,8(sp)
 2004c7c:	dfc00b15 	stw	ra,44(sp)
 2004c80:	df000a15 	stw	fp,40(sp)
 2004c84:	ddc00915 	stw	r23,36(sp)
 2004c88:	dd800815 	stw	r22,32(sp)
 2004c8c:	dd000615 	stw	r20,24(sp)
 2004c90:	dc800415 	stw	r18,16(sp)
 2004c94:	dc400315 	stw	r17,12(sp)
 2004c98:	1880020c 	andi	r2,r3,8
 2004c9c:	2821883a 	mov	r16,r5
 2004ca0:	202b883a 	mov	r21,r4
 2004ca4:	3027883a 	mov	r19,r6
 2004ca8:	10002526 	beq	r2,zero,2004d40 <__sfvwrite_r+0xe0>
 2004cac:	28800417 	ldw	r2,16(r5)
 2004cb0:	10002326 	beq	r2,zero,2004d40 <__sfvwrite_r+0xe0>
 2004cb4:	1880008c 	andi	r2,r3,2
 2004cb8:	9c400017 	ldw	r17,0(r19)
 2004cbc:	10003126 	beq	r2,zero,2004d84 <__sfvwrite_r+0x124>
 2004cc0:	0029883a 	mov	r20,zero
 2004cc4:	0025883a 	mov	r18,zero
 2004cc8:	05810004 	movi	r22,1024
 2004ccc:	a00d883a 	mov	r6,r20
 2004cd0:	a809883a 	mov	r4,r21
 2004cd4:	90002526 	beq	r18,zero,2004d6c <__sfvwrite_r+0x10c>
 2004cd8:	900f883a 	mov	r7,r18
 2004cdc:	81400717 	ldw	r5,28(r16)
 2004ce0:	b480012e 	bgeu	r22,r18,2004ce8 <__sfvwrite_r+0x88>
 2004ce4:	01c10004 	movi	r7,1024
 2004ce8:	80800917 	ldw	r2,36(r16)
 2004cec:	103ee83a 	callr	r2
 2004cf0:	0080510e 	bge	zero,r2,2004e38 <__sfvwrite_r+0x1d8>
 2004cf4:	98c00217 	ldw	r3,8(r19)
 2004cf8:	a0a9883a 	add	r20,r20,r2
 2004cfc:	90a5c83a 	sub	r18,r18,r2
 2004d00:	1885c83a 	sub	r2,r3,r2
 2004d04:	98800215 	stw	r2,8(r19)
 2004d08:	103ff01e 	bne	r2,zero,2004ccc <__sfvwrite_r+0x6c>
 2004d0c:	0005883a 	mov	r2,zero
 2004d10:	dfc00b17 	ldw	ra,44(sp)
 2004d14:	df000a17 	ldw	fp,40(sp)
 2004d18:	ddc00917 	ldw	r23,36(sp)
 2004d1c:	dd800817 	ldw	r22,32(sp)
 2004d20:	dd400717 	ldw	r21,28(sp)
 2004d24:	dd000617 	ldw	r20,24(sp)
 2004d28:	dcc00517 	ldw	r19,20(sp)
 2004d2c:	dc800417 	ldw	r18,16(sp)
 2004d30:	dc400317 	ldw	r17,12(sp)
 2004d34:	dc000217 	ldw	r16,8(sp)
 2004d38:	dec00c04 	addi	sp,sp,48
 2004d3c:	f800283a 	ret
 2004d40:	a809883a 	mov	r4,r21
 2004d44:	800b883a 	mov	r5,r16
 2004d48:	20027fc0 	call	20027fc <__swsetup_r>
 2004d4c:	80c0030b 	ldhu	r3,12(r16)
 2004d50:	103fd826 	beq	r2,zero,2004cb4 <__sfvwrite_r+0x54>
 2004d54:	18c01014 	ori	r3,r3,64
 2004d58:	80c0030d 	sth	r3,12(r16)
 2004d5c:	00c00244 	movi	r3,9
 2004d60:	00bfffc4 	movi	r2,-1
 2004d64:	a8c00015 	stw	r3,0(r21)
 2004d68:	003fe906 	br	2004d10 <__sfvwrite_r+0xb0>
 2004d6c:	8d000017 	ldw	r20,0(r17)
 2004d70:	8c800117 	ldw	r18,4(r17)
 2004d74:	8c400204 	addi	r17,r17,8
 2004d78:	003fd406 	br	2004ccc <__sfvwrite_r+0x6c>
 2004d7c:	0005883a 	mov	r2,zero
 2004d80:	f800283a 	ret
 2004d84:	1880004c 	andi	r2,r3,1
 2004d88:	1000301e 	bne	r2,zero,2004e4c <__sfvwrite_r+0x1ec>
 2004d8c:	002f883a 	mov	r23,zero
 2004d90:	0025883a 	mov	r18,zero
 2004d94:	90001c26 	beq	r18,zero,2004e08 <__sfvwrite_r+0x1a8>
 2004d98:	1880800c 	andi	r2,r3,512
 2004d9c:	85000217 	ldw	r20,8(r16)
 2004da0:	10006c26 	beq	r2,zero,2004f54 <__sfvwrite_r+0x2f4>
 2004da4:	a02d883a 	mov	r22,r20
 2004da8:	95008536 	bltu	r18,r20,2004fc0 <__sfvwrite_r+0x360>
 2004dac:	1881200c 	andi	r2,r3,1152
 2004db0:	10009d1e 	bne	r2,zero,2005028 <__sfvwrite_r+0x3c8>
 2004db4:	81000017 	ldw	r4,0(r16)
 2004db8:	a039883a 	mov	fp,r20
 2004dbc:	9029883a 	mov	r20,r18
 2004dc0:	b80b883a 	mov	r5,r23
 2004dc4:	b00d883a 	mov	r6,r22
 2004dc8:	2005ed40 	call	2005ed4 <memmove>
 2004dcc:	80c00217 	ldw	r3,8(r16)
 2004dd0:	81000017 	ldw	r4,0(r16)
 2004dd4:	9005883a 	mov	r2,r18
 2004dd8:	1f39c83a 	sub	fp,r3,fp
 2004ddc:	258f883a 	add	r7,r4,r22
 2004de0:	87000215 	stw	fp,8(r16)
 2004de4:	81c00015 	stw	r7,0(r16)
 2004de8:	98c00217 	ldw	r3,8(r19)
 2004dec:	b8af883a 	add	r23,r23,r2
 2004df0:	90a5c83a 	sub	r18,r18,r2
 2004df4:	1d05c83a 	sub	r2,r3,r20
 2004df8:	98800215 	stw	r2,8(r19)
 2004dfc:	103fc326 	beq	r2,zero,2004d0c <__sfvwrite_r+0xac>
 2004e00:	80c0030b 	ldhu	r3,12(r16)
 2004e04:	903fe41e 	bne	r18,zero,2004d98 <__sfvwrite_r+0x138>
 2004e08:	8dc00017 	ldw	r23,0(r17)
 2004e0c:	8c800117 	ldw	r18,4(r17)
 2004e10:	8c400204 	addi	r17,r17,8
 2004e14:	003fdf06 	br	2004d94 <__sfvwrite_r+0x134>
 2004e18:	20070e00 	call	20070e0 <_realloc_r>
 2004e1c:	102d883a 	mov	r22,r2
 2004e20:	1000a01e 	bne	r2,zero,20050a4 <__sfvwrite_r+0x444>
 2004e24:	81400417 	ldw	r5,16(r16)
 2004e28:	a809883a 	mov	r4,r21
 2004e2c:	20049700 	call	2004970 <_free_r>
 2004e30:	00800304 	movi	r2,12
 2004e34:	a8800015 	stw	r2,0(r21)
 2004e38:	80c0030b 	ldhu	r3,12(r16)
 2004e3c:	00bfffc4 	movi	r2,-1
 2004e40:	18c01014 	ori	r3,r3,64
 2004e44:	80c0030d 	sth	r3,12(r16)
 2004e48:	003fb106 	br	2004d10 <__sfvwrite_r+0xb0>
 2004e4c:	0029883a 	mov	r20,zero
 2004e50:	0011883a 	mov	r8,zero
 2004e54:	0039883a 	mov	fp,zero
 2004e58:	0025883a 	mov	r18,zero
 2004e5c:	90001f26 	beq	r18,zero,2004edc <__sfvwrite_r+0x27c>
 2004e60:	40006826 	beq	r8,zero,2005004 <__sfvwrite_r+0x3a4>
 2004e64:	a02f883a 	mov	r23,r20
 2004e68:	9500012e 	bgeu	r18,r20,2004e70 <__sfvwrite_r+0x210>
 2004e6c:	902f883a 	mov	r23,r18
 2004e70:	81000017 	ldw	r4,0(r16)
 2004e74:	80800417 	ldw	r2,16(r16)
 2004e78:	b82d883a 	mov	r22,r23
 2004e7c:	81800217 	ldw	r6,8(r16)
 2004e80:	81c00517 	ldw	r7,20(r16)
 2004e84:	1100022e 	bgeu	r2,r4,2004e90 <__sfvwrite_r+0x230>
 2004e88:	31c7883a 	add	r3,r6,r7
 2004e8c:	1dc01816 	blt	r3,r23,2004ef0 <__sfvwrite_r+0x290>
 2004e90:	b9c03f16 	blt	r23,r7,2004f90 <__sfvwrite_r+0x330>
 2004e94:	80800917 	ldw	r2,36(r16)
 2004e98:	81400717 	ldw	r5,28(r16)
 2004e9c:	a809883a 	mov	r4,r21
 2004ea0:	da000115 	stw	r8,4(sp)
 2004ea4:	e00d883a 	mov	r6,fp
 2004ea8:	103ee83a 	callr	r2
 2004eac:	102d883a 	mov	r22,r2
 2004eb0:	da000117 	ldw	r8,4(sp)
 2004eb4:	00bfe00e 	bge	zero,r2,2004e38 <__sfvwrite_r+0x1d8>
 2004eb8:	a5a9c83a 	sub	r20,r20,r22
 2004ebc:	a0001f26 	beq	r20,zero,2004f3c <__sfvwrite_r+0x2dc>
 2004ec0:	98800217 	ldw	r2,8(r19)
 2004ec4:	e5b9883a 	add	fp,fp,r22
 2004ec8:	95a5c83a 	sub	r18,r18,r22
 2004ecc:	15adc83a 	sub	r22,r2,r22
 2004ed0:	9d800215 	stw	r22,8(r19)
 2004ed4:	b03f8d26 	beq	r22,zero,2004d0c <__sfvwrite_r+0xac>
 2004ed8:	903fe11e 	bne	r18,zero,2004e60 <__sfvwrite_r+0x200>
 2004edc:	8f000017 	ldw	fp,0(r17)
 2004ee0:	8c800117 	ldw	r18,4(r17)
 2004ee4:	0011883a 	mov	r8,zero
 2004ee8:	8c400204 	addi	r17,r17,8
 2004eec:	003fdb06 	br	2004e5c <__sfvwrite_r+0x1fc>
 2004ef0:	180d883a 	mov	r6,r3
 2004ef4:	e00b883a 	mov	r5,fp
 2004ef8:	da000115 	stw	r8,4(sp)
 2004efc:	d8c00015 	stw	r3,0(sp)
 2004f00:	2005ed40 	call	2005ed4 <memmove>
 2004f04:	d8c00017 	ldw	r3,0(sp)
 2004f08:	80800017 	ldw	r2,0(r16)
 2004f0c:	a809883a 	mov	r4,r21
 2004f10:	800b883a 	mov	r5,r16
 2004f14:	10c5883a 	add	r2,r2,r3
 2004f18:	80800015 	stw	r2,0(r16)
 2004f1c:	d8c00015 	stw	r3,0(sp)
 2004f20:	20042540 	call	2004254 <_fflush_r>
 2004f24:	d8c00017 	ldw	r3,0(sp)
 2004f28:	da000117 	ldw	r8,4(sp)
 2004f2c:	103fc21e 	bne	r2,zero,2004e38 <__sfvwrite_r+0x1d8>
 2004f30:	182d883a 	mov	r22,r3
 2004f34:	a5a9c83a 	sub	r20,r20,r22
 2004f38:	a03fe11e 	bne	r20,zero,2004ec0 <__sfvwrite_r+0x260>
 2004f3c:	a809883a 	mov	r4,r21
 2004f40:	800b883a 	mov	r5,r16
 2004f44:	20042540 	call	2004254 <_fflush_r>
 2004f48:	103fbb1e 	bne	r2,zero,2004e38 <__sfvwrite_r+0x1d8>
 2004f4c:	0011883a 	mov	r8,zero
 2004f50:	003fdb06 	br	2004ec0 <__sfvwrite_r+0x260>
 2004f54:	81000017 	ldw	r4,0(r16)
 2004f58:	80800417 	ldw	r2,16(r16)
 2004f5c:	1100012e 	bgeu	r2,r4,2004f64 <__sfvwrite_r+0x304>
 2004f60:	a4805a36 	bltu	r20,r18,20050cc <__sfvwrite_r+0x46c>
 2004f64:	81c00517 	ldw	r7,20(r16)
 2004f68:	91c01a36 	bltu	r18,r7,2004fd4 <__sfvwrite_r+0x374>
 2004f6c:	80800917 	ldw	r2,36(r16)
 2004f70:	81400717 	ldw	r5,28(r16)
 2004f74:	a809883a 	mov	r4,r21
 2004f78:	b80d883a 	mov	r6,r23
 2004f7c:	103ee83a 	callr	r2
 2004f80:	1029883a 	mov	r20,r2
 2004f84:	00bfac0e 	bge	zero,r2,2004e38 <__sfvwrite_r+0x1d8>
 2004f88:	a005883a 	mov	r2,r20
 2004f8c:	003f9606 	br	2004de8 <__sfvwrite_r+0x188>
 2004f90:	b80d883a 	mov	r6,r23
 2004f94:	e00b883a 	mov	r5,fp
 2004f98:	da000115 	stw	r8,4(sp)
 2004f9c:	2005ed40 	call	2005ed4 <memmove>
 2004fa0:	80800217 	ldw	r2,8(r16)
 2004fa4:	80c00017 	ldw	r3,0(r16)
 2004fa8:	da000117 	ldw	r8,4(sp)
 2004fac:	15c5c83a 	sub	r2,r2,r23
 2004fb0:	1def883a 	add	r23,r3,r23
 2004fb4:	80800215 	stw	r2,8(r16)
 2004fb8:	85c00015 	stw	r23,0(r16)
 2004fbc:	003fbe06 	br	2004eb8 <__sfvwrite_r+0x258>
 2004fc0:	81000017 	ldw	r4,0(r16)
 2004fc4:	9039883a 	mov	fp,r18
 2004fc8:	9029883a 	mov	r20,r18
 2004fcc:	902d883a 	mov	r22,r18
 2004fd0:	003f7b06 	br	2004dc0 <__sfvwrite_r+0x160>
 2004fd4:	b80b883a 	mov	r5,r23
 2004fd8:	900d883a 	mov	r6,r18
 2004fdc:	2005ed40 	call	2005ed4 <memmove>
 2004fe0:	80c00217 	ldw	r3,8(r16)
 2004fe4:	80800017 	ldw	r2,0(r16)
 2004fe8:	9029883a 	mov	r20,r18
 2004fec:	1c87c83a 	sub	r3,r3,r18
 2004ff0:	1485883a 	add	r2,r2,r18
 2004ff4:	80800015 	stw	r2,0(r16)
 2004ff8:	80c00215 	stw	r3,8(r16)
 2004ffc:	9005883a 	mov	r2,r18
 2005000:	003f7906 	br	2004de8 <__sfvwrite_r+0x188>
 2005004:	e009883a 	mov	r4,fp
 2005008:	01400284 	movi	r5,10
 200500c:	900d883a 	mov	r6,r18
 2005010:	2005cb40 	call	2005cb4 <memchr>
 2005014:	10003826 	beq	r2,zero,20050f8 <__sfvwrite_r+0x498>
 2005018:	10800044 	addi	r2,r2,1
 200501c:	1729c83a 	sub	r20,r2,fp
 2005020:	02000044 	movi	r8,1
 2005024:	003f8f06 	br	2004e64 <__sfvwrite_r+0x204>
 2005028:	80800517 	ldw	r2,20(r16)
 200502c:	81400417 	ldw	r5,16(r16)
 2005030:	87000017 	ldw	fp,0(r16)
 2005034:	10a9883a 	add	r20,r2,r2
 2005038:	a085883a 	add	r2,r20,r2
 200503c:	1028d7fa 	srli	r20,r2,31
 2005040:	e179c83a 	sub	fp,fp,r5
 2005044:	e1000044 	addi	r4,fp,1
 2005048:	a085883a 	add	r2,r20,r2
 200504c:	1029d07a 	srai	r20,r2,1
 2005050:	2485883a 	add	r2,r4,r18
 2005054:	a00d883a 	mov	r6,r20
 2005058:	a080022e 	bgeu	r20,r2,2005064 <__sfvwrite_r+0x404>
 200505c:	1029883a 	mov	r20,r2
 2005060:	100d883a 	mov	r6,r2
 2005064:	18c1000c 	andi	r3,r3,1024
 2005068:	a809883a 	mov	r4,r21
 200506c:	183f6a26 	beq	r3,zero,2004e18 <__sfvwrite_r+0x1b8>
 2005070:	300b883a 	mov	r5,r6
 2005074:	200550c0 	call	200550c <_malloc_r>
 2005078:	102d883a 	mov	r22,r2
 200507c:	103f6c26 	beq	r2,zero,2004e30 <__sfvwrite_r+0x1d0>
 2005080:	81400417 	ldw	r5,16(r16)
 2005084:	1009883a 	mov	r4,r2
 2005088:	e00d883a 	mov	r6,fp
 200508c:	2005d9c0 	call	2005d9c <memcpy>
 2005090:	8080030b 	ldhu	r2,12(r16)
 2005094:	00fedfc4 	movi	r3,-1153
 2005098:	10c4703a 	and	r2,r2,r3
 200509c:	10802014 	ori	r2,r2,128
 20050a0:	8080030d 	sth	r2,12(r16)
 20050a4:	b709883a 	add	r4,r22,fp
 20050a8:	a707c83a 	sub	r3,r20,fp
 20050ac:	85800415 	stw	r22,16(r16)
 20050b0:	85000515 	stw	r20,20(r16)
 20050b4:	81000015 	stw	r4,0(r16)
 20050b8:	9039883a 	mov	fp,r18
 20050bc:	80c00215 	stw	r3,8(r16)
 20050c0:	9029883a 	mov	r20,r18
 20050c4:	902d883a 	mov	r22,r18
 20050c8:	003f3d06 	br	2004dc0 <__sfvwrite_r+0x160>
 20050cc:	b80b883a 	mov	r5,r23
 20050d0:	a00d883a 	mov	r6,r20
 20050d4:	2005ed40 	call	2005ed4 <memmove>
 20050d8:	80800017 	ldw	r2,0(r16)
 20050dc:	a809883a 	mov	r4,r21
 20050e0:	800b883a 	mov	r5,r16
 20050e4:	1505883a 	add	r2,r2,r20
 20050e8:	80800015 	stw	r2,0(r16)
 20050ec:	20042540 	call	2004254 <_fflush_r>
 20050f0:	103fa526 	beq	r2,zero,2004f88 <__sfvwrite_r+0x328>
 20050f4:	003f5006 	br	2004e38 <__sfvwrite_r+0x1d8>
 20050f8:	95000044 	addi	r20,r18,1
 20050fc:	02000044 	movi	r8,1
 2005100:	003f5806 	br	2004e64 <__sfvwrite_r+0x204>

02005104 <_fwalk>:
 2005104:	defff804 	addi	sp,sp,-32
 2005108:	dd400515 	stw	r21,20(sp)
 200510c:	2540b804 	addi	r21,r4,736
 2005110:	dd800615 	stw	r22,24(sp)
 2005114:	dd000415 	stw	r20,16(sp)
 2005118:	dfc00715 	stw	ra,28(sp)
 200511c:	dcc00315 	stw	r19,12(sp)
 2005120:	dc800215 	stw	r18,8(sp)
 2005124:	dc400115 	stw	r17,4(sp)
 2005128:	dc000015 	stw	r16,0(sp)
 200512c:	2829883a 	mov	r20,r5
 2005130:	002d883a 	mov	r22,zero
 2005134:	200480c0 	call	200480c <__sfp_lock_acquire>
 2005138:	a8001426 	beq	r21,zero,200518c <_fwalk+0x88>
 200513c:	04ffffc4 	movi	r19,-1
 2005140:	ac400117 	ldw	r17,4(r21)
 2005144:	ac800217 	ldw	r18,8(r21)
 2005148:	8c7fffc4 	addi	r17,r17,-1
 200514c:	88000d16 	blt	r17,zero,2005184 <_fwalk+0x80>
 2005150:	94000304 	addi	r16,r18,12
 2005154:	94800384 	addi	r18,r18,14
 2005158:	80c0000f 	ldh	r3,0(r16)
 200515c:	8c7fffc4 	addi	r17,r17,-1
 2005160:	813ffd04 	addi	r4,r16,-12
 2005164:	18000426 	beq	r3,zero,2005178 <_fwalk+0x74>
 2005168:	90c0000f 	ldh	r3,0(r18)
 200516c:	1cc00226 	beq	r3,r19,2005178 <_fwalk+0x74>
 2005170:	a03ee83a 	callr	r20
 2005174:	b0acb03a 	or	r22,r22,r2
 2005178:	84001a04 	addi	r16,r16,104
 200517c:	94801a04 	addi	r18,r18,104
 2005180:	8cfff51e 	bne	r17,r19,2005158 <_fwalk+0x54>
 2005184:	ad400017 	ldw	r21,0(r21)
 2005188:	a83fed1e 	bne	r21,zero,2005140 <_fwalk+0x3c>
 200518c:	20048100 	call	2004810 <__sfp_lock_release>
 2005190:	b005883a 	mov	r2,r22
 2005194:	dfc00717 	ldw	ra,28(sp)
 2005198:	dd800617 	ldw	r22,24(sp)
 200519c:	dd400517 	ldw	r21,20(sp)
 20051a0:	dd000417 	ldw	r20,16(sp)
 20051a4:	dcc00317 	ldw	r19,12(sp)
 20051a8:	dc800217 	ldw	r18,8(sp)
 20051ac:	dc400117 	ldw	r17,4(sp)
 20051b0:	dc000017 	ldw	r16,0(sp)
 20051b4:	dec00804 	addi	sp,sp,32
 20051b8:	f800283a 	ret

020051bc <_fwalk_reent>:
 20051bc:	defff804 	addi	sp,sp,-32
 20051c0:	dd400515 	stw	r21,20(sp)
 20051c4:	2540b804 	addi	r21,r4,736
 20051c8:	dd800615 	stw	r22,24(sp)
 20051cc:	dd000415 	stw	r20,16(sp)
 20051d0:	dcc00315 	stw	r19,12(sp)
 20051d4:	dfc00715 	stw	ra,28(sp)
 20051d8:	dc800215 	stw	r18,8(sp)
 20051dc:	dc400115 	stw	r17,4(sp)
 20051e0:	dc000015 	stw	r16,0(sp)
 20051e4:	2027883a 	mov	r19,r4
 20051e8:	2829883a 	mov	r20,r5
 20051ec:	002d883a 	mov	r22,zero
 20051f0:	200480c0 	call	200480c <__sfp_lock_acquire>
 20051f4:	a8001326 	beq	r21,zero,2005244 <_fwalk_reent+0x88>
 20051f8:	04bfffc4 	movi	r18,-1
 20051fc:	ac400117 	ldw	r17,4(r21)
 2005200:	ac000217 	ldw	r16,8(r21)
 2005204:	8c7fffc4 	addi	r17,r17,-1
 2005208:	88000c16 	blt	r17,zero,200523c <_fwalk_reent+0x80>
 200520c:	84000304 	addi	r16,r16,12
 2005210:	80c0000f 	ldh	r3,0(r16)
 2005214:	8c7fffc4 	addi	r17,r17,-1
 2005218:	817ffd04 	addi	r5,r16,-12
 200521c:	18000526 	beq	r3,zero,2005234 <_fwalk_reent+0x78>
 2005220:	80c0008f 	ldh	r3,2(r16)
 2005224:	9809883a 	mov	r4,r19
 2005228:	1c800226 	beq	r3,r18,2005234 <_fwalk_reent+0x78>
 200522c:	a03ee83a 	callr	r20
 2005230:	b0acb03a 	or	r22,r22,r2
 2005234:	84001a04 	addi	r16,r16,104
 2005238:	8cbff51e 	bne	r17,r18,2005210 <_fwalk_reent+0x54>
 200523c:	ad400017 	ldw	r21,0(r21)
 2005240:	a83fee1e 	bne	r21,zero,20051fc <_fwalk_reent+0x40>
 2005244:	20048100 	call	2004810 <__sfp_lock_release>
 2005248:	b005883a 	mov	r2,r22
 200524c:	dfc00717 	ldw	ra,28(sp)
 2005250:	dd800617 	ldw	r22,24(sp)
 2005254:	dd400517 	ldw	r21,20(sp)
 2005258:	dd000417 	ldw	r20,16(sp)
 200525c:	dcc00317 	ldw	r19,12(sp)
 2005260:	dc800217 	ldw	r18,8(sp)
 2005264:	dc400117 	ldw	r17,4(sp)
 2005268:	dc000017 	ldw	r16,0(sp)
 200526c:	dec00804 	addi	sp,sp,32
 2005270:	f800283a 	ret

02005274 <_setlocale_r>:
 2005274:	30001b26 	beq	r6,zero,20052e4 <_setlocale_r+0x70>
 2005278:	01408074 	movhi	r5,513
 200527c:	defffe04 	addi	sp,sp,-8
 2005280:	297c8a04 	addi	r5,r5,-3544
 2005284:	3009883a 	mov	r4,r6
 2005288:	dc000015 	stw	r16,0(sp)
 200528c:	dfc00115 	stw	ra,4(sp)
 2005290:	3021883a 	mov	r16,r6
 2005294:	20078840 	call	2007884 <strcmp>
 2005298:	1000061e 	bne	r2,zero,20052b4 <_setlocale_r+0x40>
 200529c:	00808074 	movhi	r2,513
 20052a0:	10bc8904 	addi	r2,r2,-3548
 20052a4:	dfc00117 	ldw	ra,4(sp)
 20052a8:	dc000017 	ldw	r16,0(sp)
 20052ac:	dec00204 	addi	sp,sp,8
 20052b0:	f800283a 	ret
 20052b4:	01408074 	movhi	r5,513
 20052b8:	297c8904 	addi	r5,r5,-3548
 20052bc:	8009883a 	mov	r4,r16
 20052c0:	20078840 	call	2007884 <strcmp>
 20052c4:	103ff526 	beq	r2,zero,200529c <_setlocale_r+0x28>
 20052c8:	01408074 	movhi	r5,513
 20052cc:	297c7404 	addi	r5,r5,-3632
 20052d0:	8009883a 	mov	r4,r16
 20052d4:	20078840 	call	2007884 <strcmp>
 20052d8:	103ff026 	beq	r2,zero,200529c <_setlocale_r+0x28>
 20052dc:	0005883a 	mov	r2,zero
 20052e0:	003ff006 	br	20052a4 <_setlocale_r+0x30>
 20052e4:	00808074 	movhi	r2,513
 20052e8:	10bc8904 	addi	r2,r2,-3548
 20052ec:	f800283a 	ret

020052f0 <__locale_charset>:
 20052f0:	00808074 	movhi	r2,513
 20052f4:	10bdfa04 	addi	r2,r2,-2072
 20052f8:	f800283a 	ret

020052fc <__locale_mb_cur_max>:
 20052fc:	00808074 	movhi	r2,513
 2005300:	10839604 	addi	r2,r2,3672
 2005304:	10800017 	ldw	r2,0(r2)
 2005308:	f800283a 	ret

0200530c <__locale_msgcharset>:
 200530c:	00808074 	movhi	r2,513
 2005310:	10bdf204 	addi	r2,r2,-2104
 2005314:	f800283a 	ret

02005318 <__locale_cjk_lang>:
 2005318:	0005883a 	mov	r2,zero
 200531c:	f800283a 	ret

02005320 <_localeconv_r>:
 2005320:	00808074 	movhi	r2,513
 2005324:	10be0204 	addi	r2,r2,-2040
 2005328:	f800283a 	ret

0200532c <setlocale>:
 200532c:	00c08074 	movhi	r3,513
 2005330:	18c39504 	addi	r3,r3,3668
 2005334:	2005883a 	mov	r2,r4
 2005338:	19000017 	ldw	r4,0(r3)
 200533c:	280d883a 	mov	r6,r5
 2005340:	100b883a 	mov	r5,r2
 2005344:	20052741 	jmpi	2005274 <_setlocale_r>

02005348 <localeconv>:
 2005348:	00808074 	movhi	r2,513
 200534c:	10be0204 	addi	r2,r2,-2040
 2005350:	f800283a 	ret

02005354 <__smakebuf_r>:
 2005354:	2880030b 	ldhu	r2,12(r5)
 2005358:	10c0008c 	andi	r3,r2,2
 200535c:	1800401e 	bne	r3,zero,2005460 <__smakebuf_r+0x10c>
 2005360:	deffec04 	addi	sp,sp,-80
 2005364:	dc000f15 	stw	r16,60(sp)
 2005368:	2821883a 	mov	r16,r5
 200536c:	2940038f 	ldh	r5,14(r5)
 2005370:	dc401015 	stw	r17,64(sp)
 2005374:	dfc01315 	stw	ra,76(sp)
 2005378:	dcc01215 	stw	r19,72(sp)
 200537c:	dc801115 	stw	r18,68(sp)
 2005380:	2023883a 	mov	r17,r4
 2005384:	28001b16 	blt	r5,zero,20053f4 <__smakebuf_r+0xa0>
 2005388:	d80d883a 	mov	r6,sp
 200538c:	20092200 	call	2009220 <_fstat_r>
 2005390:	10001716 	blt	r2,zero,20053f0 <__smakebuf_r+0x9c>
 2005394:	d8800117 	ldw	r2,4(sp)
 2005398:	00e00014 	movui	r3,32768
 200539c:	10bc000c 	andi	r2,r2,61440
 20053a0:	10c03726 	beq	r2,r3,2005480 <__smakebuf_r+0x12c>
 20053a4:	80c0030b 	ldhu	r3,12(r16)
 20053a8:	18c20014 	ori	r3,r3,2048
 20053ac:	80c0030d 	sth	r3,12(r16)
 20053b0:	00c80004 	movi	r3,8192
 20053b4:	10c03c1e 	bne	r2,r3,20054a8 <__smakebuf_r+0x154>
 20053b8:	8140038f 	ldh	r5,14(r16)
 20053bc:	8809883a 	mov	r4,r17
 20053c0:	20092780 	call	2009278 <_isatty_r>
 20053c4:	10004e26 	beq	r2,zero,2005500 <__smakebuf_r+0x1ac>
 20053c8:	8080030b 	ldhu	r2,12(r16)
 20053cc:	04c00044 	movi	r19,1
 20053d0:	80c010c4 	addi	r3,r16,67
 20053d4:	14c4b03a 	or	r2,r2,r19
 20053d8:	8080030d 	sth	r2,12(r16)
 20053dc:	80c00015 	stw	r3,0(r16)
 20053e0:	80c00415 	stw	r3,16(r16)
 20053e4:	84c00515 	stw	r19,20(r16)
 20053e8:	04810004 	movi	r18,1024
 20053ec:	00000706 	br	200540c <__smakebuf_r+0xb8>
 20053f0:	8080030b 	ldhu	r2,12(r16)
 20053f4:	10c0200c 	andi	r3,r2,128
 20053f8:	18001f1e 	bne	r3,zero,2005478 <__smakebuf_r+0x124>
 20053fc:	04810004 	movi	r18,1024
 2005400:	10820014 	ori	r2,r2,2048
 2005404:	8080030d 	sth	r2,12(r16)
 2005408:	0027883a 	mov	r19,zero
 200540c:	8809883a 	mov	r4,r17
 2005410:	900b883a 	mov	r5,r18
 2005414:	200550c0 	call	200550c <_malloc_r>
 2005418:	10002e26 	beq	r2,zero,20054d4 <__smakebuf_r+0x180>
 200541c:	80c0030b 	ldhu	r3,12(r16)
 2005420:	01008034 	movhi	r4,512
 2005424:	21112f04 	addi	r4,r4,17596
 2005428:	89000f15 	stw	r4,60(r17)
 200542c:	18c02014 	ori	r3,r3,128
 2005430:	80c0030d 	sth	r3,12(r16)
 2005434:	80800015 	stw	r2,0(r16)
 2005438:	80800415 	stw	r2,16(r16)
 200543c:	84800515 	stw	r18,20(r16)
 2005440:	98001c1e 	bne	r19,zero,20054b4 <__smakebuf_r+0x160>
 2005444:	dfc01317 	ldw	ra,76(sp)
 2005448:	dcc01217 	ldw	r19,72(sp)
 200544c:	dc801117 	ldw	r18,68(sp)
 2005450:	dc401017 	ldw	r17,64(sp)
 2005454:	dc000f17 	ldw	r16,60(sp)
 2005458:	dec01404 	addi	sp,sp,80
 200545c:	f800283a 	ret
 2005460:	288010c4 	addi	r2,r5,67
 2005464:	28800015 	stw	r2,0(r5)
 2005468:	28800415 	stw	r2,16(r5)
 200546c:	00800044 	movi	r2,1
 2005470:	28800515 	stw	r2,20(r5)
 2005474:	f800283a 	ret
 2005478:	04801004 	movi	r18,64
 200547c:	003fe006 	br	2005400 <__smakebuf_r+0xac>
 2005480:	81000a17 	ldw	r4,40(r16)
 2005484:	00c08034 	movhi	r3,512
 2005488:	18de0804 	addi	r3,r3,30752
 200548c:	20ffc51e 	bne	r4,r3,20053a4 <__smakebuf_r+0x50>
 2005490:	80c0030b 	ldhu	r3,12(r16)
 2005494:	01010004 	movi	r4,1024
 2005498:	81001315 	stw	r4,76(r16)
 200549c:	1906b03a 	or	r3,r3,r4
 20054a0:	80c0030d 	sth	r3,12(r16)
 20054a4:	003fc206 	br	20053b0 <__smakebuf_r+0x5c>
 20054a8:	0027883a 	mov	r19,zero
 20054ac:	04810004 	movi	r18,1024
 20054b0:	003fd606 	br	200540c <__smakebuf_r+0xb8>
 20054b4:	8140038f 	ldh	r5,14(r16)
 20054b8:	8809883a 	mov	r4,r17
 20054bc:	20092780 	call	2009278 <_isatty_r>
 20054c0:	103fe026 	beq	r2,zero,2005444 <__smakebuf_r+0xf0>
 20054c4:	8080030b 	ldhu	r2,12(r16)
 20054c8:	10800054 	ori	r2,r2,1
 20054cc:	8080030d 	sth	r2,12(r16)
 20054d0:	003fdc06 	br	2005444 <__smakebuf_r+0xf0>
 20054d4:	8080030b 	ldhu	r2,12(r16)
 20054d8:	10c0800c 	andi	r3,r2,512
 20054dc:	183fd91e 	bne	r3,zero,2005444 <__smakebuf_r+0xf0>
 20054e0:	10800094 	ori	r2,r2,2
 20054e4:	80c010c4 	addi	r3,r16,67
 20054e8:	8080030d 	sth	r2,12(r16)
 20054ec:	00800044 	movi	r2,1
 20054f0:	80c00015 	stw	r3,0(r16)
 20054f4:	80c00415 	stw	r3,16(r16)
 20054f8:	80800515 	stw	r2,20(r16)
 20054fc:	003fd106 	br	2005444 <__smakebuf_r+0xf0>
 2005500:	04c00044 	movi	r19,1
 2005504:	04810004 	movi	r18,1024
 2005508:	003fc006 	br	200540c <__smakebuf_r+0xb8>

0200550c <_malloc_r>:
 200550c:	defff504 	addi	sp,sp,-44
 2005510:	dc800315 	stw	r18,12(sp)
 2005514:	dfc00a15 	stw	ra,40(sp)
 2005518:	df000915 	stw	fp,36(sp)
 200551c:	ddc00815 	stw	r23,32(sp)
 2005520:	dd800715 	stw	r22,28(sp)
 2005524:	dd400615 	stw	r21,24(sp)
 2005528:	dd000515 	stw	r20,20(sp)
 200552c:	dcc00415 	stw	r19,16(sp)
 2005530:	dc400215 	stw	r17,8(sp)
 2005534:	dc000115 	stw	r16,4(sp)
 2005538:	288002c4 	addi	r2,r5,11
 200553c:	00c00584 	movi	r3,22
 2005540:	2025883a 	mov	r18,r4
 2005544:	18802a2e 	bgeu	r3,r2,20055f0 <_malloc_r+0xe4>
 2005548:	047ffe04 	movi	r17,-8
 200554c:	1462703a 	and	r17,r2,r17
 2005550:	88009e16 	blt	r17,zero,20057cc <_malloc_r+0x2c0>
 2005554:	89409d36 	bltu	r17,r5,20057cc <_malloc_r+0x2c0>
 2005558:	200cf100 	call	200cf10 <__malloc_lock>
 200555c:	00807dc4 	movi	r2,503
 2005560:	14402736 	bltu	r2,r17,2005600 <_malloc_r+0xf4>
 2005564:	8806d0fa 	srli	r3,r17,3
 2005568:	04c08074 	movhi	r19,513
 200556c:	9cfe1004 	addi	r19,r19,-1984
 2005570:	18c5883a 	add	r2,r3,r3
 2005574:	1085883a 	add	r2,r2,r2
 2005578:	1085883a 	add	r2,r2,r2
 200557c:	9885883a 	add	r2,r19,r2
 2005580:	14000317 	ldw	r16,12(r2)
 2005584:	80814a26 	beq	r16,r2,2005ab0 <_malloc_r+0x5a4>
 2005588:	80c00117 	ldw	r3,4(r16)
 200558c:	81000317 	ldw	r4,12(r16)
 2005590:	00bfff04 	movi	r2,-4
 2005594:	1884703a 	and	r2,r3,r2
 2005598:	81400217 	ldw	r5,8(r16)
 200559c:	8085883a 	add	r2,r16,r2
 20055a0:	10c00117 	ldw	r3,4(r2)
 20055a4:	29000315 	stw	r4,12(r5)
 20055a8:	21400215 	stw	r5,8(r4)
 20055ac:	18c00054 	ori	r3,r3,1
 20055b0:	10c00115 	stw	r3,4(r2)
 20055b4:	9009883a 	mov	r4,r18
 20055b8:	200cf300 	call	200cf30 <__malloc_unlock>
 20055bc:	80800204 	addi	r2,r16,8
 20055c0:	dfc00a17 	ldw	ra,40(sp)
 20055c4:	df000917 	ldw	fp,36(sp)
 20055c8:	ddc00817 	ldw	r23,32(sp)
 20055cc:	dd800717 	ldw	r22,28(sp)
 20055d0:	dd400617 	ldw	r21,24(sp)
 20055d4:	dd000517 	ldw	r20,20(sp)
 20055d8:	dcc00417 	ldw	r19,16(sp)
 20055dc:	dc800317 	ldw	r18,12(sp)
 20055e0:	dc400217 	ldw	r17,8(sp)
 20055e4:	dc000117 	ldw	r16,4(sp)
 20055e8:	dec00b04 	addi	sp,sp,44
 20055ec:	f800283a 	ret
 20055f0:	04400404 	movi	r17,16
 20055f4:	89407536 	bltu	r17,r5,20057cc <_malloc_r+0x2c0>
 20055f8:	200cf100 	call	200cf10 <__malloc_lock>
 20055fc:	003fd906 	br	2005564 <_malloc_r+0x58>
 2005600:	8806d27a 	srli	r3,r17,9
 2005604:	18007526 	beq	r3,zero,20057dc <_malloc_r+0x2d0>
 2005608:	00800104 	movi	r2,4
 200560c:	10c0ef36 	bltu	r2,r3,20059cc <_malloc_r+0x4c0>
 2005610:	8806d1ba 	srli	r3,r17,6
 2005614:	19c00e04 	addi	r7,r3,56
 2005618:	39cb883a 	add	r5,r7,r7
 200561c:	04c08074 	movhi	r19,513
 2005620:	294b883a 	add	r5,r5,r5
 2005624:	9cfe1004 	addi	r19,r19,-1984
 2005628:	294b883a 	add	r5,r5,r5
 200562c:	994b883a 	add	r5,r19,r5
 2005630:	2c000317 	ldw	r16,12(r5)
 2005634:	2c000e26 	beq	r5,r16,2005670 <_malloc_r+0x164>
 2005638:	80800117 	ldw	r2,4(r16)
 200563c:	01bfff04 	movi	r6,-4
 2005640:	010003c4 	movi	r4,15
 2005644:	1184703a 	and	r2,r2,r6
 2005648:	1447c83a 	sub	r3,r2,r17
 200564c:	20c00716 	blt	r4,r3,200566c <_malloc_r+0x160>
 2005650:	1800650e 	bge	r3,zero,20057e8 <_malloc_r+0x2dc>
 2005654:	84000317 	ldw	r16,12(r16)
 2005658:	2c000526 	beq	r5,r16,2005670 <_malloc_r+0x164>
 200565c:	80800117 	ldw	r2,4(r16)
 2005660:	1184703a 	and	r2,r2,r6
 2005664:	1447c83a 	sub	r3,r2,r17
 2005668:	20fff90e 	bge	r4,r3,2005650 <_malloc_r+0x144>
 200566c:	39ffffc4 	addi	r7,r7,-1
 2005670:	38c00044 	addi	r3,r7,1
 2005674:	01808074 	movhi	r6,513
 2005678:	9c000417 	ldw	r16,16(r19)
 200567c:	31be1004 	addi	r6,r6,-1984
 2005680:	32400204 	addi	r9,r6,8
 2005684:	82410326 	beq	r16,r9,2005a94 <_malloc_r+0x588>
 2005688:	81000117 	ldw	r4,4(r16)
 200568c:	00bfff04 	movi	r2,-4
 2005690:	208e703a 	and	r7,r4,r2
 2005694:	3c45c83a 	sub	r2,r7,r17
 2005698:	010003c4 	movi	r4,15
 200569c:	2080ee16 	blt	r4,r2,2005a58 <_malloc_r+0x54c>
 20056a0:	32400515 	stw	r9,20(r6)
 20056a4:	32400415 	stw	r9,16(r6)
 20056a8:	1000510e 	bge	r2,zero,20057f0 <_malloc_r+0x2e4>
 20056ac:	00807fc4 	movi	r2,511
 20056b0:	11c0ce36 	bltu	r2,r7,20059ec <_malloc_r+0x4e0>
 20056b4:	3808d0fa 	srli	r4,r7,3
 20056b8:	01c00044 	movi	r7,1
 20056bc:	30800117 	ldw	r2,4(r6)
 20056c0:	210b883a 	add	r5,r4,r4
 20056c4:	294b883a 	add	r5,r5,r5
 20056c8:	2009d0ba 	srai	r4,r4,2
 20056cc:	294b883a 	add	r5,r5,r5
 20056d0:	298b883a 	add	r5,r5,r6
 20056d4:	2a000217 	ldw	r8,8(r5)
 20056d8:	3908983a 	sll	r4,r7,r4
 20056dc:	81400315 	stw	r5,12(r16)
 20056e0:	82000215 	stw	r8,8(r16)
 20056e4:	2088b03a 	or	r4,r4,r2
 20056e8:	2c000215 	stw	r16,8(r5)
 20056ec:	31000115 	stw	r4,4(r6)
 20056f0:	44000315 	stw	r16,12(r8)
 20056f4:	1805d0ba 	srai	r2,r3,2
 20056f8:	01400044 	movi	r5,1
 20056fc:	288a983a 	sll	r5,r5,r2
 2005700:	21404336 	bltu	r4,r5,2005810 <_malloc_r+0x304>
 2005704:	2144703a 	and	r2,r4,r5
 2005708:	10000a1e 	bne	r2,zero,2005734 <_malloc_r+0x228>
 200570c:	00bfff04 	movi	r2,-4
 2005710:	294b883a 	add	r5,r5,r5
 2005714:	1886703a 	and	r3,r3,r2
 2005718:	2144703a 	and	r2,r4,r5
 200571c:	18c00104 	addi	r3,r3,4
 2005720:	1000041e 	bne	r2,zero,2005734 <_malloc_r+0x228>
 2005724:	294b883a 	add	r5,r5,r5
 2005728:	2144703a 	and	r2,r4,r5
 200572c:	18c00104 	addi	r3,r3,4
 2005730:	103ffc26 	beq	r2,zero,2005724 <_malloc_r+0x218>
 2005734:	023fff04 	movi	r8,-4
 2005738:	01c003c4 	movi	r7,15
 200573c:	18c5883a 	add	r2,r3,r3
 2005740:	1085883a 	add	r2,r2,r2
 2005744:	1085883a 	add	r2,r2,r2
 2005748:	9895883a 	add	r10,r19,r2
 200574c:	52c00304 	addi	r11,r10,12
 2005750:	1819883a 	mov	r12,r3
 2005754:	5c000017 	ldw	r16,0(r11)
 2005758:	59bffd04 	addi	r6,r11,-12
 200575c:	8180041e 	bne	r16,r6,2005770 <_malloc_r+0x264>
 2005760:	0000ce06 	br	2005a9c <_malloc_r+0x590>
 2005764:	2000d70e 	bge	r4,zero,2005ac4 <_malloc_r+0x5b8>
 2005768:	84000317 	ldw	r16,12(r16)
 200576c:	8180cb26 	beq	r16,r6,2005a9c <_malloc_r+0x590>
 2005770:	80800117 	ldw	r2,4(r16)
 2005774:	1204703a 	and	r2,r2,r8
 2005778:	1449c83a 	sub	r4,r2,r17
 200577c:	393ff90e 	bge	r7,r4,2005764 <_malloc_r+0x258>
 2005780:	80800317 	ldw	r2,12(r16)
 2005784:	80c00217 	ldw	r3,8(r16)
 2005788:	89400054 	ori	r5,r17,1
 200578c:	81400115 	stw	r5,4(r16)
 2005790:	18800315 	stw	r2,12(r3)
 2005794:	10c00215 	stw	r3,8(r2)
 2005798:	8463883a 	add	r17,r16,r17
 200579c:	9c400515 	stw	r17,20(r19)
 20057a0:	9c400415 	stw	r17,16(r19)
 20057a4:	20800054 	ori	r2,r4,1
 20057a8:	88800115 	stw	r2,4(r17)
 20057ac:	8a400315 	stw	r9,12(r17)
 20057b0:	8a400215 	stw	r9,8(r17)
 20057b4:	8923883a 	add	r17,r17,r4
 20057b8:	89000015 	stw	r4,0(r17)
 20057bc:	9009883a 	mov	r4,r18
 20057c0:	200cf300 	call	200cf30 <__malloc_unlock>
 20057c4:	80800204 	addi	r2,r16,8
 20057c8:	003f7d06 	br	20055c0 <_malloc_r+0xb4>
 20057cc:	00800304 	movi	r2,12
 20057d0:	90800015 	stw	r2,0(r18)
 20057d4:	0005883a 	mov	r2,zero
 20057d8:	003f7906 	br	20055c0 <_malloc_r+0xb4>
 20057dc:	01401f84 	movi	r5,126
 20057e0:	01c00fc4 	movi	r7,63
 20057e4:	003f8d06 	br	200561c <_malloc_r+0x110>
 20057e8:	81000317 	ldw	r4,12(r16)
 20057ec:	003f6a06 	br	2005598 <_malloc_r+0x8c>
 20057f0:	81c5883a 	add	r2,r16,r7
 20057f4:	10c00117 	ldw	r3,4(r2)
 20057f8:	9009883a 	mov	r4,r18
 20057fc:	18c00054 	ori	r3,r3,1
 2005800:	10c00115 	stw	r3,4(r2)
 2005804:	200cf300 	call	200cf30 <__malloc_unlock>
 2005808:	80800204 	addi	r2,r16,8
 200580c:	003f6c06 	br	20055c0 <_malloc_r+0xb4>
 2005810:	9c000217 	ldw	r16,8(r19)
 2005814:	00bfff04 	movi	r2,-4
 2005818:	85800117 	ldw	r22,4(r16)
 200581c:	b0ac703a 	and	r22,r22,r2
 2005820:	b4400336 	bltu	r22,r17,2005830 <_malloc_r+0x324>
 2005824:	b445c83a 	sub	r2,r22,r17
 2005828:	00c003c4 	movi	r3,15
 200582c:	18805d16 	blt	r3,r2,20059a4 <_malloc_r+0x498>
 2005830:	05c08074 	movhi	r23,513
 2005834:	00808074 	movhi	r2,513
 2005838:	bdc39704 	addi	r23,r23,3676
 200583c:	108a6404 	addi	r2,r2,10640
 2005840:	15400017 	ldw	r21,0(r2)
 2005844:	b9000017 	ldw	r4,0(r23)
 2005848:	00ffffc4 	movi	r3,-1
 200584c:	858d883a 	add	r6,r16,r22
 2005850:	8d6b883a 	add	r21,r17,r21
 2005854:	20c0e426 	beq	r4,r3,2005be8 <_malloc_r+0x6dc>
 2005858:	ad4403c4 	addi	r21,r21,4111
 200585c:	00fc0004 	movi	r3,-4096
 2005860:	a8ea703a 	and	r21,r21,r3
 2005864:	9009883a 	mov	r4,r18
 2005868:	a80b883a 	mov	r5,r21
 200586c:	d9800015 	stw	r6,0(sp)
 2005870:	20076f40 	call	20076f4 <_sbrk_r>
 2005874:	00ffffc4 	movi	r3,-1
 2005878:	1029883a 	mov	r20,r2
 200587c:	d9800017 	ldw	r6,0(sp)
 2005880:	10c0a426 	beq	r2,r3,2005b14 <_malloc_r+0x608>
 2005884:	1180a236 	bltu	r2,r6,2005b10 <_malloc_r+0x604>
 2005888:	07008074 	movhi	fp,513
 200588c:	e70a6c04 	addi	fp,fp,10672
 2005890:	e0c00017 	ldw	r3,0(fp)
 2005894:	a8c7883a 	add	r3,r21,r3
 2005898:	e0c00015 	stw	r3,0(fp)
 200589c:	3500da26 	beq	r6,r20,2005c08 <_malloc_r+0x6fc>
 20058a0:	b9000017 	ldw	r4,0(r23)
 20058a4:	00bfffc4 	movi	r2,-1
 20058a8:	2080e426 	beq	r4,r2,2005c3c <_malloc_r+0x730>
 20058ac:	a185c83a 	sub	r2,r20,r6
 20058b0:	1885883a 	add	r2,r3,r2
 20058b4:	e0800015 	stw	r2,0(fp)
 20058b8:	a0c001cc 	andi	r3,r20,7
 20058bc:	1800b526 	beq	r3,zero,2005b94 <_malloc_r+0x688>
 20058c0:	a0e9c83a 	sub	r20,r20,r3
 20058c4:	00840204 	movi	r2,4104
 20058c8:	a5000204 	addi	r20,r20,8
 20058cc:	10c7c83a 	sub	r3,r2,r3
 20058d0:	a545883a 	add	r2,r20,r21
 20058d4:	1083ffcc 	andi	r2,r2,4095
 20058d8:	18abc83a 	sub	r21,r3,r2
 20058dc:	9009883a 	mov	r4,r18
 20058e0:	a80b883a 	mov	r5,r21
 20058e4:	20076f40 	call	20076f4 <_sbrk_r>
 20058e8:	00ffffc4 	movi	r3,-1
 20058ec:	10c0d026 	beq	r2,r3,2005c30 <_malloc_r+0x724>
 20058f0:	1507c83a 	sub	r3,r2,r20
 20058f4:	a8c7883a 	add	r3,r21,r3
 20058f8:	18c00054 	ori	r3,r3,1
 20058fc:	e0800017 	ldw	r2,0(fp)
 2005900:	9d000215 	stw	r20,8(r19)
 2005904:	a0c00115 	stw	r3,4(r20)
 2005908:	a887883a 	add	r3,r21,r2
 200590c:	e0c00015 	stw	r3,0(fp)
 2005910:	84c00e26 	beq	r16,r19,200594c <_malloc_r+0x440>
 2005914:	018003c4 	movi	r6,15
 2005918:	3580a02e 	bgeu	r6,r22,2005b9c <_malloc_r+0x690>
 200591c:	81400117 	ldw	r5,4(r16)
 2005920:	013ffe04 	movi	r4,-8
 2005924:	b0bffd04 	addi	r2,r22,-12
 2005928:	1104703a 	and	r2,r2,r4
 200592c:	2900004c 	andi	r4,r5,1
 2005930:	1108b03a 	or	r4,r2,r4
 2005934:	81000115 	stw	r4,4(r16)
 2005938:	01400144 	movi	r5,5
 200593c:	8089883a 	add	r4,r16,r2
 2005940:	21400115 	stw	r5,4(r4)
 2005944:	21400215 	stw	r5,8(r4)
 2005948:	3080c036 	bltu	r6,r2,2005c4c <_malloc_r+0x740>
 200594c:	00808074 	movhi	r2,513
 2005950:	108a6304 	addi	r2,r2,10636
 2005954:	11000017 	ldw	r4,0(r2)
 2005958:	20c0012e 	bgeu	r4,r3,2005960 <_malloc_r+0x454>
 200595c:	10c00015 	stw	r3,0(r2)
 2005960:	00808074 	movhi	r2,513
 2005964:	108a6204 	addi	r2,r2,10632
 2005968:	11000017 	ldw	r4,0(r2)
 200596c:	9c000217 	ldw	r16,8(r19)
 2005970:	20c0012e 	bgeu	r4,r3,2005978 <_malloc_r+0x46c>
 2005974:	10c00015 	stw	r3,0(r2)
 2005978:	80c00117 	ldw	r3,4(r16)
 200597c:	00bfff04 	movi	r2,-4
 2005980:	1886703a 	and	r3,r3,r2
 2005984:	1c45c83a 	sub	r2,r3,r17
 2005988:	1c400236 	bltu	r3,r17,2005994 <_malloc_r+0x488>
 200598c:	00c003c4 	movi	r3,15
 2005990:	18800416 	blt	r3,r2,20059a4 <_malloc_r+0x498>
 2005994:	9009883a 	mov	r4,r18
 2005998:	200cf300 	call	200cf30 <__malloc_unlock>
 200599c:	0005883a 	mov	r2,zero
 20059a0:	003f0706 	br	20055c0 <_malloc_r+0xb4>
 20059a4:	88c00054 	ori	r3,r17,1
 20059a8:	80c00115 	stw	r3,4(r16)
 20059ac:	8463883a 	add	r17,r16,r17
 20059b0:	10800054 	ori	r2,r2,1
 20059b4:	9c400215 	stw	r17,8(r19)
 20059b8:	88800115 	stw	r2,4(r17)
 20059bc:	9009883a 	mov	r4,r18
 20059c0:	200cf300 	call	200cf30 <__malloc_unlock>
 20059c4:	80800204 	addi	r2,r16,8
 20059c8:	003efd06 	br	20055c0 <_malloc_r+0xb4>
 20059cc:	00800504 	movi	r2,20
 20059d0:	10c0482e 	bgeu	r2,r3,2005af4 <_malloc_r+0x5e8>
 20059d4:	00801504 	movi	r2,84
 20059d8:	10c06836 	bltu	r2,r3,2005b7c <_malloc_r+0x670>
 20059dc:	8806d33a 	srli	r3,r17,12
 20059e0:	19c01b84 	addi	r7,r3,110
 20059e4:	39cb883a 	add	r5,r7,r7
 20059e8:	003f0c06 	br	200561c <_malloc_r+0x110>
 20059ec:	3804d27a 	srli	r2,r7,9
 20059f0:	01000104 	movi	r4,4
 20059f4:	2080422e 	bgeu	r4,r2,2005b00 <_malloc_r+0x5f4>
 20059f8:	01000504 	movi	r4,20
 20059fc:	20807c36 	bltu	r4,r2,2005bf0 <_malloc_r+0x6e4>
 2005a00:	110016c4 	addi	r4,r2,91
 2005a04:	210b883a 	add	r5,r4,r4
 2005a08:	294b883a 	add	r5,r5,r5
 2005a0c:	294b883a 	add	r5,r5,r5
 2005a10:	994b883a 	add	r5,r19,r5
 2005a14:	28800217 	ldw	r2,8(r5)
 2005a18:	02008074 	movhi	r8,513
 2005a1c:	423e1004 	addi	r8,r8,-1984
 2005a20:	11406326 	beq	r2,r5,2005bb0 <_malloc_r+0x6a4>
 2005a24:	01bfff04 	movi	r6,-4
 2005a28:	11000117 	ldw	r4,4(r2)
 2005a2c:	2188703a 	and	r4,r4,r6
 2005a30:	3900022e 	bgeu	r7,r4,2005a3c <_malloc_r+0x530>
 2005a34:	10800217 	ldw	r2,8(r2)
 2005a38:	28bffb1e 	bne	r5,r2,2005a28 <_malloc_r+0x51c>
 2005a3c:	11800317 	ldw	r6,12(r2)
 2005a40:	99000117 	ldw	r4,4(r19)
 2005a44:	81800315 	stw	r6,12(r16)
 2005a48:	80800215 	stw	r2,8(r16)
 2005a4c:	34000215 	stw	r16,8(r6)
 2005a50:	14000315 	stw	r16,12(r2)
 2005a54:	003f2706 	br	20056f4 <_malloc_r+0x1e8>
 2005a58:	88c00054 	ori	r3,r17,1
 2005a5c:	80c00115 	stw	r3,4(r16)
 2005a60:	8463883a 	add	r17,r16,r17
 2005a64:	34400515 	stw	r17,20(r6)
 2005a68:	34400415 	stw	r17,16(r6)
 2005a6c:	10c00054 	ori	r3,r2,1
 2005a70:	8a400315 	stw	r9,12(r17)
 2005a74:	8a400215 	stw	r9,8(r17)
 2005a78:	88c00115 	stw	r3,4(r17)
 2005a7c:	88a3883a 	add	r17,r17,r2
 2005a80:	88800015 	stw	r2,0(r17)
 2005a84:	9009883a 	mov	r4,r18
 2005a88:	200cf300 	call	200cf30 <__malloc_unlock>
 2005a8c:	80800204 	addi	r2,r16,8
 2005a90:	003ecb06 	br	20055c0 <_malloc_r+0xb4>
 2005a94:	31000117 	ldw	r4,4(r6)
 2005a98:	003f1606 	br	20056f4 <_malloc_r+0x1e8>
 2005a9c:	63000044 	addi	r12,r12,1
 2005aa0:	608000cc 	andi	r2,r12,3
 2005aa4:	5ac00204 	addi	r11,r11,8
 2005aa8:	103f2a1e 	bne	r2,zero,2005754 <_malloc_r+0x248>
 2005aac:	00002106 	br	2005b34 <_malloc_r+0x628>
 2005ab0:	80800204 	addi	r2,r16,8
 2005ab4:	84000517 	ldw	r16,20(r16)
 2005ab8:	143eb31e 	bne	r2,r16,2005588 <_malloc_r+0x7c>
 2005abc:	18c00084 	addi	r3,r3,2
 2005ac0:	003eec06 	br	2005674 <_malloc_r+0x168>
 2005ac4:	8085883a 	add	r2,r16,r2
 2005ac8:	10c00117 	ldw	r3,4(r2)
 2005acc:	81000317 	ldw	r4,12(r16)
 2005ad0:	81400217 	ldw	r5,8(r16)
 2005ad4:	18c00054 	ori	r3,r3,1
 2005ad8:	10c00115 	stw	r3,4(r2)
 2005adc:	29000315 	stw	r4,12(r5)
 2005ae0:	21400215 	stw	r5,8(r4)
 2005ae4:	9009883a 	mov	r4,r18
 2005ae8:	200cf300 	call	200cf30 <__malloc_unlock>
 2005aec:	80800204 	addi	r2,r16,8
 2005af0:	003eb306 	br	20055c0 <_malloc_r+0xb4>
 2005af4:	19c016c4 	addi	r7,r3,91
 2005af8:	39cb883a 	add	r5,r7,r7
 2005afc:	003ec706 	br	200561c <_malloc_r+0x110>
 2005b00:	3804d1ba 	srli	r2,r7,6
 2005b04:	11000e04 	addi	r4,r2,56
 2005b08:	210b883a 	add	r5,r4,r4
 2005b0c:	003fbe06 	br	2005a08 <_malloc_r+0x4fc>
 2005b10:	84ff5d26 	beq	r16,r19,2005888 <_malloc_r+0x37c>
 2005b14:	9c000217 	ldw	r16,8(r19)
 2005b18:	00bfff04 	movi	r2,-4
 2005b1c:	80c00117 	ldw	r3,4(r16)
 2005b20:	1886703a 	and	r3,r3,r2
 2005b24:	003f9706 	br	2005984 <_malloc_r+0x478>
 2005b28:	52800017 	ldw	r10,0(r10)
 2005b2c:	18ffffc4 	addi	r3,r3,-1
 2005b30:	50805c1e 	bne	r10,r2,2005ca4 <_malloc_r+0x798>
 2005b34:	190000cc 	andi	r4,r3,3
 2005b38:	50bffe04 	addi	r2,r10,-8
 2005b3c:	203ffa1e 	bne	r4,zero,2005b28 <_malloc_r+0x61c>
 2005b40:	98800117 	ldw	r2,4(r19)
 2005b44:	0146303a 	nor	r3,zero,r5
 2005b48:	1884703a 	and	r2,r3,r2
 2005b4c:	98800115 	stw	r2,4(r19)
 2005b50:	294b883a 	add	r5,r5,r5
 2005b54:	117f2e36 	bltu	r2,r5,2005810 <_malloc_r+0x304>
 2005b58:	283f2d26 	beq	r5,zero,2005810 <_malloc_r+0x304>
 2005b5c:	1146703a 	and	r3,r2,r5
 2005b60:	1800521e 	bne	r3,zero,2005cac <_malloc_r+0x7a0>
 2005b64:	6007883a 	mov	r3,r12
 2005b68:	294b883a 	add	r5,r5,r5
 2005b6c:	1148703a 	and	r4,r2,r5
 2005b70:	18c00104 	addi	r3,r3,4
 2005b74:	203ffc26 	beq	r4,zero,2005b68 <_malloc_r+0x65c>
 2005b78:	003ef006 	br	200573c <_malloc_r+0x230>
 2005b7c:	00805504 	movi	r2,340
 2005b80:	10c01336 	bltu	r2,r3,2005bd0 <_malloc_r+0x6c4>
 2005b84:	8806d3fa 	srli	r3,r17,15
 2005b88:	19c01dc4 	addi	r7,r3,119
 2005b8c:	39cb883a 	add	r5,r7,r7
 2005b90:	003ea206 	br	200561c <_malloc_r+0x110>
 2005b94:	00c40004 	movi	r3,4096
 2005b98:	003f4d06 	br	20058d0 <_malloc_r+0x3c4>
 2005b9c:	00800044 	movi	r2,1
 2005ba0:	a0800115 	stw	r2,4(r20)
 2005ba4:	a021883a 	mov	r16,r20
 2005ba8:	0007883a 	mov	r3,zero
 2005bac:	003f7506 	br	2005984 <_malloc_r+0x478>
 2005bb0:	200bd0ba 	srai	r5,r4,2
 2005bb4:	01800044 	movi	r6,1
 2005bb8:	41000117 	ldw	r4,4(r8)
 2005bbc:	314a983a 	sll	r5,r6,r5
 2005bc0:	100d883a 	mov	r6,r2
 2005bc4:	2908b03a 	or	r4,r5,r4
 2005bc8:	41000115 	stw	r4,4(r8)
 2005bcc:	003f9d06 	br	2005a44 <_malloc_r+0x538>
 2005bd0:	00815504 	movi	r2,1364
 2005bd4:	10c01336 	bltu	r2,r3,2005c24 <_malloc_r+0x718>
 2005bd8:	8806d4ba 	srli	r3,r17,18
 2005bdc:	19c01f04 	addi	r7,r3,124
 2005be0:	39cb883a 	add	r5,r7,r7
 2005be4:	003e8d06 	br	200561c <_malloc_r+0x110>
 2005be8:	ad400404 	addi	r21,r21,16
 2005bec:	003f1d06 	br	2005864 <_malloc_r+0x358>
 2005bf0:	01001504 	movi	r4,84
 2005bf4:	20801c36 	bltu	r4,r2,2005c68 <_malloc_r+0x75c>
 2005bf8:	3804d33a 	srli	r2,r7,12
 2005bfc:	11001b84 	addi	r4,r2,110
 2005c00:	210b883a 	add	r5,r4,r4
 2005c04:	003f8006 	br	2005a08 <_malloc_r+0x4fc>
 2005c08:	3083ffcc 	andi	r2,r6,4095
 2005c0c:	103f241e 	bne	r2,zero,20058a0 <_malloc_r+0x394>
 2005c10:	99000217 	ldw	r4,8(r19)
 2005c14:	ad85883a 	add	r2,r21,r22
 2005c18:	10800054 	ori	r2,r2,1
 2005c1c:	20800115 	stw	r2,4(r4)
 2005c20:	003f4a06 	br	200594c <_malloc_r+0x440>
 2005c24:	01403f04 	movi	r5,252
 2005c28:	01c01f84 	movi	r7,126
 2005c2c:	003e7b06 	br	200561c <_malloc_r+0x110>
 2005c30:	00c00044 	movi	r3,1
 2005c34:	002b883a 	mov	r21,zero
 2005c38:	003f3006 	br	20058fc <_malloc_r+0x3f0>
 2005c3c:	00808074 	movhi	r2,513
 2005c40:	10839704 	addi	r2,r2,3676
 2005c44:	15000015 	stw	r20,0(r2)
 2005c48:	003f1b06 	br	20058b8 <_malloc_r+0x3ac>
 2005c4c:	9009883a 	mov	r4,r18
 2005c50:	81400204 	addi	r5,r16,8
 2005c54:	20049700 	call	2004970 <_free_r>
 2005c58:	00808074 	movhi	r2,513
 2005c5c:	108a6c04 	addi	r2,r2,10672
 2005c60:	10c00017 	ldw	r3,0(r2)
 2005c64:	003f3906 	br	200594c <_malloc_r+0x440>
 2005c68:	01005504 	movi	r4,340
 2005c6c:	20800436 	bltu	r4,r2,2005c80 <_malloc_r+0x774>
 2005c70:	3804d3fa 	srli	r2,r7,15
 2005c74:	11001dc4 	addi	r4,r2,119
 2005c78:	210b883a 	add	r5,r4,r4
 2005c7c:	003f6206 	br	2005a08 <_malloc_r+0x4fc>
 2005c80:	01015504 	movi	r4,1364
 2005c84:	20800436 	bltu	r4,r2,2005c98 <_malloc_r+0x78c>
 2005c88:	3804d4ba 	srli	r2,r7,18
 2005c8c:	11001f04 	addi	r4,r2,124
 2005c90:	210b883a 	add	r5,r4,r4
 2005c94:	003f5c06 	br	2005a08 <_malloc_r+0x4fc>
 2005c98:	01403f04 	movi	r5,252
 2005c9c:	01001f84 	movi	r4,126
 2005ca0:	003f5906 	br	2005a08 <_malloc_r+0x4fc>
 2005ca4:	98800117 	ldw	r2,4(r19)
 2005ca8:	003fa906 	br	2005b50 <_malloc_r+0x644>
 2005cac:	6007883a 	mov	r3,r12
 2005cb0:	003ea206 	br	200573c <_malloc_r+0x230>

02005cb4 <memchr>:
 2005cb4:	208000cc 	andi	r2,r4,3
 2005cb8:	280f883a 	mov	r7,r5
 2005cbc:	10003526 	beq	r2,zero,2005d94 <memchr+0xe0>
 2005cc0:	30bfffc4 	addi	r2,r6,-1
 2005cc4:	30001b26 	beq	r6,zero,2005d34 <memchr+0x80>
 2005cc8:	21800003 	ldbu	r6,0(r4)
 2005ccc:	28c03fcc 	andi	r3,r5,255
 2005cd0:	30c01a26 	beq	r6,r3,2005d3c <memchr+0x88>
 2005cd4:	180d883a 	mov	r6,r3
 2005cd8:	00000406 	br	2005cec <memchr+0x38>
 2005cdc:	10001526 	beq	r2,zero,2005d34 <memchr+0x80>
 2005ce0:	20c00003 	ldbu	r3,0(r4)
 2005ce4:	10bfffc4 	addi	r2,r2,-1
 2005ce8:	19801426 	beq	r3,r6,2005d3c <memchr+0x88>
 2005cec:	21000044 	addi	r4,r4,1
 2005cf0:	20c000cc 	andi	r3,r4,3
 2005cf4:	183ff91e 	bne	r3,zero,2005cdc <memchr+0x28>
 2005cf8:	024000c4 	movi	r9,3
 2005cfc:	48801136 	bltu	r9,r2,2005d44 <memchr+0x90>
 2005d00:	10000c26 	beq	r2,zero,2005d34 <memchr+0x80>
 2005d04:	20c00003 	ldbu	r3,0(r4)
 2005d08:	29403fcc 	andi	r5,r5,255
 2005d0c:	19400b26 	beq	r3,r5,2005d3c <memchr+0x88>
 2005d10:	20c00044 	addi	r3,r4,1
 2005d14:	2085883a 	add	r2,r4,r2
 2005d18:	39803fcc 	andi	r6,r7,255
 2005d1c:	00000306 	br	2005d2c <memchr+0x78>
 2005d20:	18c00044 	addi	r3,r3,1
 2005d24:	197fffc3 	ldbu	r5,-1(r3)
 2005d28:	29800426 	beq	r5,r6,2005d3c <memchr+0x88>
 2005d2c:	1809883a 	mov	r4,r3
 2005d30:	18bffb1e 	bne	r3,r2,2005d20 <memchr+0x6c>
 2005d34:	0005883a 	mov	r2,zero
 2005d38:	f800283a 	ret
 2005d3c:	2005883a 	mov	r2,r4
 2005d40:	f800283a 	ret
 2005d44:	28c03fcc 	andi	r3,r5,255
 2005d48:	1810923a 	slli	r8,r3,8
 2005d4c:	02ffbff4 	movhi	r11,65279
 2005d50:	02a02074 	movhi	r10,32897
 2005d54:	40c6b03a 	or	r3,r8,r3
 2005d58:	1810943a 	slli	r8,r3,16
 2005d5c:	5affbfc4 	addi	r11,r11,-257
 2005d60:	52a02004 	addi	r10,r10,-32640
 2005d64:	40d0b03a 	or	r8,r8,r3
 2005d68:	20c00017 	ldw	r3,0(r4)
 2005d6c:	40c6f03a 	xor	r3,r8,r3
 2005d70:	1acd883a 	add	r6,r3,r11
 2005d74:	00c6303a 	nor	r3,zero,r3
 2005d78:	30c6703a 	and	r3,r6,r3
 2005d7c:	1a86703a 	and	r3,r3,r10
 2005d80:	183fdf1e 	bne	r3,zero,2005d00 <memchr+0x4c>
 2005d84:	10bfff04 	addi	r2,r2,-4
 2005d88:	21000104 	addi	r4,r4,4
 2005d8c:	48bff636 	bltu	r9,r2,2005d68 <memchr+0xb4>
 2005d90:	003fdb06 	br	2005d00 <memchr+0x4c>
 2005d94:	3005883a 	mov	r2,r6
 2005d98:	003fd706 	br	2005cf8 <memchr+0x44>

02005d9c <memcpy>:
 2005d9c:	deffff04 	addi	sp,sp,-4
 2005da0:	dc000015 	stw	r16,0(sp)
 2005da4:	00c003c4 	movi	r3,15
 2005da8:	2005883a 	mov	r2,r4
 2005dac:	1980432e 	bgeu	r3,r6,2005ebc <memcpy+0x120>
 2005db0:	2146b03a 	or	r3,r4,r5
 2005db4:	18c000cc 	andi	r3,r3,3
 2005db8:	1800421e 	bne	r3,zero,2005ec4 <memcpy+0x128>
 2005dbc:	343ffc04 	addi	r16,r6,-16
 2005dc0:	8020d13a 	srli	r16,r16,4
 2005dc4:	28c00104 	addi	r3,r5,4
 2005dc8:	23400104 	addi	r13,r4,4
 2005dcc:	801e913a 	slli	r15,r16,4
 2005dd0:	2b000204 	addi	r12,r5,8
 2005dd4:	22c00204 	addi	r11,r4,8
 2005dd8:	7bc00504 	addi	r15,r15,20
 2005ddc:	2a800304 	addi	r10,r5,12
 2005de0:	22400304 	addi	r9,r4,12
 2005de4:	2bdf883a 	add	r15,r5,r15
 2005de8:	2811883a 	mov	r8,r5
 2005dec:	200f883a 	mov	r7,r4
 2005df0:	41000017 	ldw	r4,0(r8)
 2005df4:	39c00404 	addi	r7,r7,16
 2005df8:	18c00404 	addi	r3,r3,16
 2005dfc:	393ffc15 	stw	r4,-16(r7)
 2005e00:	1bbffc17 	ldw	r14,-16(r3)
 2005e04:	6b400404 	addi	r13,r13,16
 2005e08:	5ac00404 	addi	r11,r11,16
 2005e0c:	6bbffc15 	stw	r14,-16(r13)
 2005e10:	63800017 	ldw	r14,0(r12)
 2005e14:	4a400404 	addi	r9,r9,16
 2005e18:	42000404 	addi	r8,r8,16
 2005e1c:	5bbffc15 	stw	r14,-16(r11)
 2005e20:	53800017 	ldw	r14,0(r10)
 2005e24:	63000404 	addi	r12,r12,16
 2005e28:	52800404 	addi	r10,r10,16
 2005e2c:	4bbffc15 	stw	r14,-16(r9)
 2005e30:	1bffef1e 	bne	r3,r15,2005df0 <memcpy+0x54>
 2005e34:	81c00044 	addi	r7,r16,1
 2005e38:	380e913a 	slli	r7,r7,4
 2005e3c:	310003cc 	andi	r4,r6,15
 2005e40:	02c000c4 	movi	r11,3
 2005e44:	11c7883a 	add	r3,r2,r7
 2005e48:	29cb883a 	add	r5,r5,r7
 2005e4c:	59001f2e 	bgeu	r11,r4,2005ecc <memcpy+0x130>
 2005e50:	1813883a 	mov	r9,r3
 2005e54:	2811883a 	mov	r8,r5
 2005e58:	200f883a 	mov	r7,r4
 2005e5c:	42800017 	ldw	r10,0(r8)
 2005e60:	4a400104 	addi	r9,r9,4
 2005e64:	39ffff04 	addi	r7,r7,-4
 2005e68:	4abfff15 	stw	r10,-4(r9)
 2005e6c:	42000104 	addi	r8,r8,4
 2005e70:	59fffa36 	bltu	r11,r7,2005e5c <memcpy+0xc0>
 2005e74:	213fff04 	addi	r4,r4,-4
 2005e78:	2008d0ba 	srli	r4,r4,2
 2005e7c:	318000cc 	andi	r6,r6,3
 2005e80:	21000044 	addi	r4,r4,1
 2005e84:	2109883a 	add	r4,r4,r4
 2005e88:	2109883a 	add	r4,r4,r4
 2005e8c:	1907883a 	add	r3,r3,r4
 2005e90:	290b883a 	add	r5,r5,r4
 2005e94:	30000626 	beq	r6,zero,2005eb0 <memcpy+0x114>
 2005e98:	198d883a 	add	r6,r3,r6
 2005e9c:	29c00003 	ldbu	r7,0(r5)
 2005ea0:	18c00044 	addi	r3,r3,1
 2005ea4:	29400044 	addi	r5,r5,1
 2005ea8:	19ffffc5 	stb	r7,-1(r3)
 2005eac:	19bffb1e 	bne	r3,r6,2005e9c <memcpy+0x100>
 2005eb0:	dc000017 	ldw	r16,0(sp)
 2005eb4:	dec00104 	addi	sp,sp,4
 2005eb8:	f800283a 	ret
 2005ebc:	2007883a 	mov	r3,r4
 2005ec0:	003ff406 	br	2005e94 <memcpy+0xf8>
 2005ec4:	2007883a 	mov	r3,r4
 2005ec8:	003ff306 	br	2005e98 <memcpy+0xfc>
 2005ecc:	200d883a 	mov	r6,r4
 2005ed0:	003ff006 	br	2005e94 <memcpy+0xf8>

02005ed4 <memmove>:
 2005ed4:	2005883a 	mov	r2,r4
 2005ed8:	29000b2e 	bgeu	r5,r4,2005f08 <memmove+0x34>
 2005edc:	298f883a 	add	r7,r5,r6
 2005ee0:	21c0092e 	bgeu	r4,r7,2005f08 <memmove+0x34>
 2005ee4:	2187883a 	add	r3,r4,r6
 2005ee8:	198bc83a 	sub	r5,r3,r6
 2005eec:	30004b26 	beq	r6,zero,200601c <memmove+0x148>
 2005ef0:	39ffffc4 	addi	r7,r7,-1
 2005ef4:	39000003 	ldbu	r4,0(r7)
 2005ef8:	18ffffc4 	addi	r3,r3,-1
 2005efc:	19000005 	stb	r4,0(r3)
 2005f00:	197ffb1e 	bne	r3,r5,2005ef0 <memmove+0x1c>
 2005f04:	f800283a 	ret
 2005f08:	00c003c4 	movi	r3,15
 2005f0c:	1980412e 	bgeu	r3,r6,2006014 <memmove+0x140>
 2005f10:	1146b03a 	or	r3,r2,r5
 2005f14:	18c000cc 	andi	r3,r3,3
 2005f18:	1800411e 	bne	r3,zero,2006020 <memmove+0x14c>
 2005f1c:	33fffc04 	addi	r15,r6,-16
 2005f20:	781ed13a 	srli	r15,r15,4
 2005f24:	28c00104 	addi	r3,r5,4
 2005f28:	13400104 	addi	r13,r2,4
 2005f2c:	781c913a 	slli	r14,r15,4
 2005f30:	2b000204 	addi	r12,r5,8
 2005f34:	12c00204 	addi	r11,r2,8
 2005f38:	73800504 	addi	r14,r14,20
 2005f3c:	2a800304 	addi	r10,r5,12
 2005f40:	12400304 	addi	r9,r2,12
 2005f44:	2b9d883a 	add	r14,r5,r14
 2005f48:	2811883a 	mov	r8,r5
 2005f4c:	100f883a 	mov	r7,r2
 2005f50:	41000017 	ldw	r4,0(r8)
 2005f54:	39c00404 	addi	r7,r7,16
 2005f58:	18c00404 	addi	r3,r3,16
 2005f5c:	393ffc15 	stw	r4,-16(r7)
 2005f60:	193ffc17 	ldw	r4,-16(r3)
 2005f64:	6b400404 	addi	r13,r13,16
 2005f68:	5ac00404 	addi	r11,r11,16
 2005f6c:	693ffc15 	stw	r4,-16(r13)
 2005f70:	61000017 	ldw	r4,0(r12)
 2005f74:	4a400404 	addi	r9,r9,16
 2005f78:	42000404 	addi	r8,r8,16
 2005f7c:	593ffc15 	stw	r4,-16(r11)
 2005f80:	51000017 	ldw	r4,0(r10)
 2005f84:	63000404 	addi	r12,r12,16
 2005f88:	52800404 	addi	r10,r10,16
 2005f8c:	493ffc15 	stw	r4,-16(r9)
 2005f90:	1bbfef1e 	bne	r3,r14,2005f50 <memmove+0x7c>
 2005f94:	79000044 	addi	r4,r15,1
 2005f98:	2008913a 	slli	r4,r4,4
 2005f9c:	328003cc 	andi	r10,r6,15
 2005fa0:	02c000c4 	movi	r11,3
 2005fa4:	1107883a 	add	r3,r2,r4
 2005fa8:	290b883a 	add	r5,r5,r4
 2005fac:	5a801e2e 	bgeu	r11,r10,2006028 <memmove+0x154>
 2005fb0:	1813883a 	mov	r9,r3
 2005fb4:	2811883a 	mov	r8,r5
 2005fb8:	500f883a 	mov	r7,r10
 2005fbc:	41000017 	ldw	r4,0(r8)
 2005fc0:	4a400104 	addi	r9,r9,4
 2005fc4:	39ffff04 	addi	r7,r7,-4
 2005fc8:	493fff15 	stw	r4,-4(r9)
 2005fcc:	42000104 	addi	r8,r8,4
 2005fd0:	59fffa36 	bltu	r11,r7,2005fbc <memmove+0xe8>
 2005fd4:	513fff04 	addi	r4,r10,-4
 2005fd8:	2008d0ba 	srli	r4,r4,2
 2005fdc:	318000cc 	andi	r6,r6,3
 2005fe0:	21000044 	addi	r4,r4,1
 2005fe4:	2109883a 	add	r4,r4,r4
 2005fe8:	2109883a 	add	r4,r4,r4
 2005fec:	1907883a 	add	r3,r3,r4
 2005ff0:	290b883a 	add	r5,r5,r4
 2005ff4:	30000926 	beq	r6,zero,200601c <memmove+0x148>
 2005ff8:	198d883a 	add	r6,r3,r6
 2005ffc:	29c00003 	ldbu	r7,0(r5)
 2006000:	18c00044 	addi	r3,r3,1
 2006004:	29400044 	addi	r5,r5,1
 2006008:	19ffffc5 	stb	r7,-1(r3)
 200600c:	19bffb1e 	bne	r3,r6,2005ffc <memmove+0x128>
 2006010:	f800283a 	ret
 2006014:	1007883a 	mov	r3,r2
 2006018:	003ff606 	br	2005ff4 <memmove+0x120>
 200601c:	f800283a 	ret
 2006020:	1007883a 	mov	r3,r2
 2006024:	003ff406 	br	2005ff8 <memmove+0x124>
 2006028:	500d883a 	mov	r6,r10
 200602c:	003ff106 	br	2005ff4 <memmove+0x120>

02006030 <memset>:
 2006030:	20c000cc 	andi	r3,r4,3
 2006034:	2005883a 	mov	r2,r4
 2006038:	18004326 	beq	r3,zero,2006148 <memset+0x118>
 200603c:	31ffffc4 	addi	r7,r6,-1
 2006040:	30004026 	beq	r6,zero,2006144 <memset+0x114>
 2006044:	2813883a 	mov	r9,r5
 2006048:	200d883a 	mov	r6,r4
 200604c:	2007883a 	mov	r3,r4
 2006050:	00000406 	br	2006064 <memset+0x34>
 2006054:	3a3fffc4 	addi	r8,r7,-1
 2006058:	31800044 	addi	r6,r6,1
 200605c:	38003926 	beq	r7,zero,2006144 <memset+0x114>
 2006060:	400f883a 	mov	r7,r8
 2006064:	18c00044 	addi	r3,r3,1
 2006068:	32400005 	stb	r9,0(r6)
 200606c:	1a0000cc 	andi	r8,r3,3
 2006070:	403ff81e 	bne	r8,zero,2006054 <memset+0x24>
 2006074:	010000c4 	movi	r4,3
 2006078:	21c02d2e 	bgeu	r4,r7,2006130 <memset+0x100>
 200607c:	29803fcc 	andi	r6,r5,255
 2006080:	3008923a 	slli	r4,r6,8
 2006084:	218cb03a 	or	r6,r4,r6
 2006088:	3008943a 	slli	r4,r6,16
 200608c:	218cb03a 	or	r6,r4,r6
 2006090:	010003c4 	movi	r4,15
 2006094:	21c0182e 	bgeu	r4,r7,20060f8 <memset+0xc8>
 2006098:	3b3ffc04 	addi	r12,r7,-16
 200609c:	6018d13a 	srli	r12,r12,4
 20060a0:	1a000104 	addi	r8,r3,4
 20060a4:	1ac00204 	addi	r11,r3,8
 20060a8:	6008913a 	slli	r4,r12,4
 20060ac:	1a800304 	addi	r10,r3,12
 20060b0:	1813883a 	mov	r9,r3
 20060b4:	21000504 	addi	r4,r4,20
 20060b8:	1909883a 	add	r4,r3,r4
 20060bc:	49800015 	stw	r6,0(r9)
 20060c0:	41800015 	stw	r6,0(r8)
 20060c4:	59800015 	stw	r6,0(r11)
 20060c8:	51800015 	stw	r6,0(r10)
 20060cc:	42000404 	addi	r8,r8,16
 20060d0:	4a400404 	addi	r9,r9,16
 20060d4:	5ac00404 	addi	r11,r11,16
 20060d8:	52800404 	addi	r10,r10,16
 20060dc:	413ff71e 	bne	r8,r4,20060bc <memset+0x8c>
 20060e0:	63000044 	addi	r12,r12,1
 20060e4:	6018913a 	slli	r12,r12,4
 20060e8:	39c003cc 	andi	r7,r7,15
 20060ec:	010000c4 	movi	r4,3
 20060f0:	1b07883a 	add	r3,r3,r12
 20060f4:	21c00e2e 	bgeu	r4,r7,2006130 <memset+0x100>
 20060f8:	1813883a 	mov	r9,r3
 20060fc:	3811883a 	mov	r8,r7
 2006100:	010000c4 	movi	r4,3
 2006104:	49800015 	stw	r6,0(r9)
 2006108:	423fff04 	addi	r8,r8,-4
 200610c:	4a400104 	addi	r9,r9,4
 2006110:	223ffc36 	bltu	r4,r8,2006104 <memset+0xd4>
 2006114:	393fff04 	addi	r4,r7,-4
 2006118:	2008d0ba 	srli	r4,r4,2
 200611c:	39c000cc 	andi	r7,r7,3
 2006120:	21000044 	addi	r4,r4,1
 2006124:	2109883a 	add	r4,r4,r4
 2006128:	2109883a 	add	r4,r4,r4
 200612c:	1907883a 	add	r3,r3,r4
 2006130:	38000426 	beq	r7,zero,2006144 <memset+0x114>
 2006134:	19cf883a 	add	r7,r3,r7
 2006138:	19400005 	stb	r5,0(r3)
 200613c:	18c00044 	addi	r3,r3,1
 2006140:	19fffd1e 	bne	r3,r7,2006138 <memset+0x108>
 2006144:	f800283a 	ret
 2006148:	2007883a 	mov	r3,r4
 200614c:	300f883a 	mov	r7,r6
 2006150:	003fc806 	br	2006074 <memset+0x44>

02006154 <_Balloc>:
 2006154:	20801317 	ldw	r2,76(r4)
 2006158:	defffc04 	addi	sp,sp,-16
 200615c:	dc400115 	stw	r17,4(sp)
 2006160:	dc000015 	stw	r16,0(sp)
 2006164:	dfc00315 	stw	ra,12(sp)
 2006168:	dc800215 	stw	r18,8(sp)
 200616c:	2023883a 	mov	r17,r4
 2006170:	2821883a 	mov	r16,r5
 2006174:	10000f26 	beq	r2,zero,20061b4 <_Balloc+0x60>
 2006178:	8407883a 	add	r3,r16,r16
 200617c:	18c7883a 	add	r3,r3,r3
 2006180:	10c7883a 	add	r3,r2,r3
 2006184:	18800017 	ldw	r2,0(r3)
 2006188:	10001126 	beq	r2,zero,20061d0 <_Balloc+0x7c>
 200618c:	11000017 	ldw	r4,0(r2)
 2006190:	19000015 	stw	r4,0(r3)
 2006194:	10000415 	stw	zero,16(r2)
 2006198:	10000315 	stw	zero,12(r2)
 200619c:	dfc00317 	ldw	ra,12(sp)
 20061a0:	dc800217 	ldw	r18,8(sp)
 20061a4:	dc400117 	ldw	r17,4(sp)
 20061a8:	dc000017 	ldw	r16,0(sp)
 20061ac:	dec00404 	addi	sp,sp,16
 20061b0:	f800283a 	ret
 20061b4:	01400104 	movi	r5,4
 20061b8:	01800844 	movi	r6,33
 20061bc:	2008e6c0 	call	2008e6c <_calloc_r>
 20061c0:	88801315 	stw	r2,76(r17)
 20061c4:	103fec1e 	bne	r2,zero,2006178 <_Balloc+0x24>
 20061c8:	0005883a 	mov	r2,zero
 20061cc:	003ff306 	br	200619c <_Balloc+0x48>
 20061d0:	01400044 	movi	r5,1
 20061d4:	2c24983a 	sll	r18,r5,r16
 20061d8:	8809883a 	mov	r4,r17
 20061dc:	91800144 	addi	r6,r18,5
 20061e0:	318d883a 	add	r6,r6,r6
 20061e4:	318d883a 	add	r6,r6,r6
 20061e8:	2008e6c0 	call	2008e6c <_calloc_r>
 20061ec:	103ff626 	beq	r2,zero,20061c8 <_Balloc+0x74>
 20061f0:	14000115 	stw	r16,4(r2)
 20061f4:	14800215 	stw	r18,8(r2)
 20061f8:	003fe606 	br	2006194 <_Balloc+0x40>

020061fc <_Bfree>:
 20061fc:	28000826 	beq	r5,zero,2006220 <_Bfree+0x24>
 2006200:	28c00117 	ldw	r3,4(r5)
 2006204:	20801317 	ldw	r2,76(r4)
 2006208:	18c7883a 	add	r3,r3,r3
 200620c:	18c7883a 	add	r3,r3,r3
 2006210:	10c5883a 	add	r2,r2,r3
 2006214:	10c00017 	ldw	r3,0(r2)
 2006218:	28c00015 	stw	r3,0(r5)
 200621c:	11400015 	stw	r5,0(r2)
 2006220:	f800283a 	ret

02006224 <__multadd>:
 2006224:	defffa04 	addi	sp,sp,-24
 2006228:	dc000115 	stw	r16,4(sp)
 200622c:	2c000417 	ldw	r16,16(r5)
 2006230:	dc800315 	stw	r18,12(sp)
 2006234:	dc400215 	stw	r17,8(sp)
 2006238:	dfc00515 	stw	ra,20(sp)
 200623c:	dcc00415 	stw	r19,16(sp)
 2006240:	2823883a 	mov	r17,r5
 2006244:	2025883a 	mov	r18,r4
 2006248:	2a400504 	addi	r9,r5,20
 200624c:	0015883a 	mov	r10,zero
 2006250:	4a000017 	ldw	r8,0(r9)
 2006254:	4a400104 	addi	r9,r9,4
 2006258:	52800044 	addi	r10,r10,1
 200625c:	40ffffcc 	andi	r3,r8,65535
 2006260:	1987383a 	mul	r3,r3,r6
 2006264:	4010d43a 	srli	r8,r8,16
 2006268:	19cf883a 	add	r7,r3,r7
 200626c:	4191383a 	mul	r8,r8,r6
 2006270:	3816d43a 	srli	r11,r7,16
 2006274:	38ffffcc 	andi	r3,r7,65535
 2006278:	5a0f883a 	add	r7,r11,r8
 200627c:	3810943a 	slli	r8,r7,16
 2006280:	380ed43a 	srli	r7,r7,16
 2006284:	40c7883a 	add	r3,r8,r3
 2006288:	48ffff15 	stw	r3,-4(r9)
 200628c:	543ff016 	blt	r10,r16,2006250 <__multadd+0x2c>
 2006290:	38000926 	beq	r7,zero,20062b8 <__multadd+0x94>
 2006294:	88800217 	ldw	r2,8(r17)
 2006298:	80800f0e 	bge	r16,r2,20062d8 <__multadd+0xb4>
 200629c:	80800144 	addi	r2,r16,5
 20062a0:	1085883a 	add	r2,r2,r2
 20062a4:	1085883a 	add	r2,r2,r2
 20062a8:	8885883a 	add	r2,r17,r2
 20062ac:	11c00015 	stw	r7,0(r2)
 20062b0:	84000044 	addi	r16,r16,1
 20062b4:	8c000415 	stw	r16,16(r17)
 20062b8:	8805883a 	mov	r2,r17
 20062bc:	dfc00517 	ldw	ra,20(sp)
 20062c0:	dcc00417 	ldw	r19,16(sp)
 20062c4:	dc800317 	ldw	r18,12(sp)
 20062c8:	dc400217 	ldw	r17,8(sp)
 20062cc:	dc000117 	ldw	r16,4(sp)
 20062d0:	dec00604 	addi	sp,sp,24
 20062d4:	f800283a 	ret
 20062d8:	89400117 	ldw	r5,4(r17)
 20062dc:	9009883a 	mov	r4,r18
 20062e0:	d9c00015 	stw	r7,0(sp)
 20062e4:	29400044 	addi	r5,r5,1
 20062e8:	20061540 	call	2006154 <_Balloc>
 20062ec:	89800417 	ldw	r6,16(r17)
 20062f0:	89400304 	addi	r5,r17,12
 20062f4:	11000304 	addi	r4,r2,12
 20062f8:	31800084 	addi	r6,r6,2
 20062fc:	318d883a 	add	r6,r6,r6
 2006300:	318d883a 	add	r6,r6,r6
 2006304:	1027883a 	mov	r19,r2
 2006308:	2005d9c0 	call	2005d9c <memcpy>
 200630c:	89000117 	ldw	r4,4(r17)
 2006310:	90c01317 	ldw	r3,76(r18)
 2006314:	d9c00017 	ldw	r7,0(sp)
 2006318:	2109883a 	add	r4,r4,r4
 200631c:	2109883a 	add	r4,r4,r4
 2006320:	1907883a 	add	r3,r3,r4
 2006324:	18800017 	ldw	r2,0(r3)
 2006328:	88800015 	stw	r2,0(r17)
 200632c:	1c400015 	stw	r17,0(r3)
 2006330:	9823883a 	mov	r17,r19
 2006334:	003fd906 	br	200629c <__multadd+0x78>

02006338 <__s2b>:
 2006338:	defff904 	addi	sp,sp,-28
 200633c:	dc400115 	stw	r17,4(sp)
 2006340:	dc000015 	stw	r16,0(sp)
 2006344:	2023883a 	mov	r17,r4
 2006348:	2821883a 	mov	r16,r5
 200634c:	39000204 	addi	r4,r7,8
 2006350:	01400244 	movi	r5,9
 2006354:	dcc00315 	stw	r19,12(sp)
 2006358:	dc800215 	stw	r18,8(sp)
 200635c:	dfc00615 	stw	ra,24(sp)
 2006360:	dd400515 	stw	r21,20(sp)
 2006364:	dd000415 	stw	r20,16(sp)
 2006368:	3825883a 	mov	r18,r7
 200636c:	3027883a 	mov	r19,r6
 2006370:	200a2b00 	call	200a2b0 <__divsi3>
 2006374:	00c00044 	movi	r3,1
 2006378:	000b883a 	mov	r5,zero
 200637c:	1880030e 	bge	r3,r2,200638c <__s2b+0x54>
 2006380:	18c7883a 	add	r3,r3,r3
 2006384:	29400044 	addi	r5,r5,1
 2006388:	18bffd16 	blt	r3,r2,2006380 <__s2b+0x48>
 200638c:	8809883a 	mov	r4,r17
 2006390:	20061540 	call	2006154 <_Balloc>
 2006394:	d8c00717 	ldw	r3,28(sp)
 2006398:	10c00515 	stw	r3,20(r2)
 200639c:	00c00044 	movi	r3,1
 20063a0:	10c00415 	stw	r3,16(r2)
 20063a4:	00c00244 	movi	r3,9
 20063a8:	1cc0210e 	bge	r3,r19,2006430 <__s2b+0xf8>
 20063ac:	80eb883a 	add	r21,r16,r3
 20063b0:	a829883a 	mov	r20,r21
 20063b4:	84e1883a 	add	r16,r16,r19
 20063b8:	a1c00007 	ldb	r7,0(r20)
 20063bc:	8809883a 	mov	r4,r17
 20063c0:	a5000044 	addi	r20,r20,1
 20063c4:	100b883a 	mov	r5,r2
 20063c8:	01800284 	movi	r6,10
 20063cc:	39fff404 	addi	r7,r7,-48
 20063d0:	20062240 	call	2006224 <__multadd>
 20063d4:	a43ff81e 	bne	r20,r16,20063b8 <__s2b+0x80>
 20063d8:	ace1883a 	add	r16,r21,r19
 20063dc:	843ffe04 	addi	r16,r16,-8
 20063e0:	9c800a0e 	bge	r19,r18,200640c <__s2b+0xd4>
 20063e4:	94e5c83a 	sub	r18,r18,r19
 20063e8:	84a5883a 	add	r18,r16,r18
 20063ec:	81c00007 	ldb	r7,0(r16)
 20063f0:	8809883a 	mov	r4,r17
 20063f4:	84000044 	addi	r16,r16,1
 20063f8:	100b883a 	mov	r5,r2
 20063fc:	01800284 	movi	r6,10
 2006400:	39fff404 	addi	r7,r7,-48
 2006404:	20062240 	call	2006224 <__multadd>
 2006408:	84bff81e 	bne	r16,r18,20063ec <__s2b+0xb4>
 200640c:	dfc00617 	ldw	ra,24(sp)
 2006410:	dd400517 	ldw	r21,20(sp)
 2006414:	dd000417 	ldw	r20,16(sp)
 2006418:	dcc00317 	ldw	r19,12(sp)
 200641c:	dc800217 	ldw	r18,8(sp)
 2006420:	dc400117 	ldw	r17,4(sp)
 2006424:	dc000017 	ldw	r16,0(sp)
 2006428:	dec00704 	addi	sp,sp,28
 200642c:	f800283a 	ret
 2006430:	84000284 	addi	r16,r16,10
 2006434:	1827883a 	mov	r19,r3
 2006438:	003fe906 	br	20063e0 <__s2b+0xa8>

0200643c <__hi0bits>:
 200643c:	20bfffec 	andhi	r2,r4,65535
 2006440:	1000141e 	bne	r2,zero,2006494 <__hi0bits+0x58>
 2006444:	2008943a 	slli	r4,r4,16
 2006448:	00800404 	movi	r2,16
 200644c:	20ffc02c 	andhi	r3,r4,65280
 2006450:	1800021e 	bne	r3,zero,200645c <__hi0bits+0x20>
 2006454:	2008923a 	slli	r4,r4,8
 2006458:	10800204 	addi	r2,r2,8
 200645c:	20fc002c 	andhi	r3,r4,61440
 2006460:	1800021e 	bne	r3,zero,200646c <__hi0bits+0x30>
 2006464:	2008913a 	slli	r4,r4,4
 2006468:	10800104 	addi	r2,r2,4
 200646c:	20f0002c 	andhi	r3,r4,49152
 2006470:	1800031e 	bne	r3,zero,2006480 <__hi0bits+0x44>
 2006474:	2109883a 	add	r4,r4,r4
 2006478:	10800084 	addi	r2,r2,2
 200647c:	2109883a 	add	r4,r4,r4
 2006480:	20000316 	blt	r4,zero,2006490 <__hi0bits+0x54>
 2006484:	2110002c 	andhi	r4,r4,16384
 2006488:	2000041e 	bne	r4,zero,200649c <__hi0bits+0x60>
 200648c:	00800804 	movi	r2,32
 2006490:	f800283a 	ret
 2006494:	0005883a 	mov	r2,zero
 2006498:	003fec06 	br	200644c <__hi0bits+0x10>
 200649c:	10800044 	addi	r2,r2,1
 20064a0:	f800283a 	ret

020064a4 <__lo0bits>:
 20064a4:	20c00017 	ldw	r3,0(r4)
 20064a8:	188001cc 	andi	r2,r3,7
 20064ac:	10000826 	beq	r2,zero,20064d0 <__lo0bits+0x2c>
 20064b0:	1880004c 	andi	r2,r3,1
 20064b4:	1000211e 	bne	r2,zero,200653c <__lo0bits+0x98>
 20064b8:	1880008c 	andi	r2,r3,2
 20064bc:	1000211e 	bne	r2,zero,2006544 <__lo0bits+0xa0>
 20064c0:	1806d0ba 	srli	r3,r3,2
 20064c4:	00800084 	movi	r2,2
 20064c8:	20c00015 	stw	r3,0(r4)
 20064cc:	f800283a 	ret
 20064d0:	18bfffcc 	andi	r2,r3,65535
 20064d4:	10001326 	beq	r2,zero,2006524 <__lo0bits+0x80>
 20064d8:	0005883a 	mov	r2,zero
 20064dc:	19403fcc 	andi	r5,r3,255
 20064e0:	2800021e 	bne	r5,zero,20064ec <__lo0bits+0x48>
 20064e4:	1806d23a 	srli	r3,r3,8
 20064e8:	10800204 	addi	r2,r2,8
 20064ec:	194003cc 	andi	r5,r3,15
 20064f0:	2800021e 	bne	r5,zero,20064fc <__lo0bits+0x58>
 20064f4:	1806d13a 	srli	r3,r3,4
 20064f8:	10800104 	addi	r2,r2,4
 20064fc:	194000cc 	andi	r5,r3,3
 2006500:	2800021e 	bne	r5,zero,200650c <__lo0bits+0x68>
 2006504:	1806d0ba 	srli	r3,r3,2
 2006508:	10800084 	addi	r2,r2,2
 200650c:	1940004c 	andi	r5,r3,1
 2006510:	2800081e 	bne	r5,zero,2006534 <__lo0bits+0x90>
 2006514:	1806d07a 	srli	r3,r3,1
 2006518:	1800051e 	bne	r3,zero,2006530 <__lo0bits+0x8c>
 200651c:	00800804 	movi	r2,32
 2006520:	f800283a 	ret
 2006524:	1806d43a 	srli	r3,r3,16
 2006528:	00800404 	movi	r2,16
 200652c:	003feb06 	br	20064dc <__lo0bits+0x38>
 2006530:	10800044 	addi	r2,r2,1
 2006534:	20c00015 	stw	r3,0(r4)
 2006538:	f800283a 	ret
 200653c:	0005883a 	mov	r2,zero
 2006540:	f800283a 	ret
 2006544:	1806d07a 	srli	r3,r3,1
 2006548:	00800044 	movi	r2,1
 200654c:	20c00015 	stw	r3,0(r4)
 2006550:	f800283a 	ret

02006554 <__i2b>:
