
LCD_prog.elf:     file format elf32-littlenios2
LCD_prog.elf
architecture: nios2, flags 0x00000112:
EXEC_P, HAS_SYMS, D_PAGED
start address 0x000001bc

Program Header:
    LOAD off    0x00001000 vaddr 0x00000000 paddr 0x00000000 align 2**12
         filesz 0x00000020 memsz 0x00000020 flags r-x
    LOAD off    0x00001020 vaddr 0x00000020 paddr 0x00000020 align 2**12
         filesz 0x00015418 memsz 0x00015418 flags r-x
    LOAD off    0x00016438 vaddr 0x00015438 paddr 0x00016fc0 align 2**12
         filesz 0x00001b88 memsz 0x00001b88 flags rw-
    LOAD off    0x00018b48 vaddr 0x00018b48 paddr 0x00018b48 align 2**12
         filesz 0x00000000 memsz 0x0000025c flags rw-

Sections:
Idx Name          Size      VMA       LMA       File off  Algn
  0 .entry        00000020  00000000  00000000  00001000  2**5
                  CONTENTS, ALLOC, LOAD, READONLY, CODE
  1 .exceptions   0000019c  00000020  00000020  00001020  2**2
                  CONTENTS, ALLOC, LOAD, READONLY, CODE
  2 .text         00014c54  000001bc  000001bc  000011bc  2**2
                  CONTENTS, ALLOC, LOAD, READONLY, CODE
  3 .rodata       00000628  00014e10  00014e10  00015e10  2**2
                  CONTENTS, ALLOC, LOAD, READONLY, DATA
  4 .rwdata       00001b88  00015438  00016fc0  00016438  2**2
                  CONTENTS, ALLOC, LOAD, DATA, SMALL_DATA
  5 .bss          0000025c  00018b48  00018b48  00018b48  2**2
                  ALLOC, SMALL_DATA
  6 .sdram_controller_0 00000000  00018da4  00018da4  00017fc0  2**0
                  CONTENTS
  7 .comment      00000039  00000000  00000000  00017fc0  2**0
                  CONTENTS, READONLY
  8 .debug_aranges 00000fc0  00000000  00000000  00018000  2**3
                  CONTENTS, READONLY, DEBUGGING
  9 .debug_info   0002cba8  00000000  00000000  00018fc0  2**0
                  CONTENTS, READONLY, DEBUGGING
 10 .debug_abbrev 0000b0d5  00000000  00000000  00045b68  2**0
                  CONTENTS, READONLY, DEBUGGING
 11 .debug_line   0000dfee  00000000  00000000  00050c3d  2**0
                  CONTENTS, READONLY, DEBUGGING
 12 .debug_frame  00002854  00000000  00000000  0005ec2c  2**2
                  CONTENTS, READONLY, DEBUGGING
 13 .debug_str    00003b51  00000000  00000000  00061480  2**0
                  CONTENTS, READONLY, DEBUGGING
 14 .debug_loc    0001d19e  00000000  00000000  00064fd1  2**0
                  CONTENTS, READONLY, DEBUGGING
 15 .debug_alt_sim_info 00000050  00000000  00000000  00082170  2**2
                  CONTENTS, READONLY, DEBUGGING
 16 .debug_ranges 00001620  00000000  00000000  000821c0  2**3
                  CONTENTS, READONLY, DEBUGGING
 17 .thread_model 00000003  00000000  00000000  000870c4  2**0
                  CONTENTS, READONLY
 18 .cpu          0000000c  00000000  00000000  000870c7  2**0
                  CONTENTS, READONLY
 19 .qsys         00000001  00000000  00000000  000870d3  2**0
                  CONTENTS, READONLY
 20 .simulation_enabled 00000001  00000000  00000000  000870d4  2**0
                  CONTENTS, READONLY
 21 .stderr_dev   0000000b  00000000  00000000  000870d5  2**0
                  CONTENTS, READONLY
 22 .stdin_dev    0000000b  00000000  00000000  000870e0  2**0
                  CONTENTS, READONLY
 23 .stdout_dev   0000000b  00000000  00000000  000870eb  2**0
                  CONTENTS, READONLY
 24 .sopc_system_name 00000008  00000000  00000000  000870f6  2**0
                  CONTENTS, READONLY
 25 .quartus_project_dir 00000011  00000000  00000000  000870fe  2**0
                  CONTENTS, READONLY
 26 .jdi          00005422  00000000  00000000  0008710f  2**0
                  CONTENTS, READONLY
 27 .sopcinfo     00040786  00000000  00000000  0008c531  2**0
                  CONTENTS, READONLY
SYMBOL TABLE:
00000000 l    d  .entry	00000000 .entry
00000020 l    d  .exceptions	00000000 .exceptions
000001bc l    d  .text	00000000 .text
00014e10 l    d  .rodata	00000000 .rodata
00015438 l    d  .rwdata	00000000 .rwdata
00018b48 l    d  .bss	00000000 .bss
00018da4 l    d  .sdram_controller_0	00000000 .sdram_controller_0
00000000 l    d  .comment	00000000 .comment
00000000 l    d  .debug_aranges	00000000 .debug_aranges
00000000 l    d  .debug_info	00000000 .debug_info
00000000 l    d  .debug_abbrev	00000000 .debug_abbrev
00000000 l    d  .debug_line	00000000 .debug_line
00000000 l    d  .debug_frame	00000000 .debug_frame
00000000 l    d  .debug_str	00000000 .debug_str
00000000 l    d  .debug_loc	00000000 .debug_loc
00000000 l    d  .debug_alt_sim_info	00000000 .debug_alt_sim_info
00000000 l    d  .debug_ranges	00000000 .debug_ranges
00000000 l    df *ABS*	00000000 ../LCD_prog_bsp//obj/HAL/src/crt0.o
000001f4 l       .text	00000000 alt_after_alt_main
00000000 l    df *ABS*	00000000 alt_exception_entry.o
00000094 l       .exceptions	00000000 alt_exception_unknown
00000000 l    df *ABS*	00000000 alt_irq_handler.c
00000000 l    df *ABS*	00000000 hello_world.c
00000000 l    df *ABS*	00000000 fscanf.c
00000000 l    df *ABS*	00000000 impure.c
00015438 l     O .rwdata	00000424 impure_data
00000000 l    df *ABS*	00000000 puts.c
00000000 l    df *ABS*	00000000 strlen.c
00000000 l    df *ABS*	00000000 vfscanf.c
00014e3a l     O .rodata	00000022 basefix.4072
00000000 l    df *ABS*	00000000 ctype_.c
00014f5d l     O .rodata	00000180 _ctype_b
00000000 l    df *ABS*	00000000 findfp.c
00002bb0 l     F .text	00000008 __fp_lock
00002bb8 l     F .text	00000008 __fp_unlock
00000000 l    df *ABS*	00000000 fread.c
00000000 l    df *ABS*	00000000 mallocr.c
00000000 l    df *ABS*	00000000 fvwrite.c
00000000 l    df *ABS*	00000000 fwalk.c
00000000 l    df *ABS*	00000000 iswspace.c
00000000 l    df *ABS*	00000000 locale.c
0001587c l     O .rwdata	00000020 lc_ctype_charset
0001585c l     O .rwdata	00000020 lc_message_charset
0001589c l     O .rwdata	00000038 lconv
00000000 l    df *ABS*	00000000 mallocr.c
00000000 l    df *ABS*	00000000 mbrtowc.c
00000000 l    df *ABS*	00000000 mbtowc_r.c
00000000 l    df *ABS*	00000000 memchr.c
00000000 l    df *ABS*	00000000 memcpy.c
00000000 l    df *ABS*	00000000 memmove.c
00000000 l    df *ABS*	00000000 memset.c
00000000 l    df *ABS*	00000000 mallocr.c
00000000 l    df *ABS*	00000000 refill.c
00005084 l     F .text	0000001c lflush
00000000 l    df *ABS*	00000000 s_fpclassify.c
00000000 l    df *ABS*	00000000 sbrkr.c
00000000 l    df *ABS*	00000000 sccl.c
00000000 l    df *ABS*	00000000 sf_nan.c
00000000 l    df *ABS*	00000000 sprintf.c
00000000 l    df *ABS*	00000000 stdio.c
00000000 l    df *ABS*	00000000 strcmp.c
00000000 l    df *ABS*	00000000 strtod.c
00015cf0 l     O .rwdata	00000014 fpi.2612
000150fc l     O .rodata	00000028 tinytens
00015cdc l     O .rwdata	00000014 fpinan.2648
00000000 l    df *ABS*	00000000 strtol.c
00000000 l    df *ABS*	00000000 strtoll_r.c
00000000 l    df *ABS*	00000000 strtoul.c
00000000 l    df *ABS*	00000000 strtoull_r.c
00000000 l    df *ABS*	00000000 vfprintf.c
00015166 l     O .rodata	00000010 zeroes.4140
00015176 l     O .rodata	00000010 blanks.4139
00000000 l    df *ABS*	00000000 ungetc.c
00000000 l    df *ABS*	00000000 writer.c
00000000 l    df *ABS*	00000000 wsetup.c
00000000 l    df *ABS*	00000000 closer.c
00000000 l    df *ABS*	00000000 dtoa.c
00009be8 l     F .text	00000204 quorem
00000000 l    df *ABS*	00000000 fclose.c
00000000 l    df *ABS*	00000000 fflush.c
00000000 l    df *ABS*	00000000 gdtoa-gethex.c
0000b7d8 l     F .text	000000fc rshift
00000000 l    df *ABS*	00000000 gdtoa-hexnan.c
00000000 l    df *ABS*	00000000 int_errno.c
00000000 l    df *ABS*	00000000 lseekr.c
00000000 l    df *ABS*	00000000 makebuf.c
00000000 l    df *ABS*	00000000 mprec.c
000151b4 l     O .rodata	0000000c p05.2652
00000000 l    df *ABS*	00000000 readr.c
00000000 l    df *ABS*	00000000 strncmp.c
00000000 l    df *ABS*	00000000 vfprintf.c
000152d8 l     O .rodata	00000010 zeroes.4084
000152e8 l     O .rodata	00000010 blanks.4083
00000000 l    df *ABS*	00000000 mallocr.c
00000000 l    df *ABS*	00000000 fstatr.c
00000000 l    df *ABS*	00000000 isattyr.c
00000000 l    df *ABS*	00000000 libgcc2.c
00000000 l    df *ABS*	00000000 libgcc2.c
00000000 l    df *ABS*	00000000 libgcc2.c
00000000 l    df *ABS*	00000000 libgcc2.c
00000000 l    df *ABS*	00000000 lib2-divmod.c
0000f6ac l     F .text	00000070 udivmodsi4
00000000 l    df *ABS*	00000000 eqsf2.c
00000000 l    df *ABS*	00000000 gesf2.c
00000000 l    df *ABS*	00000000 lesf2.c
00000000 l    df *ABS*	00000000 adddf3.c
00000000 l    df *ABS*	00000000 divdf3.c
00000000 l    df *ABS*	00000000 eqdf2.c
00000000 l    df *ABS*	00000000 gedf2.c
00000000 l    df *ABS*	00000000 ledf2.c
00000000 l    df *ABS*	00000000 muldf3.c
00000000 l    df *ABS*	00000000 subdf3.c
00000000 l    df *ABS*	00000000 fixdfsi.c
00000000 l    df *ABS*	00000000 floatsidf.c
00000000 l    df *ABS*	00000000 floatunsidf.c
00000000 l    df *ABS*	00000000 truncdfsf2.c
00000000 l    df *ABS*	00000000 libgcc2.c
00000000 l    df *ABS*	00000000 libgcc2.c
00000000 l    df *ABS*	00000000 alt_close.c
0001211c l     F .text	00000050 alt_get_errno
00000000 l    df *ABS*	00000000 alt_dev.c
00012234 l     F .text	0000002c alt_dev_null_write
00000000 l    df *ABS*	00000000 alt_errno.c
00000000 l    df *ABS*	00000000 alt_fstat.c
00012260 l     F .text	00000050 alt_get_errno
00000000 l    df *ABS*	00000000 alt_isatty.c
0001235c l     F .text	00000050 alt_get_errno
00000000 l    df *ABS*	00000000 alt_load.c
0001244c l     F .text	00000064 alt_load_section
00000000 l    df *ABS*	00000000 alt_lseek.c
00012530 l     F .text	00000050 alt_get_errno
00000000 l    df *ABS*	00000000 alt_main.c
00000000 l    df *ABS*	00000000 alt_malloc_lock.c
00000000 l    df *ABS*	00000000 alt_read.c
00012708 l     F .text	00000050 alt_get_errno
00000000 l    df *ABS*	00000000 alt_release_fd.c
00000000 l    df *ABS*	00000000 alt_sbrk.c
00016f68 l     O .rwdata	00000004 heap_end
00000000 l    df *ABS*	00000000 alt_usleep.c
00000000 l    df *ABS*	00000000 alt_write.c
00012988 l     F .text	00000050 alt_get_errno
00000000 l    df *ABS*	00000000 alt_sys_init.c
00012ac4 l     F .text	00000038 alt_dev_reg
00015eac l     O .rwdata	00001060 jtag_uart_0
00016f0c l     O .rwdata	00000028 altera_hostfs
00000000 l    df *ABS*	00000000 altera_avalon_jtag_uart_fd.c
00000000 l    df *ABS*	00000000 altera_avalon_jtag_uart_init.c
00012da4 l     F .text	000001fc altera_avalon_jtag_uart_irq
00012fa0 l     F .text	000000a4 altera_avalon_jtag_uart_timeout
00000000 l    df *ABS*	00000000 altera_avalon_jtag_uart_ioctl.c
00000000 l    df *ABS*	00000000 altera_avalon_jtag_uart_read.c
00000000 l    df *ABS*	00000000 altera_avalon_jtag_uart_write.c
00000000 l    df *ABS*	00000000 altera_hostfs.c
00016f6c l     O .rwdata	00000004 hcinfo.2310
00016f78 l     O .rwdata	00000004 hcinfo.2323
00016f84 l     O .rwdata	00000004 hcinfo.2332
00016f90 l     O .rwdata	00000004 hcinfo.2345
00016f9c l     O .rwdata	00000004 hcinfo.2358
00016fa8 l     O .rwdata	00000004 hcinfo.2384
00000000 l    df *ABS*	00000000 alt_alarm_start.c
00000000 l    df *ABS*	00000000 alt_busy_sleep.c
00000000 l    df *ABS*	00000000 alt_dcache_flush_all.c
00000000 l    df *ABS*	00000000 alt_dev_llist_insert.c
00013ce8 l     F .text	00000050 alt_get_errno
00000000 l    df *ABS*	00000000 alt_do_ctors.c
00000000 l    df *ABS*	00000000 alt_do_dtors.c
00000000 l    df *ABS*	00000000 alt_fs_reg.c
00000000 l    df *ABS*	00000000 alt_icache_flush_all.c
00000000 l    df *ABS*	00000000 alt_iic.c
00000000 l    df *ABS*	00000000 alt_iic_isr_register.c
00000000 l    df *ABS*	00000000 alt_io_redirect.c
0001420c l     F .text	000000c0 alt_open_fd
00000000 l    df *ABS*	00000000 alt_irq_vars.c
00000000 l    df *ABS*	00000000 alt_open.c
00014344 l     F .text	00000050 alt_get_errno
00014394 l     F .text	000000cc alt_file_locked
00000000 l    df *ABS*	00000000 alt_tick.c
00000000 l    df *ABS*	00000000 altera_nios2_qsys_irq.c
00000000 l    df *ABS*	00000000 alt_find_dev.c
00000000 l    df *ABS*	00000000 alt_find_file.c
00000000 l    df *ABS*	00000000 alt_get_fd.c
00000000 l    df *ABS*	00000000 alt_icache_flush.c
00000000 l    df *ABS*	00000000 atexit.c
00000000 l    df *ABS*	00000000 exit.c
00000000 l    df *ABS*	00000000 memcmp.c
00000000 l    df *ABS*	00000000 __atexit.c
00000000 l    df *ABS*	00000000 __call_atexit.c
00000000 l    df *ABS*	00000000 alt_exit.c
0000d468 g     F .text	00000074 _mprec_log10
0000d554 g     F .text	00000088 __any_on
0000ea08 g     F .text	00000064 _isatty_r
000151c0 g     O .rodata	00000028 __mprec_tinytens
000004f4 g     F .text	00000070 LCD_DrawPoint
00012650 g     F .text	00000078 alt_main
00001198 g     F .text	000000b8 _puts_r
00018ca4 g     O .bss	00000100 alt_irq
0000c444 g     F .text	0000006c _lseek_r
00016fc0 g       *ABS*	00000000 __flash_rwdata_start
00010b08 g     F .text	00000084 .hidden __eqdf2
00018da4 g       *ABS*	00000000 __alt_heap_start
00000564 g     F .text	00000104 LCD_Pattern_Horizon
000055ac g     F .text	0000005c __sseek
00002c48 g     F .text	0000019c __sinit
00003c08 g     F .text	00000070 _setlocale_r
00002bcc g     F .text	00000064 __sfmoreglue
000099c4 g     F .text	0000001c ungetc
000126e8 g     F .text	00000020 __malloc_unlock
000135b8 g     F .text	00000118 alt_hostfs_open
000056b4 g     F .text	00001538 _strtod_r
000048d0 g     F .text	0000013c memmove
00002c30 g     F .text	00000018 _cleanup
0000c664 g     F .text	000000a8 _Balloc
00010b8c g     F .text	000000d8 .hidden __gtdf2
00000000  w      *UND*	00000000 __errno
00000000 g     F .entry	0000001c __reset
00000020 g       *ABS*	00000000 __flash_exceptions_start
00000470 g     F .text	00000084 LCD_Clear
0000e9a0 g     F .text	00000068 _fstat_r
00018b60 g     O .bss	00000004 errno
00002b40 g     F .text	00000024 __svfscanf
00005528 g     F .text	00000008 __seofread
0000d910 g     F .text	00000fcc ___svfiprintf_internal_r
00018b68 g     O .bss	00000004 alt_argv
0001ef34 g       *ABS*	00000000 _gp
00012958 g     F .text	00000030 usleep
0000113c g     F .text	0000003c fscanf
00015d2c g     O .rwdata	00000180 alt_fd_list
0000074c g     F .text	000000d8 LCD_Frouze
000137ec g     F .text	00000068 alt_hostfs_seek
00014770 g     F .text	00000090 alt_find_dev
000047c4 g     F .text	0000010c memcpy
0000c17c g     F .text	000002c8 __hexnan
00002bc0 g     F .text	0000000c _cleanup_r
00011d44 g     F .text	000000d0 .hidden __floatsidf
00013e90 g     F .text	00000084 alt_fs_reg
000142cc g     F .text	00000078 alt_io_redirect
00010c64 g     F .text	000000ec .hidden __ltdf2
00014e10 g       *ABS*	00000000 __DTOR_END__
00001250 g     F .text	00000014 puts
0000454c g     F .text	000000f0 mbrtowc
00005278 g     F .text	00000068 __fpclassifyd
00002b64 g     F .text	0000004c _vfscanf_r
0000d3c8 g     F .text	000000a0 __ratio
00013198 g     F .text	00000208 altera_avalon_jtag_uart_read
00000000  w      *UND*	00000000 malloc
0000f7b0 g     F .text	00000008 .hidden __udivsi3
000123ac g     F .text	000000a0 isatty
00003bd8 g     F .text	00000030 iswspace
00015210 g     O .rodata	000000c8 __mprec_tens
00003c78 g     F .text	0000000c __locale_charset
0000f8e8 g     F .text	000000d0 .hidden __lesf2
0000eacc g     F .text	00000084 .hidden __fixunsdfsi
000149c8 g     F .text	0000008c alt_icache_flush
00018b5c g     O .bss	00000004 __malloc_top_pad
000074f8 g     F .text	00000024 strtoul
00016f40 g     O .rwdata	00000004 __mb_cur_max
00003ca8 g     F .text	0000000c _localeconv_r
0000751c g     F .text	00000334 _strtoull_r
0000ca64 g     F .text	0000003c __i2b
000035cc g     F .text	000004ac __sfvwrite_r
000052e0 g     F .text	00000064 _sbrk_r
00013714 g     F .text	0000006c alt_hostfs_read
0000d5dc g     F .text	0000006c _read_r
00016f60 g     O .rwdata	00000004 alt_max_fd
0000b428 g     F .text	00000128 _fclose_r
0000b7a8 g     F .text	00000030 fflush
00018b58 g     O .bss	00000004 __malloc_max_sbrked_mem
0000f9b8 g     F .text	0000087c .hidden __adddf3
0000f7c0 g     F .text	00000074 .hidden __nesf2
0000d194 g     F .text	000000f0 __b2d
0000f114 g     F .text	00000598 .hidden __umoddi3
00012580 g     F .text	000000d0 lseek
00000000 g       *ABS*	00000000 __alt_mem_sdram_controller_0
00016f34 g     O .rwdata	00000004 _global_impure_ptr
00004b20 g     F .text	00000564 _realloc_r
00018da4 g       *ABS*	00000000 __bss_end
0001411c g     F .text	000000f0 alt_iic_isr_register
0001464c g     F .text	00000104 alt_tick
00018ba4 g     O .bss	00000100 __hexdig
0000eb50 g     F .text	000005c4 .hidden __udivdi3
000151e8 g     O .rodata	00000028 __mprec_bigtens
0000c848 g     F .text	00000104 __s2b
00011e14 g     F .text	000000a0 .hidden __floatunsidf
0000cf24 g     F .text	00000060 __mcmp
00002f10 g     F .text	00000018 __fp_lock_all
000140d0 g     F .text	0000004c alt_ic_irq_enabled
000145b4 g     F .text	00000098 alt_alarm_stop
00006f64 g     F .text	00000024 strtol
00018b70 g     O .bss	00000004 alt_irq_active
000136d0 g     F .text	00000044 alt_hostfs_close
00000668 g     F .text	000000e4 LCD_Pattern_Vertical
000000ec g     F .exceptions	000000d0 alt_irq_handler
00015d04 g     O .rwdata	00000028 alt_dev_null
00013ccc g     F .text	0000001c alt_dcache_flush_all
0000c94c g     F .text	00000068 __hi0bits
00011cc4 g     F .text	00000080 .hidden __fixdfsi
00006bec g     F .text	0000001c strtod
00016fc0 g       *ABS*	00000000 __ram_rwdata_end
00016f58 g     O .rwdata	00000008 alt_dev_list
000129d8 g     F .text	000000ec write
0000f834 g     F .text	000000b4 .hidden __gtsf2
00015438 g       *ABS*	00000000 __ram_rodata_end
000122b0 g     F .text	000000ac fstat
00010c64 g     F .text	000000ec .hidden __ledf2
0000cc8c g     F .text	00000148 __pow5mult
00018b50 g     O .bss	00000004 __nlocale_changed
0000f7b8 g     F .text	00000008 .hidden __umodsi3
00018da4 g       *ABS*	00000000 end
00012ce4 g     F .text	000000c0 altera_avalon_jtag_uart_init
00014e10 g       *ABS*	00000000 __CTOR_LIST__
02000000 g       *ABS*	00000000 __alt_stack_pointer
00012070 g     F .text	000000ac .hidden __clzsi2
000133a0 g     F .text	00000218 altera_avalon_jtag_uart_write
00002f00 g     F .text	00000004 __sfp_lock_acquire
000046dc g     F .text	000000e8 memchr
00005410 g     F .text	00000058 _sprintf_r
000032fc g     F .text	000002d0 _free_r
00003c84 g     F .text	00000010 __locale_mb_cur_max
000003ac g     F .text	000000c4 LCD_SetCursor
00014c38 g     F .text	000001a4 __call_exitprocs
00018b4c g     O .bss	00000004 __mlocale_changed
00016f44 g     O .rwdata	00000004 __malloc_sbrk_base
000001bc g     F .text	0000003c _start
00018b74 g     O .bss	00000004 _alt_tick_rate
00006f88 g     F .text	00000330 _strtoll_r
0000cdd4 g     F .text	00000150 __lshift
00018b78 g     O .bss	00000004 _alt_nticks
00012758 g     F .text	000000f0 read
00012b30 g     F .text	00000050 alt_sys_init
0000d744 g     F .text	000001cc __ssprint_r
00014b1c g     F .text	0000011c __register_exitproc
0000d648 g     F .text	000000fc strncmp
0000caa0 g     F .text	000001ec __multiply
00013044 g     F .text	00000068 altera_avalon_jtag_uart_close
00015438 g       *ABS*	00000000 __ram_rwdata_start
00014e10 g       *ABS*	00000000 __ram_rodata_start
00018b7c g     O .bss	00000028 __malloc_current_mallinfo
0000f7c0 g     F .text	00000074 .hidden __eqsf2
0000d284 g     F .text	00000144 __d2b
00012b80 g     F .text	00000060 altera_avalon_jtag_uart_read_fd
000072b8 g     F .text	00000240 _strtoul_r
00014914 g     F .text	000000b4 alt_get_fd
00013b78 g     F .text	00000154 alt_busy_sleep
00009b84 g     F .text	00000064 _close_r
00014aa0 g     F .text	0000007c memcmp
00012c40 g     F .text	00000050 altera_avalon_jtag_uart_close_fd
00018da4 g       *ABS*	00000000 __alt_stack_base
00012c90 g     F .text	00000054 altera_avalon_jtag_uart_ioctl_fd
00009a4c g     F .text	00000138 __swsetup_r
00010234 g     F .text	000008d4 .hidden __divdf3
00002de4 g     F .text	0000011c __sfp
0000d4dc g     F .text	00000078 __copybits
000158d4 g     O .rwdata	00000408 __malloc_av_
00002f0c g     F .text	00000004 __sinit_lock_release
00010d50 g     F .text	000006ec .hidden __muldf3
000054d4 g     F .text	00000054 __sread
00003180 g     F .text	00000040 fread
00014800 g     F .text	00000114 alt_find_file
00013d38 g     F .text	000000a0 alt_dev_llist_insert
000126c8 g     F .text	00000020 __malloc_lock
000128a8 g     F .text	000000b0 sbrk
00007850 g     F .text	00001ef0 ___svfprintf_internal_r
0000b564 g     F .text	00000244 _fflush_r
0000e8dc g     F .text	000000c4 _calloc_r
00018b48 g       *ABS*	00000000 __bss_start
00001178 g     F .text	00000020 _fscanf_r
00000824 g     F .text	00000764 LCD_Init
00004a0c g     F .text	00000114 memset
000001f8 g     F .text	00000168 main
00018b6c g     O .bss	00000004 alt_envp
00018b54 g     O .bss	00000004 __malloc_max_total_mem
00012be0 g     F .text	00000060 altera_avalon_jtag_uart_write_fd
0000f8e8 g     F .text	000000d0 .hidden __ltsf2
00002f40 g     F .text	00000240 _fread_r
00005608 g     F .text	00000008 __sclose
02000000 g       *ABS*	00000000 __alt_heap_limit
0000b550 g     F .text	00000014 fclose
00006d28 g     F .text	0000023c _strtol_r
00011eb4 g     F .text	000001bc .hidden __truncdfsf2
00009dec g     F .text	0000163c _dtoa_r
00003cdc g     F .text	000007c4 _malloc_r
00016f64 g     O .rwdata	00000004 alt_errno
00009740 g     F .text	000000f0 __submore
00003a78 g     F .text	000000a8 _fwalk
00004680 g     F .text	0000005c _mbtowc_r
0000f71c g     F .text	00000048 .hidden __divsi3
00000360 g     F .text	0000004c Delay_Ms
000031c0 g     F .text	0000013c _malloc_trim_r
00014e10 g       *ABS*	00000000 __CTOR_END__
00005610 g     F .text	000000a4 strcmp
00014e10 g       *ABS*	00000000 __flash_rodata_start
00014e10 g       *ABS*	00000000 __DTOR_LIST__
00010b08 g     F .text	00000084 .hidden __nedf2
00012afc g     F .text	00000034 alt_irq_init
00012848 g     F .text	00000060 alt_release_fd
00005468 g     F .text	0000006c sprintf
000152f8 g     O .rodata	00000100 .hidden __clz_tab
00018b48 g     O .bss	00000004 _PathLocale
00006c08 g     F .text	00000120 strtof
00014a54 g     F .text	00000014 atexit
0000f834 g     F .text	000000b4 .hidden __gesf2
000099e0 g     F .text	0000006c _write_r
00003cb4 g     F .text	0000001c setlocale
00005408 g     F .text	00000008 nanf
00016f38 g     O .rwdata	00000004 _impure_ptr
00018b64 g     O .bss	00000004 alt_argc
000044a0 g     F .text	000000ac _mbrtowc_r
00013e34 g     F .text	0000005c _do_dtors
00003ca0 g     F .text	00000008 __locale_cjk_lang
000050a0 g     F .text	000001d8 __srefill_r
00000020 g       .exceptions	00000000 alt_irq_entry
0000463c g     F .text	00000044 __ascii_mbtowc
0000d134 g     F .text	00000060 __ulp
00002f28 g     F .text	00000018 __fp_unlock_all
00016f50 g     O .rwdata	00000008 alt_fs_list
00013780 g     F .text	0000006c alt_hostfs_write
00000020 g       *ABS*	00000000 __ram_exceptions_start
00003cd0 g     F .text	0000000c localeconv
00013f44 g     F .text	00000050 alt_ic_isr_register
0000b8d4 g     F .text	00000090 __hexdig_init
00016fc0 g       *ABS*	00000000 _edata
00018da4 g       *ABS*	00000000 _end
000001bc g       *ABS*	00000000 __ram_exceptions_end
00002ab0 g     F .text	00000090 vfscanf
000130ac g     F .text	000000ec altera_avalon_jtag_uart_ioctl
00014030 g     F .text	000000a0 alt_ic_irq_disable
00005530 g     F .text	0000007c __swrite
00016f48 g     O .rwdata	00000004 __malloc_trim_threshold
00014750 g     F .text	00000020 altera_nios2_qsys_irq_init
00003c94 g     F .text	0000000c __locale_msgcharset
00014a68 g     F .text	00000038 exit
00003b20 g     F .text	000000b8 _fwalk_reent
0000cf84 g     F .text	000001b0 __mdiff
0000f764 g     F .text	0000004c .hidden __modsi3
00016f3c g     O .rwdata	00000004 __ctype_ptr__
02000000 g       *ABS*	00000000 __alt_data_end
00000020 g     F .exceptions	00000000 alt_exception
00002f04 g     F .text	00000004 __sfp_lock_release
00005344 g     F .text	000000c4 __sccl
00014e5c g     O .rodata	00000101 _ctype_
00016f4c g     O .rwdata	00000004 __mbtowc
00014ddc g     F .text	00000034 _exit
00013a38 g     F .text	00000140 alt_alarm_start
0000ea6c g     F .text	00000060 .hidden __muldi3
0000c4b0 g     F .text	000001b4 __smakebuf_r
00001264 g     F .text	0000008c strlen
00014460 g     F .text	00000154 open
00010b8c g     F .text	000000d8 .hidden __gedf2
00000f88 g     F .text	000001b4 load
0000b964 g     F .text	00000818 __gethex
00013f14 g     F .text	00000030 alt_icache_flush_all
00016fb4 g     O .rwdata	00000004 alt_priority_mask
00013f94 g     F .text	0000009c alt_ic_irq_enable
0001143c g     F .text	00000888 .hidden __subdf3
0000c9b4 g     F .text	000000b0 __lo0bits
000012f0 g     F .text	000017c0 __svfscanf_r
00016fb8 g     O .rwdata	00000008 alt_alarm_list
00009830 g     F .text	00000194 _ungetc_r
00013dd8 g     F .text	0000005c _do_ctors
0001216c g     F .text	000000c8 close
000124b0 g     F .text	00000080 alt_load
00000000  w      *UND*	00000000 free
00002f08 g     F .text	00000004 __sinit_lock_acquire
0000c734 g     F .text	00000114 __multadd
0000c70c g     F .text	00000028 _Bfree
00013854 g     F .text	000001e4 alt_hostfs_fstat



Disassembly of section .entry:

00000000 <__reset>:
#if NIOS2_ICACHE_SIZE > 0 && defined(ALT_ALLOW_CODE_AT_RESET) && !defined(ALT_SIM_OPTIMIZE)
    /* Assume the instruction cache size is always a power of two. */
#if NIOS2_ICACHE_SIZE > 0x8000
    movhi r2, %hi(NIOS2_ICACHE_SIZE)
#else
    movui r2, NIOS2_ICACHE_SIZE
   0:	00840014 	movui	r2,4096
#endif

0:
    initi r2
   4:	1001483a 	initi	r2
    addi r2, r2, -NIOS2_ICACHE_LINE_SIZE
   8:	10bff804 	addi	r2,r2,-32
    bgt r2, zero, 0b
   c:	00bffd16 	blt	zero,r2,4 <__alt_data_end+0xfe000004>
 * Jump to the _start entry point in the .text section if reset code
 * is allowed or if optimizing for RTL simulation.
 */
#if defined(ALT_ALLOW_CODE_AT_RESET) || defined(ALT_SIM_OPTIMIZE)
    /* Jump to the _start entry point in the .text section. */
    movhi r1, %hi(_start)
  10:	00400034 	movhi	at,0
    ori r1, r1, %lo(_start)
  14:	08406f14 	ori	at,at,444
    jmp r1
  18:	0800683a 	jmp	at
  1c:	00000000 	call	0 <__reset>

Disassembly of section .exceptions:

00000020 <alt_exception>:

#else /* ALT_EXCEPTION_STACK disabled */
        /* 
         * Reserve space on normal stack for registers about to be pushed.
         */
        addi  sp, sp, -76
  20:	deffed04 	addi	sp,sp,-76
         * documentation for details).
         *
         * Leave a gap in the stack frame at 4(sp) for the muldiv handler to
         * store zero into.
         */
        stw   ra,  0(sp)
  24:	dfc00015 	stw	ra,0(sp)
        stw   r1,   8(sp)
  28:	d8400215 	stw	at,8(sp)
        stw   r2,  12(sp)
  2c:	d8800315 	stw	r2,12(sp)
        stw   r3,  16(sp)
  30:	d8c00415 	stw	r3,16(sp)
        stw   r4,  20(sp)
  34:	d9000515 	stw	r4,20(sp)
        stw   r5,  24(sp)
  38:	d9400615 	stw	r5,24(sp)
        stw   r6,  28(sp)
  3c:	d9800715 	stw	r6,28(sp)
        stw   r7,  32(sp)
  40:	d9c00815 	stw	r7,32(sp)
        rdctl r5, estatus   /* Read early to avoid usage stall */
  44:	000b307a 	rdctl	r5,estatus
        stw   r8,  36(sp)
  48:	da000915 	stw	r8,36(sp)
        stw   r9,  40(sp)
  4c:	da400a15 	stw	r9,40(sp)
        stw   r10, 44(sp)
  50:	da800b15 	stw	r10,44(sp)
        stw   r11, 48(sp)
  54:	dac00c15 	stw	r11,48(sp)
        stw   r12, 52(sp)
  58:	db000d15 	stw	r12,52(sp)
        stw   r13, 56(sp)
  5c:	db400e15 	stw	r13,56(sp)
        stw   r14, 60(sp)
  60:	db800f15 	stw	r14,60(sp)
        stw   r15, 64(sp)
  64:	dbc01015 	stw	r15,64(sp)
        /*
         * ea-4 contains the address of the instruction being executed
         * when the exception occured. For interrupt exceptions, we will
         * will be re-issue the isntruction. Store it in 72(sp)
         */
        stw   r5,  68(sp)  /* estatus */
  68:	d9401115 	stw	r5,68(sp)
        addi  r15, ea, -4  /* instruction that caused exception */
  6c:	ebffff04 	addi	r15,ea,-4
        stw   r15,  72(sp)
  70:	dbc01215 	stw	r15,72(sp)
#else
        /*
         * Test to see if the exception was a software exception or caused 
         * by an external interrupt, and vector accordingly.
         */
        rdctl r4, ipending
  74:	0009313a 	rdctl	r4,ipending
        andi  r2, r5, 1
  78:	2880004c 	andi	r2,r5,1
        beq   r2, zero, .Lnot_irq
  7c:	10000326 	beq	r2,zero,8c <alt_exception+0x6c>
        beq   r4, zero, .Lnot_irq
  80:	20000226 	beq	r4,zero,8c <alt_exception+0x6c>
        /*
         * Now that all necessary registers have been preserved, call 
         * alt_irq_handler() to process the interrupts.
         */

        call alt_irq_handler
  84:	00000ec0 	call	ec <alt_irq_handler>

        .section .exceptions.irqreturn, "xa"

        br    .Lexception_exit
  88:	00000306 	br	98 <alt_exception_unknown+0x4>
         * upon completion, so we write ea (address of instruction *after*
         * the one where the exception occured) into 72(sp). The actual
         * instruction that caused the exception is written in r2, which these
         * handlers will utilize.
         */
        stw   ea,  72(sp)  /* Don't re-issue */
  8c:	df401215 	stw	ea,72(sp)
        ldw   r2, -4(ea)   /* Instruction that caused exception */
  90:	e8bfff17 	ldw	r2,-4(ea)

00000094 <alt_exception_unknown>:
#ifdef NIOS2_HAS_DEBUG_STUB
       /*
        *  Either tell the user now (if there is a debugger attached) or go into
        *  the debug monitor which will loop until a debugger is attached.
        */
        break
  94:	003da03a 	break	0
        /* 
         * Restore the saved registers, so that all general purpose registers 
         * have been restored to their state at the time the interrupt occured.
         */

        ldw   r5,  68(sp)
  98:	d9401117 	ldw	r5,68(sp)
        ldw   ea,  72(sp)  /* This becomes the PC once eret is executed */
  9c:	df401217 	ldw	ea,72(sp)
        ldw   ra,   0(sp)
  a0:	dfc00017 	ldw	ra,0(sp)

        wrctl estatus, r5
  a4:	2801707a 	wrctl	estatus,r5

        ldw   r1,   8(sp)
  a8:	d8400217 	ldw	at,8(sp)
        ldw   r2,  12(sp)
  ac:	d8800317 	ldw	r2,12(sp)
        ldw   r3,  16(sp)
  b0:	d8c00417 	ldw	r3,16(sp)
        ldw   r4,  20(sp)
  b4:	d9000517 	ldw	r4,20(sp)
        ldw   r5,  24(sp)
  b8:	d9400617 	ldw	r5,24(sp)
        ldw   r6,  28(sp)
  bc:	d9800717 	ldw	r6,28(sp)
        ldw   r7,  32(sp)
  c0:	d9c00817 	ldw	r7,32(sp)

#if defined(ALT_EXCEPTION_STACK) && defined(ALT_STACK_CHECK)
        ldw   et, %gprel(alt_exception_old_stack_limit)(gp)
#endif

        ldw   r8,  36(sp)
  c4:	da000917 	ldw	r8,36(sp)
        ldw   r9,  40(sp)
  c8:	da400a17 	ldw	r9,40(sp)
        ldw   r10, 44(sp)
  cc:	da800b17 	ldw	r10,44(sp)
        ldw   r11, 48(sp)
  d0:	dac00c17 	ldw	r11,48(sp)
        ldw   r12, 52(sp)
  d4:	db000d17 	ldw	r12,52(sp)
        ldw   r13, 56(sp)
  d8:	db400e17 	ldw	r13,56(sp)
        ldw   r14, 60(sp)
  dc:	db800f17 	ldw	r14,60(sp)
        ldw   r15, 64(sp)
  e0:	dbc01017 	ldw	r15,64(sp)
        stw   et, %gprel(alt_stack_limit_value)(gp)
        stw   zero, %gprel(alt_exception_old_stack_limit)(gp)
#endif /* ALT_STACK_CHECK */
        ldw   sp,  76(sp)
#else /* ALT_EXCEPTION_STACK disabled */
        addi  sp, sp, 76
  e4:	dec01304 	addi	sp,sp,76

        /*
         * Return to the interrupted instruction.
         */

        eret
  e8:	ef80083a 	eret

000000ec <alt_irq_handler>:
 * instruction is present if the macro ALT_CI_INTERRUPT_VECTOR defined.
 */

void alt_irq_handler (void) __attribute__ ((section (".exceptions")));
void alt_irq_handler (void)
{
  ec:	defff904 	addi	sp,sp,-28
  f0:	dfc00615 	stw	ra,24(sp)
  f4:	df000515 	stw	fp,20(sp)
  f8:	df000504 	addi	fp,sp,20
  
  /*
   * Notify the operating system that we are at interrupt level.
   */ 
  
  ALT_OS_INT_ENTER();
  fc:	0001883a 	nop
#ifndef NIOS2_EIC_PRESENT
static ALT_INLINE alt_u32 ALT_ALWAYS_INLINE alt_irq_pending (void)
{
  alt_u32 active;

  NIOS2_READ_IPENDING (active);
 100:	0005313a 	rdctl	r2,ipending
 104:	e0bffe15 	stw	r2,-8(fp)

  return active;
 108:	e0bffe17 	ldw	r2,-8(fp)
   * Consider the case where the high priority interupt is asserted during
   * the interrupt entry sequence for a lower priority interrupt to see why
   * this is the case.
   */

  active = alt_irq_pending ();
 10c:	e0bffb15 	stw	r2,-20(fp)

  do
  {
    i = 0;
 110:	e03ffd15 	stw	zero,-12(fp)
    mask = 1;
 114:	00800044 	movi	r2,1
 118:	e0bffc15 	stw	r2,-16(fp)
     * called to clear the interrupt condition.
     */

    do
    {
      if (active & mask)
 11c:	e0fffb17 	ldw	r3,-20(fp)
 120:	e0bffc17 	ldw	r2,-16(fp)
 124:	1884703a 	and	r2,r3,r2
 128:	10001726 	beq	r2,zero,188 <alt_irq_handler+0x9c>
      { 
#ifdef ALT_ENHANCED_INTERRUPT_API_PRESENT
        alt_irq[i].handler(alt_irq[i].context); 
 12c:	00c000b4 	movhi	r3,2
 130:	18e32904 	addi	r3,r3,-29532
 134:	e0bffd17 	ldw	r2,-12(fp)
 138:	100490fa 	slli	r2,r2,3
 13c:	1885883a 	add	r2,r3,r2
 140:	10800017 	ldw	r2,0(r2)
 144:	010000b4 	movhi	r4,2
 148:	21232904 	addi	r4,r4,-29532
 14c:	e0fffd17 	ldw	r3,-12(fp)
 150:	180690fa 	slli	r3,r3,3
 154:	20c7883a 	add	r3,r4,r3
 158:	18c00104 	addi	r3,r3,4
 15c:	18c00017 	ldw	r3,0(r3)
 160:	1809883a 	mov	r4,r3
 164:	103ee83a 	callr	r2
#else
        alt_irq[i].handler(alt_irq[i].context, i); 
#endif
        break;
 168:	0001883a 	nop
#ifndef NIOS2_EIC_PRESENT
static ALT_INLINE alt_u32 ALT_ALWAYS_INLINE alt_irq_pending (void)
{
  alt_u32 active;

  NIOS2_READ_IPENDING (active);
 16c:	0005313a 	rdctl	r2,ipending
 170:	e0bfff15 	stw	r2,-4(fp)

  return active;
 174:	e0bfff17 	ldw	r2,-4(fp)
      mask <<= 1;
      i++;

    } while (1);

    active = alt_irq_pending ();
 178:	e0bffb15 	stw	r2,-20(fp)
    
  } while (active);
 17c:	e0bffb17 	ldw	r2,-20(fp)
 180:	103fe31e 	bne	r2,zero,110 <__alt_data_end+0xfe000110>
 184:	00000706 	br	1a4 <alt_irq_handler+0xb8>
#else
        alt_irq[i].handler(alt_irq[i].context, i); 
#endif
        break;
      }
      mask <<= 1;
 188:	e0bffc17 	ldw	r2,-16(fp)
 18c:	1085883a 	add	r2,r2,r2
 190:	e0bffc15 	stw	r2,-16(fp)
      i++;
 194:	e0bffd17 	ldw	r2,-12(fp)
 198:	10800044 	addi	r2,r2,1
 19c:	e0bffd15 	stw	r2,-12(fp)

    } while (1);
 1a0:	003fde06 	br	11c <__alt_data_end+0xfe00011c>

  /*
   * Notify the operating system that interrupt processing is complete.
   */ 

  ALT_OS_INT_EXIT();
 1a4:	0001883a 	nop
}
 1a8:	e037883a 	mov	sp,fp
 1ac:	dfc00117 	ldw	ra,4(sp)
 1b0:	df000017 	ldw	fp,0(sp)
 1b4:	dec00204 	addi	sp,sp,8
 1b8:	f800283a 	ret

Disassembly of section .text:

000001bc <_start>:

    /*
     * Now that the caches are initialized, set up the stack pointer and global pointer.
     * The values provided by the linker are assumed to be correctly aligned.
     */
    movhi sp, %hi(__alt_stack_pointer)
     1bc:	06c08034 	movhi	sp,512
    ori sp, sp, %lo(__alt_stack_pointer)
     1c0:	dec00014 	ori	sp,sp,0
    movhi gp, %hi(_gp)
     1c4:	06800074 	movhi	gp,1
    ori gp, gp, %lo(_gp)
     1c8:	d6bbcd14 	ori	gp,gp,61236
 */
#ifndef ALT_SIM_OPTIMIZE
    /* Log that the BSS is about to be cleared. */
    ALT_LOG_PUTS(alt_log_msg_bss)

    movhi r2, %hi(__bss_start)
     1cc:	00800074 	movhi	r2,1
    ori r2, r2, %lo(__bss_start)
     1d0:	10a2d214 	ori	r2,r2,35656

    movhi r3, %hi(__bss_end)
     1d4:	00c00074 	movhi	r3,1
    ori r3, r3, %lo(__bss_end)
     1d8:	18e36914 	ori	r3,r3,36260

    beq r2, r3, 1f
     1dc:	10c00326 	beq	r2,r3,1ec <_start+0x30>

0:
    stw zero, (r2)
     1e0:	10000015 	stw	zero,0(r2)
    addi r2, r2, 4
     1e4:	10800104 	addi	r2,r2,4
    bltu r2, r3, 0b
     1e8:	10fffd36 	bltu	r2,r3,1e0 <__alt_data_end+0xfe0001e0>
     * section aren't defined until alt_load() has been called).
     */
    mov   et, zero
#endif

    call alt_load
     1ec:	00124b00 	call	124b0 <alt_load>

    /* Log that alt_main is about to be called. */
    ALT_LOG_PUTS(alt_log_msg_alt_main)

    /* Call the C entry point. It should never return. */
    call alt_main
     1f0:	00126500 	call	12650 <alt_main>

000001f4 <alt_after_alt_main>:

    /* Wait in infinite loop in case alt_main does return. */
alt_after_alt_main:
    br alt_after_alt_main
     1f4:	003fff06 	br	1f4 <__alt_data_end+0xfe0001f4>

000001f8 <main>:
#define W 240

void load(FILE* f, uint16_t iframe[H][W]);

int main()
{ 
     1f8:	defffe04 	addi	sp,sp,-8
     1fc:	dfc00115 	stw	ra,4(sp)
     200:	df000015 	stw	fp,0(sp)
     204:	d839883a 	mov	fp,sp
     208:	023ffe74 	movhi	r8,65529
     20c:	423dff04 	addi	r8,r8,-2052
     210:	da37883a 	add	sp,sp,r8
  printf("Hello from Nios II!\n");
     214:	01000074 	movhi	r4,1
     218:	21138404 	addi	r4,r4,19984
     21c:	00012500 	call	1250 <puts>
  LCD_Init();
     220:	00008240 	call	824 <LCD_Init>
  int i = 0;
     224:	00bffe74 	movhi	r2,65529
     228:	10bdff04 	addi	r2,r2,-2052
     22c:	1705883a 	add	r2,r2,fp
     230:	10000015 	stw	zero,0(r2)
  printf("Hello from Nios II!\n");
     234:	01000074 	movhi	r4,1
     238:	21138404 	addi	r4,r4,19984
     23c:	00012500 	call	1250 <puts>
//  }
//LCD_SetCursor(0,0);
  	  //LCD_Frouze();
  /* Event loop never exits. */

  	  for(i = 0; i < 320*240 ; i ++)
     240:	00fffe74 	movhi	r3,65529
     244:	18fdff04 	addi	r3,r3,-2052
     248:	1f07883a 	add	r3,r3,fp
     24c:	18000015 	stw	zero,0(r3)
     250:	00003106 	br	318 <main+0x120>
  	  {
  		 data1[i] = RED;// colors[(i/10)%3];
     254:	013ffe74 	movhi	r4,65529
     258:	213dff04 	addi	r4,r4,-2052
     25c:	2709883a 	add	r4,r4,fp
     260:	20800017 	ldw	r2,0(r4)
     264:	1085883a 	add	r2,r2,r2
     268:	00fffe74 	movhi	r3,65529
     26c:	18fdff04 	addi	r3,r3,-2052
     270:	1f07883a 	add	r3,r3,fp
     274:	1885883a 	add	r2,r3,r2
     278:	10800104 	addi	r2,r2,4
     27c:	00fe0004 	movi	r3,-2048
     280:	10c0000d 	sth	r3,0(r2)
  		 data2[i] = WHITE;
     284:	008000b4 	movhi	r2,2
     288:	10960104 	addi	r2,r2,22532
     28c:	013ffe74 	movhi	r4,65529
     290:	213dff04 	addi	r4,r4,-2052
     294:	2709883a 	add	r4,r4,fp
     298:	2087883a 	add	r3,r4,r2
     29c:	013ffe74 	movhi	r4,65529
     2a0:	213dff04 	addi	r4,r4,-2052
     2a4:	2709883a 	add	r4,r4,fp
     2a8:	20800017 	ldw	r2,0(r4)
     2ac:	1085883a 	add	r2,r2,r2
     2b0:	1885883a 	add	r2,r3,r2
     2b4:	00ffffc4 	movi	r3,-1
     2b8:	10c0000d 	sth	r3,0(r2)
  		 data3[i] = BLUE;
     2bc:	00800174 	movhi	r2,5
     2c0:	10ac0104 	addi	r2,r2,-20476
     2c4:	013ffe74 	movhi	r4,65529
     2c8:	213dff04 	addi	r4,r4,-2052
     2cc:	2709883a 	add	r4,r4,fp
     2d0:	2087883a 	add	r3,r4,r2
     2d4:	013ffe74 	movhi	r4,65529
     2d8:	213dff04 	addi	r4,r4,-2052
     2dc:	2709883a 	add	r4,r4,fp
     2e0:	20800017 	ldw	r2,0(r4)
     2e4:	1085883a 	add	r2,r2,r2
     2e8:	1885883a 	add	r2,r3,r2
     2ec:	00c007c4 	movi	r3,31
     2f0:	10c0000d 	sth	r3,0(r2)
//  }
//LCD_SetCursor(0,0);
  	  //LCD_Frouze();
  /* Event loop never exits. */

  	  for(i = 0; i < 320*240 ; i ++)
     2f4:	00fffe74 	movhi	r3,65529
     2f8:	18fdff04 	addi	r3,r3,-2052
     2fc:	1f07883a 	add	r3,r3,fp
     300:	18800017 	ldw	r2,0(r3)
     304:	10800044 	addi	r2,r2,1
     308:	013ffe74 	movhi	r4,65529
     30c:	213dff04 	addi	r4,r4,-2052
     310:	2709883a 	add	r4,r4,fp
     314:	20800015 	stw	r2,0(r4)
     318:	00fffe74 	movhi	r3,65529
     31c:	18fdff04 	addi	r3,r3,-2052
     320:	1f07883a 	add	r3,r3,fp
     324:	18800017 	ldw	r2,0(r3)
     328:	00c00074 	movhi	r3,1
     32c:	18caffc4 	addi	r3,r3,11263
     330:	18bfc80e 	bge	r3,r2,254 <__alt_data_end+0xfe000254>
  		 data1[i] = RED;// colors[(i/10)%3];
  		 data2[i] = WHITE;
  		 data3[i] = BLUE;
  	  }

  	  LCD_WR(buff_0 << 2, data1);
     334:	013ffe74 	movhi	r4,65529
     338:	213e0004 	addi	r4,r4,-2048
     33c:	e107883a 	add	r3,fp,r4
     340:	00808034 	movhi	r2,512
     344:	10840104 	addi	r2,r2,4100
     348:	10c00035 	stwio	r3,0(r2)
   	  //LCD_WR(buff_1 << 2, data2);
  	  //LCD_WR(buff_2 << 2, data3);
  	  LCD_WR(start_master << 2, 1);
     34c:	00c00044 	movi	r3,1
     350:	00808034 	movhi	r2,512
     354:	10840704 	addi	r2,r2,4124
     358:	10c00035 	stwio	r3,0(r2)


  while (1);
     35c:	003fff06 	br	35c <__alt_data_end+0xfe00035c>

00000360 <Delay_Ms>:




void Delay_Ms(alt_u16 count_ms)
{
     360:	defffd04 	addi	sp,sp,-12
     364:	dfc00215 	stw	ra,8(sp)
     368:	df000115 	stw	fp,4(sp)
     36c:	df000104 	addi	fp,sp,4
     370:	2005883a 	mov	r2,r4
     374:	e0bfff0d 	sth	r2,-4(fp)
    while(count_ms--)
     378:	00000206 	br	384 <Delay_Ms+0x24>
    {
        usleep(1000);
     37c:	0100fa04 	movi	r4,1000
     380:	00129580 	call	12958 <usleep>



void Delay_Ms(alt_u16 count_ms)
{
    while(count_ms--)
     384:	e0bfff0b 	ldhu	r2,-4(fp)
     388:	10ffffc4 	addi	r3,r2,-1
     38c:	e0ffff0d 	sth	r3,-4(fp)
     390:	10bfffcc 	andi	r2,r2,65535
     394:	103ff91e 	bne	r2,zero,37c <__alt_data_end+0xfe00037c>
    {
        usleep(1000);
    }
}
     398:	e037883a 	mov	sp,fp
     39c:	dfc00117 	ldw	ra,4(sp)
     3a0:	df000017 	ldw	fp,0(sp)
     3a4:	dec00204 	addi	sp,sp,8
     3a8:	f800283a 	ret

000003ac <LCD_SetCursor>:


void LCD_SetCursor(alt_u16 Xpos, alt_u16 Ypos)
 {
     3ac:	defffd04 	addi	sp,sp,-12
     3b0:	df000215 	stw	fp,8(sp)
     3b4:	df000204 	addi	fp,sp,8
     3b8:	2007883a 	mov	r3,r4
     3bc:	2805883a 	mov	r2,r5
     3c0:	e0fffe0d 	sth	r3,-8(fp)
     3c4:	e0bfff0d 	sth	r2,-4(fp)
		LCD_WR_REG(0x002A);
     3c8:	00c00a84 	movi	r3,42
     3cc:	00808034 	movhi	r2,512
     3d0:	10840004 	addi	r2,r2,4096
     3d4:	10c00035 	stwio	r3,0(r2)
		LCD_WR_DATA(Xpos >> 8);
     3d8:	e0bffe0b 	ldhu	r2,-8(fp)
     3dc:	1004d23a 	srli	r2,r2,8
     3e0:	10bfffcc 	andi	r2,r2,65535
     3e4:	10c00074 	orhi	r3,r2,1
     3e8:	00808034 	movhi	r2,512
     3ec:	10840004 	addi	r2,r2,4096
     3f0:	10c00035 	stwio	r3,0(r2)
		LCD_WR_DATA((Xpos & 0XFF));
     3f4:	e0bffe0b 	ldhu	r2,-8(fp)
     3f8:	10803fcc 	andi	r2,r2,255
     3fc:	10c00074 	orhi	r3,r2,1
     400:	00808034 	movhi	r2,512
     404:	10840004 	addi	r2,r2,4096
     408:	10c00035 	stwio	r3,0(r2)
		LCD_WR_REG(0x002B);
     40c:	00c00ac4 	movi	r3,43
     410:	00808034 	movhi	r2,512
     414:	10840004 	addi	r2,r2,4096
     418:	10c00035 	stwio	r3,0(r2)
		LCD_WR_DATA(Ypos >> 8);
     41c:	e0bfff0b 	ldhu	r2,-4(fp)
     420:	1004d23a 	srli	r2,r2,8
     424:	10bfffcc 	andi	r2,r2,65535
     428:	10c00074 	orhi	r3,r2,1
     42c:	00808034 	movhi	r2,512
     430:	10840004 	addi	r2,r2,4096
     434:	10c00035 	stwio	r3,0(r2)
		LCD_WR_DATA((Ypos & 0XFF));
     438:	e0bfff0b 	ldhu	r2,-4(fp)
     43c:	10803fcc 	andi	r2,r2,255
     440:	10c00074 	orhi	r3,r2,1
     444:	00808034 	movhi	r2,512
     448:	10840004 	addi	r2,r2,4096
     44c:	10c00035 	stwio	r3,0(r2)
		LCD_WR_REG(0x002C);
     450:	00c00b04 	movi	r3,44
     454:	00808034 	movhi	r2,512
     458:	10840004 	addi	r2,r2,4096
     45c:	10c00035 	stwio	r3,0(r2)
}
     460:	e037883a 	mov	sp,fp
     464:	df000017 	ldw	fp,0(sp)
     468:	dec00104 	addi	sp,sp,4
     46c:	f800283a 	ret

00000470 <LCD_Clear>:

void LCD_Clear(alt_u16 Color)
{
     470:	defffc04 	addi	sp,sp,-16
     474:	dfc00315 	stw	ra,12(sp)
     478:	df000215 	stw	fp,8(sp)
     47c:	df000204 	addi	fp,sp,8
     480:	2005883a 	mov	r2,r4
     484:	e0bfff0d 	sth	r2,-4(fp)
        alt_u32 index=0;
     488:	e03ffe15 	stw	zero,-8(fp)
        LCD_SetCursor(0x00,0x0000);
     48c:	0009883a 	mov	r4,zero
     490:	000b883a 	mov	r5,zero
     494:	00003ac0 	call	3ac <LCD_SetCursor>
        LCD_WR_REG(0x002C);
     498:	00c00b04 	movi	r3,44
     49c:	00808034 	movhi	r2,512
     4a0:	10840004 	addi	r2,r2,4096
     4a4:	10c00035 	stwio	r3,0(r2)
        for(index=0;index<76800;index++)
     4a8:	e03ffe15 	stw	zero,-8(fp)
     4ac:	00000806 	br	4d0 <LCD_Clear+0x60>
        {
        	LCD_WR_DATA(Color);
     4b0:	e0bfff0b 	ldhu	r2,-4(fp)
     4b4:	10c00074 	orhi	r3,r2,1
     4b8:	00808034 	movhi	r2,512
     4bc:	10840004 	addi	r2,r2,4096
     4c0:	10c00035 	stwio	r3,0(r2)
void LCD_Clear(alt_u16 Color)
{
        alt_u32 index=0;
        LCD_SetCursor(0x00,0x0000);
        LCD_WR_REG(0x002C);
        for(index=0;index<76800;index++)
     4c4:	e0bffe17 	ldw	r2,-8(fp)
     4c8:	10800044 	addi	r2,r2,1
     4cc:	e0bffe15 	stw	r2,-8(fp)
     4d0:	e0bffe17 	ldw	r2,-8(fp)
     4d4:	00c00074 	movhi	r3,1
     4d8:	18caffc4 	addi	r3,r3,11263
     4dc:	18bff42e 	bgeu	r3,r2,4b0 <__alt_data_end+0xfe0004b0>
        {
        	LCD_WR_DATA(Color);
        }
}
     4e0:	e037883a 	mov	sp,fp
     4e4:	dfc00117 	ldw	ra,4(sp)
     4e8:	df000017 	ldw	fp,0(sp)
     4ec:	dec00204 	addi	sp,sp,8
     4f0:	f800283a 	ret

000004f4 <LCD_DrawPoint>:

void LCD_DrawPoint(alt_u16 x,alt_u16 y,alt_u16 color )
{
     4f4:	defffb04 	addi	sp,sp,-20
     4f8:	dfc00415 	stw	ra,16(sp)
     4fc:	df000315 	stw	fp,12(sp)
     500:	df000304 	addi	fp,sp,12
     504:	2807883a 	mov	r3,r5
     508:	3005883a 	mov	r2,r6
     50c:	e13ffd0d 	sth	r4,-12(fp)
     510:	e0fffe0d 	sth	r3,-8(fp)
     514:	e0bfff0d 	sth	r2,-4(fp)
        LCD_SetCursor(x,y);
     518:	e0fffd0b 	ldhu	r3,-12(fp)
     51c:	e0bffe0b 	ldhu	r2,-8(fp)
     520:	1809883a 	mov	r4,r3
     524:	100b883a 	mov	r5,r2
     528:	00003ac0 	call	3ac <LCD_SetCursor>
        LCD_WR_REG(0x002);
     52c:	00c00084 	movi	r3,2
     530:	00808034 	movhi	r2,512
     534:	10840004 	addi	r2,r2,4096
     538:	10c00035 	stwio	r3,0(r2)
        LCD_WR_DATA(color);
     53c:	e0bfff0b 	ldhu	r2,-4(fp)
     540:	10c00074 	orhi	r3,r2,1
     544:	00808034 	movhi	r2,512
     548:	10840004 	addi	r2,r2,4096
     54c:	10c00035 	stwio	r3,0(r2)
}
     550:	e037883a 	mov	sp,fp
     554:	dfc00117 	ldw	ra,4(sp)
     558:	df000017 	ldw	fp,0(sp)
     55c:	dec00204 	addi	sp,sp,8
     560:	f800283a 	ret

00000564 <LCD_Pattern_Horizon>:

void LCD_Pattern_Horizon(void)
{
     564:	defffc04 	addi	sp,sp,-16
     568:	dfc00315 	stw	ra,12(sp)
     56c:	df000215 	stw	fp,8(sp)
     570:	df000204 	addi	fp,sp,8
        alt_u32 index=0;
     574:	e03ffe15 	stw	zero,-8(fp)
        alt_u16  data=0;
     578:	e03fff0d 	sth	zero,-4(fp)
        LCD_SetCursor(0x00,0x0000);
     57c:	0009883a 	mov	r4,zero
     580:	000b883a 	mov	r5,zero
     584:	00003ac0 	call	3ac <LCD_SetCursor>
        data=RED;
     588:	00be0004 	movi	r2,-2048
     58c:	e0bfff0d 	sth	r2,-4(fp)
        for(index=0;index<240*107;index++)
     590:	e03ffe15 	stw	zero,-8(fp)
     594:	00000806 	br	5b8 <LCD_Pattern_Horizon+0x54>
        {
        	LCD_WR_DATA(data);
     598:	e0bfff0b 	ldhu	r2,-4(fp)
     59c:	10c00074 	orhi	r3,r2,1
     5a0:	00808034 	movhi	r2,512
     5a4:	10840004 	addi	r2,r2,4096
     5a8:	10c00035 	stwio	r3,0(r2)
{
        alt_u32 index=0;
        alt_u16  data=0;
        LCD_SetCursor(0x00,0x0000);
        data=RED;
        for(index=0;index<240*107;index++)
     5ac:	e0bffe17 	ldw	r2,-8(fp)
     5b0:	10800044 	addi	r2,r2,1
     5b4:	e0bffe15 	stw	r2,-8(fp)
     5b8:	e0bffe17 	ldw	r2,-8(fp)
     5bc:	10991430 	cmpltui	r2,r2,25680
     5c0:	103ff51e 	bne	r2,zero,598 <__alt_data_end+0xfe000598>
        {
        	LCD_WR_DATA(data);
        }
        LCD_SetCursor(0x00,107);
     5c4:	0009883a 	mov	r4,zero
     5c8:	01401ac4 	movi	r5,107
     5cc:	00003ac0 	call	3ac <LCD_SetCursor>
        data=WHITE;
     5d0:	00bfffc4 	movi	r2,-1
     5d4:	e0bfff0d 	sth	r2,-4(fp)
		for(index=0;index<240*107;index++)
     5d8:	e03ffe15 	stw	zero,-8(fp)
     5dc:	00000806 	br	600 <LCD_Pattern_Horizon+0x9c>
		{
			LCD_WR_DATA(data);
     5e0:	e0bfff0b 	ldhu	r2,-4(fp)
     5e4:	10c00074 	orhi	r3,r2,1
     5e8:	00808034 	movhi	r2,512
     5ec:	10840004 	addi	r2,r2,4096
     5f0:	10c00035 	stwio	r3,0(r2)
        {
        	LCD_WR_DATA(data);
        }
        LCD_SetCursor(0x00,107);
        data=WHITE;
		for(index=0;index<240*107;index++)
     5f4:	e0bffe17 	ldw	r2,-8(fp)
     5f8:	10800044 	addi	r2,r2,1
     5fc:	e0bffe15 	stw	r2,-8(fp)
     600:	e0bffe17 	ldw	r2,-8(fp)
     604:	10991430 	cmpltui	r2,r2,25680
     608:	103ff51e 	bne	r2,zero,5e0 <__alt_data_end+0xfe0005e0>
		{
			LCD_WR_DATA(data);
		}
	    LCD_SetCursor(0x00,214);
     60c:	0009883a 	mov	r4,zero
     610:	01403584 	movi	r5,214
     614:	00003ac0 	call	3ac <LCD_SetCursor>
		data=BLUE;
     618:	008007c4 	movi	r2,31
     61c:	e0bfff0d 	sth	r2,-4(fp)
		for(index=0;index<240*106;index++)
     620:	e03ffe15 	stw	zero,-8(fp)
     624:	00000806 	br	648 <LCD_Pattern_Horizon+0xe4>
		{
			LCD_WR_DATA(data);
     628:	e0bfff0b 	ldhu	r2,-4(fp)
     62c:	10c00074 	orhi	r3,r2,1
     630:	00808034 	movhi	r2,512
     634:	10840004 	addi	r2,r2,4096
     638:	10c00035 	stwio	r3,0(r2)
		{
			LCD_WR_DATA(data);
		}
	    LCD_SetCursor(0x00,214);
		data=BLUE;
		for(index=0;index<240*106;index++)
     63c:	e0bffe17 	ldw	r2,-8(fp)
     640:	10800044 	addi	r2,r2,1
     644:	e0bffe15 	stw	r2,-8(fp)
     648:	e0bffe17 	ldw	r2,-8(fp)
     64c:	1098d830 	cmpltui	r2,r2,25440
     650:	103ff51e 	bne	r2,zero,628 <__alt_data_end+0xfe000628>
		{
			LCD_WR_DATA(data);
		}
}
     654:	e037883a 	mov	sp,fp
     658:	dfc00117 	ldw	ra,4(sp)
     65c:	df000017 	ldw	fp,0(sp)
     660:	dec00204 	addi	sp,sp,8
     664:	f800283a 	ret

00000668 <LCD_Pattern_Vertical>:

void LCD_Pattern_Vertical(void)
{
     668:	defff804 	addi	sp,sp,-32
     66c:	dfc00715 	stw	ra,28(sp)
     670:	df000615 	stw	fp,24(sp)
     674:	df000604 	addi	fp,sp,24
        int i,j,m;
        alt_u16  data=0;
     678:	e03ffd0d 	sth	zero,-12(fp)
        alt_u16  color[4]={WHITE,BLUE,GREEN,RED};
     67c:	00bfffc4 	movi	r2,-1
     680:	e0bffd8d 	sth	r2,-10(fp)
     684:	008007c4 	movi	r2,31
     688:	e0bffe0d 	sth	r2,-8(fp)
     68c:	0081f804 	movi	r2,2016
     690:	e0bffe8d 	sth	r2,-6(fp)
     694:	00be0004 	movi	r2,-2048
     698:	e0bfff0d 	sth	r2,-4(fp)
        LCD_SetCursor(0x00,0x0000);
     69c:	0009883a 	mov	r4,zero
     6a0:	000b883a 	mov	r5,zero
     6a4:	00003ac0 	call	3ac <LCD_SetCursor>
        for(m=0;m<320;m++)
     6a8:	e03ffc15 	stw	zero,-16(fp)
     6ac:	00001f06 	br	72c <LCD_Pattern_Vertical+0xc4>
        {
			for(i=0;i<4;i++)
     6b0:	e03ffa15 	stw	zero,-24(fp)
     6b4:	00001706 	br	714 <LCD_Pattern_Vertical+0xac>
			{
				data=color[i];
     6b8:	e0bffa17 	ldw	r2,-24(fp)
     6bc:	1085883a 	add	r2,r2,r2
     6c0:	e0fffa04 	addi	r3,fp,-24
     6c4:	1885883a 	add	r2,r3,r2
     6c8:	10800384 	addi	r2,r2,14
     6cc:	1080000b 	ldhu	r2,0(r2)
     6d0:	e0bffd0d 	sth	r2,-12(fp)
				for(j=0;j<60;j++)
     6d4:	e03ffb15 	stw	zero,-20(fp)
     6d8:	00000806 	br	6fc <LCD_Pattern_Vertical+0x94>
				{
					LCD_WR_DATA(data);
     6dc:	e0bffd0b 	ldhu	r2,-12(fp)
     6e0:	10c00074 	orhi	r3,r2,1
     6e4:	00808034 	movhi	r2,512
     6e8:	10840004 	addi	r2,r2,4096
     6ec:	10c00035 	stwio	r3,0(r2)
        for(m=0;m<320;m++)
        {
			for(i=0;i<4;i++)
			{
				data=color[i];
				for(j=0;j<60;j++)
     6f0:	e0bffb17 	ldw	r2,-20(fp)
     6f4:	10800044 	addi	r2,r2,1
     6f8:	e0bffb15 	stw	r2,-20(fp)
     6fc:	e0bffb17 	ldw	r2,-20(fp)
     700:	10800f10 	cmplti	r2,r2,60
     704:	103ff51e 	bne	r2,zero,6dc <__alt_data_end+0xfe0006dc>
        alt_u16  data=0;
        alt_u16  color[4]={WHITE,BLUE,GREEN,RED};
        LCD_SetCursor(0x00,0x0000);
        for(m=0;m<320;m++)
        {
			for(i=0;i<4;i++)
     708:	e0bffa17 	ldw	r2,-24(fp)
     70c:	10800044 	addi	r2,r2,1
     710:	e0bffa15 	stw	r2,-24(fp)
     714:	e0bffa17 	ldw	r2,-24(fp)
     718:	10800110 	cmplti	r2,r2,4
     71c:	103fe61e 	bne	r2,zero,6b8 <__alt_data_end+0xfe0006b8>
{
        int i,j,m;
        alt_u16  data=0;
        alt_u16  color[4]={WHITE,BLUE,GREEN,RED};
        LCD_SetCursor(0x00,0x0000);
        for(m=0;m<320;m++)
     720:	e0bffc17 	ldw	r2,-16(fp)
     724:	10800044 	addi	r2,r2,1
     728:	e0bffc15 	stw	r2,-16(fp)
     72c:	e0bffc17 	ldw	r2,-16(fp)
     730:	10805010 	cmplti	r2,r2,320
     734:	103fde1e 	bne	r2,zero,6b0 <__alt_data_end+0xfe0006b0>
				{
					LCD_WR_DATA(data);
				}
			}
        }
}
     738:	e037883a 	mov	sp,fp
     73c:	dfc00117 	ldw	ra,4(sp)
     740:	df000017 	ldw	fp,0(sp)
     744:	dec00204 	addi	sp,sp,8
     748:	f800283a 	ret

0000074c <LCD_Frouze>:


void LCD_Frouze()
 {
     74c:	defffd04 	addi	sp,sp,-12
     750:	df000215 	stw	fp,8(sp)
     754:	df000204 	addi	fp,sp,8
	alt_u32 index = 0;
     758:	e03ffe15 	stw	zero,-8(fp)
	alt_u16 data = 0;
     75c:	e03fff0d 	sth	zero,-4(fp)

	data = RED;
     760:	00be0004 	movi	r2,-2048
     764:	e0bfff0d 	sth	r2,-4(fp)
	for (index = 0; index < 240 * 107; index++) {
     768:	e03ffe15 	stw	zero,-8(fp)
     76c:	00000806 	br	790 <LCD_Frouze+0x44>
		LCD_WR_DATA(data);
     770:	e0bfff0b 	ldhu	r2,-4(fp)
     774:	10c00074 	orhi	r3,r2,1
     778:	00808034 	movhi	r2,512
     77c:	10840004 	addi	r2,r2,4096
     780:	10c00035 	stwio	r3,0(r2)
 {
	alt_u32 index = 0;
	alt_u16 data = 0;

	data = RED;
	for (index = 0; index < 240 * 107; index++) {
     784:	e0bffe17 	ldw	r2,-8(fp)
     788:	10800044 	addi	r2,r2,1
     78c:	e0bffe15 	stw	r2,-8(fp)
     790:	e0bffe17 	ldw	r2,-8(fp)
     794:	10991430 	cmpltui	r2,r2,25680
     798:	103ff51e 	bne	r2,zero,770 <__alt_data_end+0xfe000770>
		LCD_WR_DATA(data);
	}
	data = WHITE;
     79c:	00bfffc4 	movi	r2,-1
     7a0:	e0bfff0d 	sth	r2,-4(fp)
	for (index = 0; index < 240 * 107; index++) {
     7a4:	e03ffe15 	stw	zero,-8(fp)
     7a8:	00000806 	br	7cc <LCD_Frouze+0x80>
		LCD_WR_DATA(data);
     7ac:	e0bfff0b 	ldhu	r2,-4(fp)
     7b0:	10c00074 	orhi	r3,r2,1
     7b4:	00808034 	movhi	r2,512
     7b8:	10840004 	addi	r2,r2,4096
     7bc:	10c00035 	stwio	r3,0(r2)
	data = RED;
	for (index = 0; index < 240 * 107; index++) {
		LCD_WR_DATA(data);
	}
	data = WHITE;
	for (index = 0; index < 240 * 107; index++) {
     7c0:	e0bffe17 	ldw	r2,-8(fp)
     7c4:	10800044 	addi	r2,r2,1
     7c8:	e0bffe15 	stw	r2,-8(fp)
     7cc:	e0bffe17 	ldw	r2,-8(fp)
     7d0:	10991430 	cmpltui	r2,r2,25680
     7d4:	103ff51e 	bne	r2,zero,7ac <__alt_data_end+0xfe0007ac>
		LCD_WR_DATA(data);
	}
	data = BLUE;
     7d8:	008007c4 	movi	r2,31
     7dc:	e0bfff0d 	sth	r2,-4(fp)
	for (index = 0; index < 240 * 106; index++) {
     7e0:	e03ffe15 	stw	zero,-8(fp)
     7e4:	00000806 	br	808 <LCD_Frouze+0xbc>
		LCD_WR_DATA(data);
     7e8:	e0bfff0b 	ldhu	r2,-4(fp)
     7ec:	10c00074 	orhi	r3,r2,1
     7f0:	00808034 	movhi	r2,512
     7f4:	10840004 	addi	r2,r2,4096
     7f8:	10c00035 	stwio	r3,0(r2)
	data = WHITE;
	for (index = 0; index < 240 * 107; index++) {
		LCD_WR_DATA(data);
	}
	data = BLUE;
	for (index = 0; index < 240 * 106; index++) {
     7fc:	e0bffe17 	ldw	r2,-8(fp)
     800:	10800044 	addi	r2,r2,1
     804:	e0bffe15 	stw	r2,-8(fp)
     808:	e0bffe17 	ldw	r2,-8(fp)
     80c:	1098d830 	cmpltui	r2,r2,25440
     810:	103ff51e 	bne	r2,zero,7e8 <__alt_data_end+0xfe0007e8>
		LCD_WR_DATA(data);
	}
}
     814:	e037883a 	mov	sp,fp
     818:	df000017 	ldw	fp,0(sp)
     81c:	dec00104 	addi	sp,sp,4
     820:	f800283a 	ret

00000824 <LCD_Init>:

void LCD_Init()
{
     824:	defffe04 	addi	sp,sp,-8
     828:	dfc00115 	stw	ra,4(sp)
     82c:	df000015 	stw	fp,0(sp)
     830:	d839883a 	mov	fp,sp
	//alt_u16 data1,data2;
	//alt_u16 data3,data4;
	Set_LCD_RST;
     834:	0007883a 	mov	r3,zero
     838:	00808034 	movhi	r2,512
     83c:	10840184 	addi	r2,r2,4102
     840:	10c00035 	stwio	r3,0(r2)
	Delay_Ms(1);
     844:	01000044 	movi	r4,1
     848:	00003600 	call	360 <Delay_Ms>
	Clr_LCD_RST;
     84c:	00c00044 	movi	r3,1
     850:	00808034 	movhi	r2,512
     854:	10840184 	addi	r2,r2,4102
     858:	10c00035 	stwio	r3,0(r2)
	Delay_Ms(10);       // Delay 10ms // This delay time is necessary
     85c:	01000284 	movi	r4,10
     860:	00003600 	call	360 <Delay_Ms>
	Set_LCD_RST;
     864:	0007883a 	mov	r3,zero
     868:	00808034 	movhi	r2,512
     86c:	10840184 	addi	r2,r2,4102
     870:	10c00035 	stwio	r3,0(r2)
	Delay_Ms(120);       // Delay 120 ms
     874:	01001e04 	movi	r4,120
     878:	00003600 	call	360 <Delay_Ms>
	Clr_LCD_RST;
     87c:	00c00044 	movi	r3,1
     880:	00808034 	movhi	r2,512
     884:	10840184 	addi	r2,r2,4102
     888:	10c00035 	stwio	r3,0(r2)



	LCD_WR_REG(0x0011); //Exit Sleep
     88c:	00c00444 	movi	r3,17
     890:	00808034 	movhi	r2,512
     894:	10840004 	addi	r2,r2,4096
     898:	10c00035 	stwio	r3,0(r2)
	LCD_WR_REG(0x00CF);
     89c:	00c033c4 	movi	r3,207
     8a0:	00808034 	movhi	r2,512
     8a4:	10840004 	addi	r2,r2,4096
     8a8:	10c00035 	stwio	r3,0(r2)
		LCD_WR_DATA(0x0000);
     8ac:	00c00074 	movhi	r3,1
     8b0:	00808034 	movhi	r2,512
     8b4:	10840004 	addi	r2,r2,4096
     8b8:	10c00035 	stwio	r3,0(r2)
		LCD_WR_DATA(0x0081);
     8bc:	00c00074 	movhi	r3,1
     8c0:	18c02044 	addi	r3,r3,129
     8c4:	00808034 	movhi	r2,512
     8c8:	10840004 	addi	r2,r2,4096
     8cc:	10c00035 	stwio	r3,0(r2)
		LCD_WR_DATA(0X00c0);
     8d0:	00c00074 	movhi	r3,1
     8d4:	18c03004 	addi	r3,r3,192
     8d8:	00808034 	movhi	r2,512
     8dc:	10840004 	addi	r2,r2,4096
     8e0:	10c00035 	stwio	r3,0(r2)

	LCD_WR_REG(0x00ED);
     8e4:	00c03b44 	movi	r3,237
     8e8:	00808034 	movhi	r2,512
     8ec:	10840004 	addi	r2,r2,4096
     8f0:	10c00035 	stwio	r3,0(r2)
		LCD_WR_DATA(0x0064);
     8f4:	00c00074 	movhi	r3,1
     8f8:	18c01904 	addi	r3,r3,100
     8fc:	00808034 	movhi	r2,512
     900:	10840004 	addi	r2,r2,4096
     904:	10c00035 	stwio	r3,0(r2)
		LCD_WR_DATA(0x0003);
     908:	00c00074 	movhi	r3,1
     90c:	18c000c4 	addi	r3,r3,3
     910:	00808034 	movhi	r2,512
     914:	10840004 	addi	r2,r2,4096
     918:	10c00035 	stwio	r3,0(r2)
		LCD_WR_DATA(0X0012);
     91c:	00c00074 	movhi	r3,1
     920:	18c00484 	addi	r3,r3,18
     924:	00808034 	movhi	r2,512
     928:	10840004 	addi	r2,r2,4096
     92c:	10c00035 	stwio	r3,0(r2)
		LCD_WR_DATA(0X0081);
     930:	00c00074 	movhi	r3,1
     934:	18c02044 	addi	r3,r3,129
     938:	00808034 	movhi	r2,512
     93c:	10840004 	addi	r2,r2,4096
     940:	10c00035 	stwio	r3,0(r2)

	LCD_WR_REG(0x00E8);
     944:	00c03a04 	movi	r3,232
     948:	00808034 	movhi	r2,512
     94c:	10840004 	addi	r2,r2,4096
     950:	10c00035 	stwio	r3,0(r2)
		LCD_WR_DATA(0x0085);
     954:	00c00074 	movhi	r3,1
     958:	18c02144 	addi	r3,r3,133
     95c:	00808034 	movhi	r2,512
     960:	10840004 	addi	r2,r2,4096
     964:	10c00035 	stwio	r3,0(r2)
		LCD_WR_DATA(0x0001);
     968:	00c00074 	movhi	r3,1
     96c:	18c00044 	addi	r3,r3,1
     970:	00808034 	movhi	r2,512
     974:	10840004 	addi	r2,r2,4096
     978:	10c00035 	stwio	r3,0(r2)
		LCD_WR_DATA(0x00798);
     97c:	00c00074 	movhi	r3,1
     980:	18c1e604 	addi	r3,r3,1944
     984:	00808034 	movhi	r2,512
     988:	10840004 	addi	r2,r2,4096
     98c:	10c00035 	stwio	r3,0(r2)

	LCD_WR_REG(0x00CB);
     990:	00c032c4 	movi	r3,203
     994:	00808034 	movhi	r2,512
     998:	10840004 	addi	r2,r2,4096
     99c:	10c00035 	stwio	r3,0(r2)
		LCD_WR_DATA(0x0039);
     9a0:	00c00074 	movhi	r3,1
     9a4:	18c00e44 	addi	r3,r3,57
     9a8:	00808034 	movhi	r2,512
     9ac:	10840004 	addi	r2,r2,4096
     9b0:	10c00035 	stwio	r3,0(r2)
		LCD_WR_DATA(0x002C);
     9b4:	00c00074 	movhi	r3,1
     9b8:	18c00b04 	addi	r3,r3,44
     9bc:	00808034 	movhi	r2,512
     9c0:	10840004 	addi	r2,r2,4096
     9c4:	10c00035 	stwio	r3,0(r2)
		LCD_WR_DATA(0x0000);
     9c8:	00c00074 	movhi	r3,1
     9cc:	00808034 	movhi	r2,512
     9d0:	10840004 	addi	r2,r2,4096
     9d4:	10c00035 	stwio	r3,0(r2)
		LCD_WR_DATA(0x0034);
     9d8:	00c00074 	movhi	r3,1
     9dc:	18c00d04 	addi	r3,r3,52
     9e0:	00808034 	movhi	r2,512
     9e4:	10840004 	addi	r2,r2,4096
     9e8:	10c00035 	stwio	r3,0(r2)
		LCD_WR_DATA(0x0002);
     9ec:	00c00074 	movhi	r3,1
     9f0:	18c00084 	addi	r3,r3,2
     9f4:	00808034 	movhi	r2,512
     9f8:	10840004 	addi	r2,r2,4096
     9fc:	10c00035 	stwio	r3,0(r2)

	LCD_WR_REG(0x00F7);
     a00:	00c03dc4 	movi	r3,247
     a04:	00808034 	movhi	r2,512
     a08:	10840004 	addi	r2,r2,4096
     a0c:	10c00035 	stwio	r3,0(r2)
		LCD_WR_DATA(0x0020);
     a10:	00c00074 	movhi	r3,1
     a14:	18c00804 	addi	r3,r3,32
     a18:	00808034 	movhi	r2,512
     a1c:	10840004 	addi	r2,r2,4096
     a20:	10c00035 	stwio	r3,0(r2)

	LCD_WR_REG(0x00EA);
     a24:	00c03a84 	movi	r3,234
     a28:	00808034 	movhi	r2,512
     a2c:	10840004 	addi	r2,r2,4096
     a30:	10c00035 	stwio	r3,0(r2)
		LCD_WR_DATA(0x0000);
     a34:	00c00074 	movhi	r3,1
     a38:	00808034 	movhi	r2,512
     a3c:	10840004 	addi	r2,r2,4096
     a40:	10c00035 	stwio	r3,0(r2)
		LCD_WR_DATA(0x0000);
     a44:	00c00074 	movhi	r3,1
     a48:	00808034 	movhi	r2,512
     a4c:	10840004 	addi	r2,r2,4096
     a50:	10c00035 	stwio	r3,0(r2)

	LCD_WR_REG(0x00B1);
     a54:	00c02c44 	movi	r3,177
     a58:	00808034 	movhi	r2,512
     a5c:	10840004 	addi	r2,r2,4096
     a60:	10c00035 	stwio	r3,0(r2)
		LCD_WR_DATA(0x0000);
     a64:	00c00074 	movhi	r3,1
     a68:	00808034 	movhi	r2,512
     a6c:	10840004 	addi	r2,r2,4096
     a70:	10c00035 	stwio	r3,0(r2)
		LCD_WR_DATA(0x001b);
     a74:	00c00074 	movhi	r3,1
     a78:	18c006c4 	addi	r3,r3,27
     a7c:	00808034 	movhi	r2,512
     a80:	10840004 	addi	r2,r2,4096
     a84:	10c00035 	stwio	r3,0(r2)

	LCD_WR_REG(0x00B6);
     a88:	00c02d84 	movi	r3,182
     a8c:	00808034 	movhi	r2,512
     a90:	10840004 	addi	r2,r2,4096
     a94:	10c00035 	stwio	r3,0(r2)
		LCD_WR_DATA(0x000A);
     a98:	00c00074 	movhi	r3,1
     a9c:	18c00284 	addi	r3,r3,10
     aa0:	00808034 	movhi	r2,512
     aa4:	10840004 	addi	r2,r2,4096
     aa8:	10c00035 	stwio	r3,0(r2)
		LCD_WR_DATA(0x00A2);
     aac:	00c00074 	movhi	r3,1
     ab0:	18c02884 	addi	r3,r3,162
     ab4:	00808034 	movhi	r2,512
     ab8:	10840004 	addi	r2,r2,4096
     abc:	10c00035 	stwio	r3,0(r2)

	LCD_WR_REG(0x00C0);    //Power control
     ac0:	00c03004 	movi	r3,192
     ac4:	00808034 	movhi	r2,512
     ac8:	10840004 	addi	r2,r2,4096
     acc:	10c00035 	stwio	r3,0(r2)
		LCD_WR_DATA(0x0005);   //VRH[5:0]
     ad0:	00c00074 	movhi	r3,1
     ad4:	18c00144 	addi	r3,r3,5
     ad8:	00808034 	movhi	r2,512
     adc:	10840004 	addi	r2,r2,4096
     ae0:	10c00035 	stwio	r3,0(r2)

	LCD_WR_REG(0x00C1);    //Power control
     ae4:	00c03044 	movi	r3,193
     ae8:	00808034 	movhi	r2,512
     aec:	10840004 	addi	r2,r2,4096
     af0:	10c00035 	stwio	r3,0(r2)
		LCD_WR_DATA(0x0011);   //SAP[2:0];BT[3:0]
     af4:	00c00074 	movhi	r3,1
     af8:	18c00444 	addi	r3,r3,17
     afc:	00808034 	movhi	r2,512
     b00:	10840004 	addi	r2,r2,4096
     b04:	10c00035 	stwio	r3,0(r2)

	LCD_WR_REG(0x00C5);    //VCM control
     b08:	00c03144 	movi	r3,197
     b0c:	00808034 	movhi	r2,512
     b10:	10840004 	addi	r2,r2,4096
     b14:	10c00035 	stwio	r3,0(r2)
		LCD_WR_DATA(0x0045);       //3F
     b18:	00c00074 	movhi	r3,1
     b1c:	18c01144 	addi	r3,r3,69
     b20:	00808034 	movhi	r2,512
     b24:	10840004 	addi	r2,r2,4096
     b28:	10c00035 	stwio	r3,0(r2)
		LCD_WR_DATA(0x0045);       //3C
     b2c:	00c00074 	movhi	r3,1
     b30:	18c01144 	addi	r3,r3,69
     b34:	00808034 	movhi	r2,512
     b38:	10840004 	addi	r2,r2,4096
     b3c:	10c00035 	stwio	r3,0(r2)

	 LCD_WR_REG(0x00C7);    //VCM control2
     b40:	00c031c4 	movi	r3,199
     b44:	00808034 	movhi	r2,512
     b48:	10840004 	addi	r2,r2,4096
     b4c:	10c00035 	stwio	r3,0(r2)
		 LCD_WR_DATA(0X00a2);
     b50:	00c00074 	movhi	r3,1
     b54:	18c02884 	addi	r3,r3,162
     b58:	00808034 	movhi	r2,512
     b5c:	10840004 	addi	r2,r2,4096
     b60:	10c00035 	stwio	r3,0(r2)

	LCD_WR_REG(0x0036);    // Memory Access Control
     b64:	00c00d84 	movi	r3,54
     b68:	00808034 	movhi	r2,512
     b6c:	10840004 	addi	r2,r2,4096
     b70:	10c00035 	stwio	r3,0(r2)
		LCD_WR_DATA(0x0008);//48
     b74:	00c00074 	movhi	r3,1
     b78:	18c00204 	addi	r3,r3,8
     b7c:	00808034 	movhi	r2,512
     b80:	10840004 	addi	r2,r2,4096
     b84:	10c00035 	stwio	r3,0(r2)

	LCD_WR_REG(0x00F2);    // 3Gamma Function Disable
     b88:	00c03c84 	movi	r3,242
     b8c:	00808034 	movhi	r2,512
     b90:	10840004 	addi	r2,r2,4096
     b94:	10c00035 	stwio	r3,0(r2)
		LCD_WR_DATA(0x0000);
     b98:	00c00074 	movhi	r3,1
     b9c:	00808034 	movhi	r2,512
     ba0:	10840004 	addi	r2,r2,4096
     ba4:	10c00035 	stwio	r3,0(r2)

	LCD_WR_REG(0x0026);    //Gamma curve selected
     ba8:	00c00984 	movi	r3,38
     bac:	00808034 	movhi	r2,512
     bb0:	10840004 	addi	r2,r2,4096
     bb4:	10c00035 	stwio	r3,0(r2)
		LCD_WR_DATA(0x0001);
     bb8:	00c00074 	movhi	r3,1
     bbc:	18c00044 	addi	r3,r3,1
     bc0:	00808034 	movhi	r2,512
     bc4:	10840004 	addi	r2,r2,4096
     bc8:	10c00035 	stwio	r3,0(r2)

	LCD_WR_REG(0x00E0);    //Set Gamma
     bcc:	00c03804 	movi	r3,224
     bd0:	00808034 	movhi	r2,512
     bd4:	10840004 	addi	r2,r2,4096
     bd8:	10c00035 	stwio	r3,0(r2)
		LCD_WR_DATA(0x000F);
     bdc:	00c00074 	movhi	r3,1
     be0:	18c003c4 	addi	r3,r3,15
     be4:	00808034 	movhi	r2,512
     be8:	10840004 	addi	r2,r2,4096
     bec:	10c00035 	stwio	r3,0(r2)
		LCD_WR_DATA(0x0026);
     bf0:	00c00074 	movhi	r3,1
     bf4:	18c00984 	addi	r3,r3,38
     bf8:	00808034 	movhi	r2,512
     bfc:	10840004 	addi	r2,r2,4096
     c00:	10c00035 	stwio	r3,0(r2)
		LCD_WR_DATA(0x0024);
     c04:	00c00074 	movhi	r3,1
     c08:	18c00904 	addi	r3,r3,36
     c0c:	00808034 	movhi	r2,512
     c10:	10840004 	addi	r2,r2,4096
     c14:	10c00035 	stwio	r3,0(r2)
		LCD_WR_DATA(0x000b);
     c18:	00c00074 	movhi	r3,1
     c1c:	18c002c4 	addi	r3,r3,11
     c20:	00808034 	movhi	r2,512
     c24:	10840004 	addi	r2,r2,4096
     c28:	10c00035 	stwio	r3,0(r2)
		LCD_WR_DATA(0x000E);
     c2c:	00c00074 	movhi	r3,1
     c30:	18c00384 	addi	r3,r3,14
     c34:	00808034 	movhi	r2,512
     c38:	10840004 	addi	r2,r2,4096
     c3c:	10c00035 	stwio	r3,0(r2)
		LCD_WR_DATA(0x0008);
     c40:	00c00074 	movhi	r3,1
     c44:	18c00204 	addi	r3,r3,8
     c48:	00808034 	movhi	r2,512
     c4c:	10840004 	addi	r2,r2,4096
     c50:	10c00035 	stwio	r3,0(r2)
		LCD_WR_DATA(0x004b);
     c54:	00c00074 	movhi	r3,1
     c58:	18c012c4 	addi	r3,r3,75
     c5c:	00808034 	movhi	r2,512
     c60:	10840004 	addi	r2,r2,4096
     c64:	10c00035 	stwio	r3,0(r2)
		LCD_WR_DATA(0X00a8);
     c68:	00c00074 	movhi	r3,1
     c6c:	18c02a04 	addi	r3,r3,168
     c70:	00808034 	movhi	r2,512
     c74:	10840004 	addi	r2,r2,4096
     c78:	10c00035 	stwio	r3,0(r2)
		LCD_WR_DATA(0x003b);
     c7c:	00c00074 	movhi	r3,1
     c80:	18c00ec4 	addi	r3,r3,59
     c84:	00808034 	movhi	r2,512
     c88:	10840004 	addi	r2,r2,4096
     c8c:	10c00035 	stwio	r3,0(r2)
		LCD_WR_DATA(0x000a);
     c90:	00c00074 	movhi	r3,1
     c94:	18c00284 	addi	r3,r3,10
     c98:	00808034 	movhi	r2,512
     c9c:	10840004 	addi	r2,r2,4096
     ca0:	10c00035 	stwio	r3,0(r2)
		LCD_WR_DATA(0x0014);
     ca4:	00c00074 	movhi	r3,1
     ca8:	18c00504 	addi	r3,r3,20
     cac:	00808034 	movhi	r2,512
     cb0:	10840004 	addi	r2,r2,4096
     cb4:	10c00035 	stwio	r3,0(r2)
		LCD_WR_DATA(0x0006);
     cb8:	00c00074 	movhi	r3,1
     cbc:	18c00184 	addi	r3,r3,6
     cc0:	00808034 	movhi	r2,512
     cc4:	10840004 	addi	r2,r2,4096
     cc8:	10c00035 	stwio	r3,0(r2)
		LCD_WR_DATA(0x0010);
     ccc:	00c00074 	movhi	r3,1
     cd0:	18c00404 	addi	r3,r3,16
     cd4:	00808034 	movhi	r2,512
     cd8:	10840004 	addi	r2,r2,4096
     cdc:	10c00035 	stwio	r3,0(r2)
		LCD_WR_DATA(0x0009);
     ce0:	00c00074 	movhi	r3,1
     ce4:	18c00244 	addi	r3,r3,9
     ce8:	00808034 	movhi	r2,512
     cec:	10840004 	addi	r2,r2,4096
     cf0:	10c00035 	stwio	r3,0(r2)
		LCD_WR_DATA(0x0000);
     cf4:	00c00074 	movhi	r3,1
     cf8:	00808034 	movhi	r2,512
     cfc:	10840004 	addi	r2,r2,4096
     d00:	10c00035 	stwio	r3,0(r2)

	LCD_WR_REG(0X00E1);    //Set Gamma
     d04:	00c03844 	movi	r3,225
     d08:	00808034 	movhi	r2,512
     d0c:	10840004 	addi	r2,r2,4096
     d10:	10c00035 	stwio	r3,0(r2)
		LCD_WR_DATA(0x0000);
     d14:	00c00074 	movhi	r3,1
     d18:	00808034 	movhi	r2,512
     d1c:	10840004 	addi	r2,r2,4096
     d20:	10c00035 	stwio	r3,0(r2)
		LCD_WR_DATA(0x001c);
     d24:	00c00074 	movhi	r3,1
     d28:	18c00704 	addi	r3,r3,28
     d2c:	00808034 	movhi	r2,512
     d30:	10840004 	addi	r2,r2,4096
     d34:	10c00035 	stwio	r3,0(r2)
		LCD_WR_DATA(0x0020);
     d38:	00c00074 	movhi	r3,1
     d3c:	18c00804 	addi	r3,r3,32
     d40:	00808034 	movhi	r2,512
     d44:	10840004 	addi	r2,r2,4096
     d48:	10c00035 	stwio	r3,0(r2)
		LCD_WR_DATA(0x0004);
     d4c:	00c00074 	movhi	r3,1
     d50:	18c00104 	addi	r3,r3,4
     d54:	00808034 	movhi	r2,512
     d58:	10840004 	addi	r2,r2,4096
     d5c:	10c00035 	stwio	r3,0(r2)
		LCD_WR_DATA(0x0010);
     d60:	00c00074 	movhi	r3,1
     d64:	18c00404 	addi	r3,r3,16
     d68:	00808034 	movhi	r2,512
     d6c:	10840004 	addi	r2,r2,4096
     d70:	10c00035 	stwio	r3,0(r2)
		LCD_WR_DATA(0x0008);
     d74:	00c00074 	movhi	r3,1
     d78:	18c00204 	addi	r3,r3,8
     d7c:	00808034 	movhi	r2,512
     d80:	10840004 	addi	r2,r2,4096
     d84:	10c00035 	stwio	r3,0(r2)
		LCD_WR_DATA(0x0034);
     d88:	00c00074 	movhi	r3,1
     d8c:	18c00d04 	addi	r3,r3,52
     d90:	00808034 	movhi	r2,512
     d94:	10840004 	addi	r2,r2,4096
     d98:	10c00035 	stwio	r3,0(r2)
		LCD_WR_DATA(0x0047);
     d9c:	00c00074 	movhi	r3,1
     da0:	18c011c4 	addi	r3,r3,71
     da4:	00808034 	movhi	r2,512
     da8:	10840004 	addi	r2,r2,4096
     dac:	10c00035 	stwio	r3,0(r2)
		LCD_WR_DATA(0x0044);
     db0:	00c00074 	movhi	r3,1
     db4:	18c01104 	addi	r3,r3,68
     db8:	00808034 	movhi	r2,512
     dbc:	10840004 	addi	r2,r2,4096
     dc0:	10c00035 	stwio	r3,0(r2)
		LCD_WR_DATA(0x0005);
     dc4:	00c00074 	movhi	r3,1
     dc8:	18c00144 	addi	r3,r3,5
     dcc:	00808034 	movhi	r2,512
     dd0:	10840004 	addi	r2,r2,4096
     dd4:	10c00035 	stwio	r3,0(r2)
		LCD_WR_DATA(0x000b);
     dd8:	00c00074 	movhi	r3,1
     ddc:	18c002c4 	addi	r3,r3,11
     de0:	00808034 	movhi	r2,512
     de4:	10840004 	addi	r2,r2,4096
     de8:	10c00035 	stwio	r3,0(r2)
		LCD_WR_DATA(0x0009);
     dec:	00c00074 	movhi	r3,1
     df0:	18c00244 	addi	r3,r3,9
     df4:	00808034 	movhi	r2,512
     df8:	10840004 	addi	r2,r2,4096
     dfc:	10c00035 	stwio	r3,0(r2)
		LCD_WR_DATA(0x002f);
     e00:	00c00074 	movhi	r3,1
     e04:	18c00bc4 	addi	r3,r3,47
     e08:	00808034 	movhi	r2,512
     e0c:	10840004 	addi	r2,r2,4096
     e10:	10c00035 	stwio	r3,0(r2)
		LCD_WR_DATA(0x0036);
     e14:	00c00074 	movhi	r3,1
     e18:	18c00d84 	addi	r3,r3,54
     e1c:	00808034 	movhi	r2,512
     e20:	10840004 	addi	r2,r2,4096
     e24:	10c00035 	stwio	r3,0(r2)
		LCD_WR_DATA(0x000f);
     e28:	00c00074 	movhi	r3,1
     e2c:	18c003c4 	addi	r3,r3,15
     e30:	00808034 	movhi	r2,512
     e34:	10840004 	addi	r2,r2,4096
     e38:	10c00035 	stwio	r3,0(r2)

	LCD_WR_REG(0x002A);
     e3c:	00c00a84 	movi	r3,42
     e40:	00808034 	movhi	r2,512
     e44:	10840004 	addi	r2,r2,4096
     e48:	10c00035 	stwio	r3,0(r2)
		LCD_WR_DATA(0x0000);
     e4c:	00c00074 	movhi	r3,1
     e50:	00808034 	movhi	r2,512
     e54:	10840004 	addi	r2,r2,4096
     e58:	10c00035 	stwio	r3,0(r2)
		LCD_WR_DATA(0x0000);
     e5c:	00c00074 	movhi	r3,1
     e60:	00808034 	movhi	r2,512
     e64:	10840004 	addi	r2,r2,4096
     e68:	10c00035 	stwio	r3,0(r2)
		LCD_WR_DATA(0x0000);
     e6c:	00c00074 	movhi	r3,1
     e70:	00808034 	movhi	r2,512
     e74:	10840004 	addi	r2,r2,4096
     e78:	10c00035 	stwio	r3,0(r2)
		LCD_WR_DATA(0x00ef);
     e7c:	00c00074 	movhi	r3,1
     e80:	18c03bc4 	addi	r3,r3,239
     e84:	00808034 	movhi	r2,512
     e88:	10840004 	addi	r2,r2,4096
     e8c:	10c00035 	stwio	r3,0(r2)

	 LCD_WR_REG(0x002B);
     e90:	00c00ac4 	movi	r3,43
     e94:	00808034 	movhi	r2,512
     e98:	10840004 	addi	r2,r2,4096
     e9c:	10c00035 	stwio	r3,0(r2)
		LCD_WR_DATA(0x0000);
     ea0:	00c00074 	movhi	r3,1
     ea4:	00808034 	movhi	r2,512
     ea8:	10840004 	addi	r2,r2,4096
     eac:	10c00035 	stwio	r3,0(r2)
		LCD_WR_DATA(0x0000);
     eb0:	00c00074 	movhi	r3,1
     eb4:	00808034 	movhi	r2,512
     eb8:	10840004 	addi	r2,r2,4096
     ebc:	10c00035 	stwio	r3,0(r2)
		LCD_WR_DATA(0x0001);
     ec0:	00c00074 	movhi	r3,1
     ec4:	18c00044 	addi	r3,r3,1
     ec8:	00808034 	movhi	r2,512
     ecc:	10840004 	addi	r2,r2,4096
     ed0:	10c00035 	stwio	r3,0(r2)
		LCD_WR_DATA(0x003f);
     ed4:	00c00074 	movhi	r3,1
     ed8:	18c00fc4 	addi	r3,r3,63
     edc:	00808034 	movhi	r2,512
     ee0:	10840004 	addi	r2,r2,4096
     ee4:	10c00035 	stwio	r3,0(r2)

	LCD_WR_REG(0x003A);
     ee8:	00c00e84 	movi	r3,58
     eec:	00808034 	movhi	r2,512
     ef0:	10840004 	addi	r2,r2,4096
     ef4:	10c00035 	stwio	r3,0(r2)
		LCD_WR_DATA(0x0055);
     ef8:	00c00074 	movhi	r3,1
     efc:	18c01544 	addi	r3,r3,85
     f00:	00808034 	movhi	r2,512
     f04:	10840004 	addi	r2,r2,4096
     f08:	10c00035 	stwio	r3,0(r2)

	LCD_WR_REG(0x00f6);
     f0c:	00c03d84 	movi	r3,246
     f10:	00808034 	movhi	r2,512
     f14:	10840004 	addi	r2,r2,4096
     f18:	10c00035 	stwio	r3,0(r2)
		LCD_WR_DATA(0x0001);
     f1c:	00c00074 	movhi	r3,1
     f20:	18c00044 	addi	r3,r3,1
     f24:	00808034 	movhi	r2,512
     f28:	10840004 	addi	r2,r2,4096
     f2c:	10c00035 	stwio	r3,0(r2)
		LCD_WR_DATA(0x0030);
     f30:	00c00074 	movhi	r3,1
     f34:	18c00c04 	addi	r3,r3,48
     f38:	00808034 	movhi	r2,512
     f3c:	10840004 	addi	r2,r2,4096
     f40:	10c00035 	stwio	r3,0(r2)
		LCD_WR_DATA(0x0000);
     f44:	00c00074 	movhi	r3,1
     f48:	00808034 	movhi	r2,512
     f4c:	10840004 	addi	r2,r2,4096
     f50:	10c00035 	stwio	r3,0(r2)

	LCD_WR_REG(0x0029); //display on
     f54:	00c00a44 	movi	r3,41
     f58:	00808034 	movhi	r2,512
     f5c:	10840004 	addi	r2,r2,4096
     f60:	10c00035 	stwio	r3,0(r2)

	LCD_WR_REG(0x002c);    // 0x2C
     f64:	00c00b04 	movi	r3,44
     f68:	00808034 	movhi	r2,512
     f6c:	10840004 	addi	r2,r2,4096
     f70:	10c00035 	stwio	r3,0(r2)

}
     f74:	e037883a 	mov	sp,fp
     f78:	dfc00117 	ldw	ra,4(sp)
     f7c:	df000017 	ldw	fp,0(sp)
     f80:	dec00204 	addi	sp,sp,8
     f84:	f800283a 	ret

00000f88 <load>:

void load(FILE* f, uint16_t iframe[H][W]) {
     f88:	defff704 	addi	sp,sp,-36
     f8c:	dfc00815 	stw	ra,32(sp)
     f90:	df000715 	stw	fp,28(sp)
     f94:	df000704 	addi	fp,sp,28
     f98:	e13ffe15 	stw	r4,-8(fp)
     f9c:	e17fff15 	stw	r5,-4(fp)
    int h, w;
    int i,j;
    fscanf(f, "%d", &h);
     fa0:	e0bffb04 	addi	r2,fp,-20
     fa4:	e13ffe17 	ldw	r4,-8(fp)
     fa8:	01400074 	movhi	r5,1
     fac:	29538904 	addi	r5,r5,20004
     fb0:	100d883a 	mov	r6,r2
     fb4:	000113c0 	call	113c <fscanf>
    fscanf(f, "%d", &w);
     fb8:	e0bffc04 	addi	r2,fp,-16
     fbc:	e13ffe17 	ldw	r4,-8(fp)
     fc0:	01400074 	movhi	r5,1
     fc4:	29538904 	addi	r5,r5,20004
     fc8:	100d883a 	mov	r6,r2
     fcc:	000113c0 	call	113c <fscanf>
    h = h > H?H:h;
     fd0:	e0bffb17 	ldw	r2,-20(fp)
     fd4:	10c05050 	cmplti	r3,r2,321
     fd8:	1800011e 	bne	r3,zero,fe0 <load+0x58>
     fdc:	00805004 	movi	r2,320
     fe0:	e0bffb15 	stw	r2,-20(fp)
    w = w > W?W:w;
     fe4:	e0bffc17 	ldw	r2,-16(fp)
     fe8:	10c03c50 	cmplti	r3,r2,241
     fec:	1800011e 	bne	r3,zero,ff4 <load+0x6c>
     ff0:	00803c04 	movi	r2,240
     ff4:	e0bffc15 	stw	r2,-16(fp)
    for(i = 0; i < h; i++) {
     ff8:	e03ff915 	stw	zero,-28(fp)
     ffc:	00002d06 	br	10b4 <load+0x12c>
        for(j = 0; j < w; j++) {
    1000:	e03ffa15 	stw	zero,-24(fp)
    1004:	00001306 	br	1054 <load+0xcc>
            int p;
            fscanf(f, "%u", &p);
    1008:	e0bffd04 	addi	r2,fp,-12
    100c:	e13ffe17 	ldw	r4,-8(fp)
    1010:	01400074 	movhi	r5,1
    1014:	29538a04 	addi	r5,r5,20008
    1018:	100d883a 	mov	r6,r2
    101c:	000113c0 	call	113c <fscanf>
            iframe[i][j] = p;
    1020:	e0bff917 	ldw	r2,-28(fp)
    1024:	10807824 	muli	r2,r2,480
    1028:	e0ffff17 	ldw	r3,-4(fp)
    102c:	1889883a 	add	r4,r3,r2
    1030:	e0bffd17 	ldw	r2,-12(fp)
    1034:	1007883a 	mov	r3,r2
    1038:	e0bffa17 	ldw	r2,-24(fp)
    103c:	1085883a 	add	r2,r2,r2
    1040:	2085883a 	add	r2,r4,r2
    1044:	10c0000d 	sth	r3,0(r2)
    fscanf(f, "%d", &h);
    fscanf(f, "%d", &w);
    h = h > H?H:h;
    w = w > W?W:w;
    for(i = 0; i < h; i++) {
        for(j = 0; j < w; j++) {
    1048:	e0bffa17 	ldw	r2,-24(fp)
    104c:	10800044 	addi	r2,r2,1
    1050:	e0bffa15 	stw	r2,-24(fp)
    1054:	e0bffc17 	ldw	r2,-16(fp)
    1058:	e0fffa17 	ldw	r3,-24(fp)
    105c:	18bfea16 	blt	r3,r2,1008 <__alt_data_end+0xfe001008>
            int p;
            fscanf(f, "%u", &p);
            iframe[i][j] = p;
        }
        for(j = w; j<W; j++) {
    1060:	e0bffc17 	ldw	r2,-16(fp)
    1064:	e0bffa15 	stw	r2,-24(fp)
    1068:	00000c06 	br	109c <load+0x114>
            iframe[i][j] = 65535;
    106c:	e0bff917 	ldw	r2,-28(fp)
    1070:	10807824 	muli	r2,r2,480
    1074:	e0ffff17 	ldw	r3,-4(fp)
    1078:	1887883a 	add	r3,r3,r2
    107c:	e0bffa17 	ldw	r2,-24(fp)
    1080:	1085883a 	add	r2,r2,r2
    1084:	1885883a 	add	r2,r3,r2
    1088:	00ffffc4 	movi	r3,-1
    108c:	10c0000d 	sth	r3,0(r2)
        for(j = 0; j < w; j++) {
            int p;
            fscanf(f, "%u", &p);
            iframe[i][j] = p;
        }
        for(j = w; j<W; j++) {
    1090:	e0bffa17 	ldw	r2,-24(fp)
    1094:	10800044 	addi	r2,r2,1
    1098:	e0bffa15 	stw	r2,-24(fp)
    109c:	e0bffa17 	ldw	r2,-24(fp)
    10a0:	10803c10 	cmplti	r2,r2,240
    10a4:	103ff11e 	bne	r2,zero,106c <__alt_data_end+0xfe00106c>
    int i,j;
    fscanf(f, "%d", &h);
    fscanf(f, "%d", &w);
    h = h > H?H:h;
    w = w > W?W:w;
    for(i = 0; i < h; i++) {
    10a8:	e0bff917 	ldw	r2,-28(fp)
    10ac:	10800044 	addi	r2,r2,1
    10b0:	e0bff915 	stw	r2,-28(fp)
    10b4:	e0bffb17 	ldw	r2,-20(fp)
    10b8:	e0fff917 	ldw	r3,-28(fp)
    10bc:	18bfd016 	blt	r3,r2,1000 <__alt_data_end+0xfe001000>
        }
        for(j = w; j<W; j++) {
            iframe[i][j] = 65535;
        }
    }
    for(i = h; i<H; i++) {
    10c0:	e0bffb17 	ldw	r2,-20(fp)
    10c4:	e0bff915 	stw	r2,-28(fp)
    10c8:	00001406 	br	111c <load+0x194>
        for(j = 0; j < W; j++) {
    10cc:	e03ffa15 	stw	zero,-24(fp)
    10d0:	00000c06 	br	1104 <load+0x17c>
            iframe[i][j] = 65535;
    10d4:	e0bff917 	ldw	r2,-28(fp)
    10d8:	10807824 	muli	r2,r2,480
    10dc:	e0ffff17 	ldw	r3,-4(fp)
    10e0:	1887883a 	add	r3,r3,r2
    10e4:	e0bffa17 	ldw	r2,-24(fp)
    10e8:	1085883a 	add	r2,r2,r2
    10ec:	1885883a 	add	r2,r3,r2
    10f0:	00ffffc4 	movi	r3,-1
    10f4:	10c0000d 	sth	r3,0(r2)
        for(j = w; j<W; j++) {
            iframe[i][j] = 65535;
        }
    }
    for(i = h; i<H; i++) {
        for(j = 0; j < W; j++) {
    10f8:	e0bffa17 	ldw	r2,-24(fp)
    10fc:	10800044 	addi	r2,r2,1
    1100:	e0bffa15 	stw	r2,-24(fp)
    1104:	e0bffa17 	ldw	r2,-24(fp)
    1108:	10803c10 	cmplti	r2,r2,240
    110c:	103ff11e 	bne	r2,zero,10d4 <__alt_data_end+0xfe0010d4>
        }
        for(j = w; j<W; j++) {
            iframe[i][j] = 65535;
        }
    }
    for(i = h; i<H; i++) {
    1110:	e0bff917 	ldw	r2,-28(fp)
    1114:	10800044 	addi	r2,r2,1
    1118:	e0bff915 	stw	r2,-28(fp)
    111c:	e0bff917 	ldw	r2,-28(fp)
    1120:	10805010 	cmplti	r2,r2,320
    1124:	103fe91e 	bne	r2,zero,10cc <__alt_data_end+0xfe0010cc>
        for(j = 0; j < W; j++) {
            iframe[i][j] = 65535;
        }
    }
}
    1128:	e037883a 	mov	sp,fp
    112c:	dfc00117 	ldw	ra,4(sp)
    1130:	df000017 	ldw	fp,0(sp)
    1134:	dec00204 	addi	sp,sp,8
    1138:	f800283a 	ret

0000113c <fscanf>:
    113c:	defffd04 	addi	sp,sp,-12
    1140:	2005883a 	mov	r2,r4
    1144:	dfc00015 	stw	ra,0(sp)
    1148:	d9800115 	stw	r6,4(sp)
    114c:	d9c00215 	stw	r7,8(sp)
    1150:	00c00074 	movhi	r3,1
    1154:	18dbce04 	addi	r3,r3,28472
    1158:	19000017 	ldw	r4,0(r3)
    115c:	280d883a 	mov	r6,r5
    1160:	d9c00104 	addi	r7,sp,4
    1164:	100b883a 	mov	r5,r2
    1168:	00012f00 	call	12f0 <__svfscanf_r>
    116c:	dfc00017 	ldw	ra,0(sp)
    1170:	dec00304 	addi	sp,sp,12
    1174:	f800283a 	ret

00001178 <_fscanf_r>:
    1178:	defffe04 	addi	sp,sp,-8
    117c:	dfc00015 	stw	ra,0(sp)
    1180:	d9c00115 	stw	r7,4(sp)
    1184:	d9c00104 	addi	r7,sp,4
    1188:	00012f00 	call	12f0 <__svfscanf_r>
    118c:	dfc00017 	ldw	ra,0(sp)
    1190:	dec00204 	addi	sp,sp,8
    1194:	f800283a 	ret

00001198 <_puts_r>:
    1198:	defff604 	addi	sp,sp,-40
    119c:	dc400815 	stw	r17,32(sp)
    11a0:	2023883a 	mov	r17,r4
    11a4:	2809883a 	mov	r4,r5
    11a8:	dc000715 	stw	r16,28(sp)
    11ac:	dfc00915 	stw	ra,36(sp)
    11b0:	2821883a 	mov	r16,r5
    11b4:	00012640 	call	1264 <strlen>
    11b8:	00c00074 	movhi	r3,1
    11bc:	18dbce04 	addi	r3,r3,28472
    11c0:	18c00017 	ldw	r3,0(r3)
    11c4:	11000044 	addi	r4,r2,1
    11c8:	d8800115 	stw	r2,4(sp)
    11cc:	18c00217 	ldw	r3,8(r3)
    11d0:	00800074 	movhi	r2,1
    11d4:	10938c04 	addi	r2,r2,20016
    11d8:	d8800215 	stw	r2,8(sp)
    11dc:	1940030b 	ldhu	r5,12(r3)
    11e0:	00800044 	movi	r2,1
    11e4:	d8800315 	stw	r2,12(sp)
    11e8:	00800084 	movi	r2,2
    11ec:	d8800515 	stw	r2,20(sp)
    11f0:	dc000015 	stw	r16,0(sp)
    11f4:	d9000615 	stw	r4,24(sp)
    11f8:	dec00415 	stw	sp,16(sp)
    11fc:	2888000c 	andi	r2,r5,8192
    1200:	1000061e 	bne	r2,zero,121c <_puts_r+0x84>
    1204:	19001917 	ldw	r4,100(r3)
    1208:	00b7ffc4 	movi	r2,-8193
    120c:	29480014 	ori	r5,r5,8192
    1210:	2084703a 	and	r2,r4,r2
    1214:	1940030d 	sth	r5,12(r3)
    1218:	18801915 	stw	r2,100(r3)
    121c:	89400217 	ldw	r5,8(r17)
    1220:	8809883a 	mov	r4,r17
    1224:	d9800404 	addi	r6,sp,16
    1228:	00035cc0 	call	35cc <__sfvwrite_r>
    122c:	1000061e 	bne	r2,zero,1248 <_puts_r+0xb0>
    1230:	00800284 	movi	r2,10
    1234:	dfc00917 	ldw	ra,36(sp)
    1238:	dc400817 	ldw	r17,32(sp)
    123c:	dc000717 	ldw	r16,28(sp)
    1240:	dec00a04 	addi	sp,sp,40
    1244:	f800283a 	ret
    1248:	00bfffc4 	movi	r2,-1
    124c:	003ff906 	br	1234 <__alt_data_end+0xfe001234>

00001250 <puts>:
    1250:	00800074 	movhi	r2,1
    1254:	109bce04 	addi	r2,r2,28472
    1258:	200b883a 	mov	r5,r4
    125c:	11000017 	ldw	r4,0(r2)
    1260:	00011981 	jmpi	1198 <_puts_r>

00001264 <strlen>:
    1264:	208000cc 	andi	r2,r4,3
    1268:	10001d26 	beq	r2,zero,12e0 <strlen+0x7c>
    126c:	20800007 	ldb	r2,0(r4)
    1270:	10001d26 	beq	r2,zero,12e8 <strlen+0x84>
    1274:	2005883a 	mov	r2,r4
    1278:	00000206 	br	1284 <strlen+0x20>
    127c:	10c00007 	ldb	r3,0(r2)
    1280:	18001526 	beq	r3,zero,12d8 <strlen+0x74>
    1284:	10800044 	addi	r2,r2,1
    1288:	10c000cc 	andi	r3,r2,3
    128c:	183ffb1e 	bne	r3,zero,127c <__alt_data_end+0xfe00127c>
    1290:	10c00017 	ldw	r3,0(r2)
    1294:	01ffbff4 	movhi	r7,65279
    1298:	39ffbfc4 	addi	r7,r7,-257
    129c:	01a02074 	movhi	r6,32897
    12a0:	31a02004 	addi	r6,r6,-32640
    12a4:	00000206 	br	12b0 <strlen+0x4c>
    12a8:	10800104 	addi	r2,r2,4
    12ac:	10c00017 	ldw	r3,0(r2)
    12b0:	19cb883a 	add	r5,r3,r7
    12b4:	00c6303a 	nor	r3,zero,r3
    12b8:	28c6703a 	and	r3,r5,r3
    12bc:	1986703a 	and	r3,r3,r6
    12c0:	183ff926 	beq	r3,zero,12a8 <__alt_data_end+0xfe0012a8>
    12c4:	10c00007 	ldb	r3,0(r2)
    12c8:	18000326 	beq	r3,zero,12d8 <strlen+0x74>
    12cc:	10800044 	addi	r2,r2,1
    12d0:	10c00007 	ldb	r3,0(r2)
    12d4:	183ffd1e 	bne	r3,zero,12cc <__alt_data_end+0xfe0012cc>
    12d8:	1105c83a 	sub	r2,r2,r4
    12dc:	f800283a 	ret
    12e0:	2005883a 	mov	r2,r4
    12e4:	003fea06 	br	1290 <__alt_data_end+0xfe001290>
    12e8:	0005883a 	mov	r2,zero
    12ec:	f800283a 	ret

000012f0 <__svfscanf_r>:
    12f0:	deff4b04 	addi	sp,sp,-724
    12f4:	df00b315 	stw	fp,716(sp)
    12f8:	dd40b015 	stw	r21,704(sp)
    12fc:	dc00ab15 	stw	r16,684(sp)
    1300:	2839883a 	mov	fp,r5
    1304:	dfc0b415 	stw	ra,720(sp)
    1308:	ddc0b215 	stw	r23,712(sp)
    130c:	dd80b115 	stw	r22,708(sp)
    1310:	dd00af15 	stw	r20,700(sp)
    1314:	dcc0ae15 	stw	r19,696(sp)
    1318:	dc80ad15 	stw	r18,692(sp)
    131c:	dc40ac15 	stw	r17,688(sp)
    1320:	202b883a 	mov	r21,r4
    1324:	3021883a 	mov	r16,r6
    1328:	d9c09c15 	stw	r7,624(sp)
    132c:	0002f000 	call	2f00 <__sfp_lock_acquire>
    1330:	e080030b 	ldhu	r2,12(fp)
    1334:	10c8000c 	andi	r3,r2,8192
    1338:	1800061e 	bne	r3,zero,1354 <__svfscanf_r+0x64>
    133c:	e1001917 	ldw	r4,100(fp)
    1340:	00f7ffc4 	movi	r3,-8193
    1344:	10880014 	ori	r2,r2,8192
    1348:	20c6703a 	and	r3,r4,r3
    134c:	e080030d 	sth	r2,12(fp)
    1350:	e0c01915 	stw	r3,100(fp)
    1354:	80800007 	ldb	r2,0(r16)
    1358:	0029883a 	mov	r20,zero
    135c:	d800a015 	stw	zero,640(sp)
    1360:	d8009e15 	stw	zero,632(sp)
    1364:	d8009f15 	stw	zero,636(sp)
    1368:	d8809b15 	stw	r2,620(sp)
    136c:	a023883a 	mov	r17,r20
    1370:	05800074 	movhi	r22,1
    1374:	b59bcf04 	addi	r22,r22,28476
    1378:	85000044 	addi	r20,r16,1
    137c:	10001e26 	beq	r2,zero,13f8 <__svfscanf_r+0x108>
    1380:	b0c00017 	ldw	r3,0(r22)
    1384:	1889883a 	add	r4,r3,r2
    1388:	21000043 	ldbu	r4,1(r4)
    138c:	2100020c 	andi	r4,r4,8
    1390:	20001c26 	beq	r4,zero,1404 <__svfscanf_r+0x114>
    1394:	e0800117 	ldw	r2,4(fp)
    1398:	00800e0e 	bge	zero,r2,13d4 <__svfscanf_r+0xe4>
    139c:	e0c00017 	ldw	r3,0(fp)
    13a0:	b1000017 	ldw	r4,0(r22)
    13a4:	18800003 	ldbu	r2,0(r3)
    13a8:	2085883a 	add	r2,r4,r2
    13ac:	10800043 	ldbu	r2,1(r2)
    13b0:	1080020c 	andi	r2,r2,8
    13b4:	10000b26 	beq	r2,zero,13e4 <__svfscanf_r+0xf4>
    13b8:	e0800117 	ldw	r2,4(fp)
    13bc:	18c00044 	addi	r3,r3,1
    13c0:	e0c00015 	stw	r3,0(fp)
    13c4:	10bfffc4 	addi	r2,r2,-1
    13c8:	e0800115 	stw	r2,4(fp)
    13cc:	8c400044 	addi	r17,r17,1
    13d0:	00bff216 	blt	zero,r2,139c <__alt_data_end+0xfe00139c>
    13d4:	a809883a 	mov	r4,r21
    13d8:	e00b883a 	mov	r5,fp
    13dc:	00050a00 	call	50a0 <__srefill_r>
    13e0:	103fee26 	beq	r2,zero,139c <__alt_data_end+0xfe00139c>
    13e4:	a021883a 	mov	r16,r20
    13e8:	80800007 	ldb	r2,0(r16)
    13ec:	85000044 	addi	r20,r16,1
    13f0:	d8809b15 	stw	r2,620(sp)
    13f4:	103fe21e 	bne	r2,zero,1380 <__alt_data_end+0xfe001380>
    13f8:	0002f040 	call	2f04 <__sfp_lock_release>
    13fc:	d8809f17 	ldw	r2,636(sp)
    1400:	00022206 	br	1c8c <__svfscanf_r+0x99c>
    1404:	01000944 	movi	r4,37
    1408:	1100891e 	bne	r2,r4,1630 <__svfscanf_r+0x340>
    140c:	81000043 	ldbu	r4,1(r16)
    1410:	0027883a 	mov	r19,zero
    1414:	002f883a 	mov	r23,zero
    1418:	01401e04 	movi	r5,120
    141c:	01801b04 	movi	r6,108
    1420:	20803fcc 	andi	r2,r4,255
    1424:	a4000044 	addi	r16,r20,1
    1428:	2881fa36 	bltu	r5,r2,1c14 <__svfscanf_r+0x924>
    142c:	1085883a 	add	r2,r2,r2
    1430:	1085883a 	add	r2,r2,r2
    1434:	01c00034 	movhi	r7,0
    1438:	39c51204 	addi	r7,r7,5192
    143c:	11c5883a 	add	r2,r2,r7
    1440:	10800017 	ldw	r2,0(r2)
    1444:	1000683a 	jmp	r2
    1448:	00001c84 	movi	zero,114
    144c:	00001c14 	movui	zero,112
    1450:	00001c14 	movui	zero,112
    1454:	00001c14 	movui	zero,112
    1458:	00001c14 	movui	zero,112
    145c:	00001c14 	movui	zero,112
    1460:	00001c14 	movui	zero,112
    1464:	00001c14 	movui	zero,112
    1468:	00001c14 	movui	zero,112
    146c:	00001c14 	movui	zero,112
    1470:	00001c14 	movui	zero,112
    1474:	00001c14 	movui	zero,112
    1478:	00001c14 	movui	zero,112
    147c:	00001c14 	movui	zero,112
    1480:	00001c14 	movui	zero,112
    1484:	00001c14 	movui	zero,112
    1488:	00001c14 	movui	zero,112
    148c:	00001c14 	movui	zero,112
    1490:	00001c14 	movui	zero,112
    1494:	00001c14 	movui	zero,112
    1498:	00001c14 	movui	zero,112
    149c:	00001c14 	movui	zero,112
    14a0:	00001c14 	movui	zero,112
    14a4:	00001c14 	movui	zero,112
    14a8:	00001c14 	movui	zero,112
    14ac:	00001c14 	movui	zero,112
    14b0:	00001c14 	movui	zero,112
    14b4:	00001c14 	movui	zero,112
    14b8:	00001c14 	movui	zero,112
    14bc:	00001c14 	movui	zero,112
    14c0:	00001c14 	movui	zero,112
    14c4:	00001c14 	movui	zero,112
    14c8:	00001c14 	movui	zero,112
    14cc:	00001c14 	movui	zero,112
    14d0:	00001c14 	movui	zero,112
    14d4:	00001c14 	movui	zero,112
    14d8:	00001c14 	movui	zero,112
    14dc:	0000162c 	andhi	zero,zero,88
    14e0:	00001c14 	movui	zero,112
    14e4:	00001c14 	movui	zero,112
    14e8:	00001c14 	movui	zero,112
    14ec:	00001c14 	movui	zero,112
    14f0:	00001bfc 	xorhi	zero,zero,111
    14f4:	00001c14 	movui	zero,112
    14f8:	00001c14 	movui	zero,112
    14fc:	00001c14 	movui	zero,112
    1500:	00001c14 	movui	zero,112
    1504:	00001c14 	movui	zero,112
    1508:	00001cf4 	movhi	zero,115
    150c:	00001cf4 	movhi	zero,115
    1510:	00001cf4 	movhi	zero,115
    1514:	00001cf4 	movhi	zero,115
    1518:	00001cf4 	movhi	zero,115
    151c:	00001cf4 	movhi	zero,115
    1520:	00001cf4 	movhi	zero,115
    1524:	00001cf4 	movhi	zero,115
    1528:	00001cf4 	movhi	zero,115
    152c:	00001cf4 	movhi	zero,115
    1530:	00001c14 	movui	zero,112
    1534:	00001c14 	movui	zero,112
    1538:	00001c14 	movui	zero,112
    153c:	00001c14 	movui	zero,112
    1540:	00001c14 	movui	zero,112
    1544:	00001c14 	movui	zero,112
    1548:	00001c14 	movui	zero,112
    154c:	00001c14 	movui	zero,112
    1550:	00001c14 	movui	zero,112
    1554:	00001c14 	movui	zero,112
    1558:	00001cd4 	movui	zero,115
    155c:	00001ccc 	andi	zero,zero,115
    1560:	00001c14 	movui	zero,112
    1564:	00001ccc 	andi	zero,zero,115
    1568:	00001c14 	movui	zero,112
    156c:	00001c14 	movui	zero,112
    1570:	00001c14 	movui	zero,112
    1574:	00001c14 	movui	zero,112
    1578:	00001cbc 	xorhi	zero,zero,114
    157c:	00001c14 	movui	zero,112
    1580:	00001c14 	movui	zero,112
    1584:	00001e3c 	xorhi	zero,zero,120
    1588:	00001c14 	movui	zero,112
    158c:	00001c14 	movui	zero,112
    1590:	00001c14 	movui	zero,112
    1594:	00001c14 	movui	zero,112
    1598:	00001c14 	movui	zero,112
    159c:	00001c14 	movui	zero,112
    15a0:	00001c14 	movui	zero,112
    15a4:	00001c14 	movui	zero,112
    15a8:	00001e1c 	xori	zero,zero,120
    15ac:	00001c14 	movui	zero,112
    15b0:	00001c14 	movui	zero,112
    15b4:	00001e00 	call	1e0 <_start+0x24>
    15b8:	00001c14 	movui	zero,112
    15bc:	00001c14 	movui	zero,112
    15c0:	00001c14 	movui	zero,112
    15c4:	00001c14 	movui	zero,112
    15c8:	00001c14 	movui	zero,112
    15cc:	00001c14 	movui	zero,112
    15d0:	00001c14 	movui	zero,112
    15d4:	00001df4 	movhi	zero,119
    15d8:	00001dd8 	cmpnei	zero,zero,119
    15dc:	00001ccc 	andi	zero,zero,115
    15e0:	00001ccc 	andi	zero,zero,115
    15e4:	00001ccc 	andi	zero,zero,115
    15e8:	00001dc8 	cmpgei	zero,zero,119
    15ec:	00001668 	cmpgeui	zero,zero,89
    15f0:	00001c14 	movui	zero,112
    15f4:	00001c14 	movui	zero,112
    15f8:	00001da8 	cmpgeui	zero,zero,118
    15fc:	00001c14 	movui	zero,112
    1600:	00001d78 	rdprs	zero,zero,117
    1604:	00001d5c 	xori	zero,zero,117
    1608:	00001d3c 	xorhi	zero,zero,116
    160c:	00001c14 	movui	zero,112
    1610:	00001c14 	movui	zero,112
    1614:	00001d34 	movhi	zero,116
    1618:	00001c14 	movui	zero,112
    161c:	00001d18 	cmpnei	zero,zero,116
    1620:	00001c14 	movui	zero,112
    1624:	00001c14 	movui	zero,112
    1628:	00001e1c 	xori	zero,zero,120
    162c:	8029883a 	mov	r20,r16
    1630:	e0800117 	ldw	r2,4(fp)
    1634:	00845e0e 	bge	zero,r2,27b0 <__svfscanf_r+0x14c0>
    1638:	e0800017 	ldw	r2,0(fp)
    163c:	a0ffffc3 	ldbu	r3,-1(r20)
    1640:	11000003 	ldbu	r4,0(r2)
    1644:	20ff6c1e 	bne	r4,r3,13f8 <__alt_data_end+0xfe0013f8>
    1648:	e0c00117 	ldw	r3,4(fp)
    164c:	10800044 	addi	r2,r2,1
    1650:	e0800015 	stw	r2,0(fp)
    1654:	18bfffc4 	addi	r2,r3,-1
    1658:	e0800115 	stw	r2,4(fp)
    165c:	8c400044 	addi	r17,r17,1
    1660:	a021883a 	mov	r16,r20
    1664:	003f6006 	br	13e8 <__alt_data_end+0xfe0013e8>
    1668:	00c00034 	movhi	r3,0
    166c:	18db4a04 	addi	r3,r3,27944
    1670:	d8c0a015 	stw	r3,640(sp)
    1674:	d8009e15 	stw	zero,632(sp)
    1678:	048000c4 	movi	r18,3
    167c:	e0800117 	ldw	r2,4(fp)
    1680:	0081740e 	bge	zero,r2,1c54 <__svfscanf_r+0x964>
    1684:	9880100c 	andi	r2,r19,64
    1688:	10007626 	beq	r2,zero,1864 <__svfscanf_r+0x574>
    168c:	00800084 	movi	r2,2
    1690:	90825326 	beq	r18,r2,1fe0 <__svfscanf_r+0xcf0>
    1694:	14822f0e 	bge	r2,r18,1f54 <__svfscanf_r+0xc64>
    1698:	008000c4 	movi	r2,3
    169c:	90828826 	beq	r18,r2,20c0 <__svfscanf_r+0xdd0>
    16a0:	00800104 	movi	r2,4
    16a4:	90826b1e 	bne	r18,r2,2054 <__svfscanf_r+0xd64>
    16a8:	b8bfffc4 	addi	r2,r23,-1
    16ac:	00c05704 	movi	r3,348
    16b0:	1883492e 	bgeu	r3,r2,23d8 <__svfscanf_r+0x10e8>
    16b4:	bdffa8c4 	addi	r23,r23,-349
    16b8:	ddc0a315 	stw	r23,652(sp)
    16bc:	05c05744 	movi	r23,349
    16c0:	9c81e014 	ori	r18,r19,1920
    16c4:	0029883a 	mov	r20,zero
    16c8:	d800a415 	stw	zero,656(sp)
    16cc:	d800a215 	stw	zero,648(sp)
    16d0:	d8009d15 	stw	zero,628(sp)
    16d4:	d800a115 	stw	zero,644(sp)
    16d8:	dcc00104 	addi	r19,sp,4
    16dc:	0007883a 	mov	r3,zero
    16e0:	01c01384 	movi	r7,78
    16e4:	037e1fc4 	movi	r13,-1921
    16e8:	e1800017 	ldw	r6,0(fp)
    16ec:	31400003 	ldbu	r5,0(r6)
    16f0:	28bff544 	addi	r2,r5,-43
    16f4:	10803fcc 	andi	r2,r2,255
    16f8:	38807c36 	bltu	r7,r2,18ec <__svfscanf_r+0x5fc>
    16fc:	1085883a 	add	r2,r2,r2
    1700:	1085883a 	add	r2,r2,r2
    1704:	01000034 	movhi	r4,0
    1708:	2105c604 	addi	r4,r4,5912
    170c:	1105883a 	add	r2,r2,r4
    1710:	10800017 	ldw	r2,0(r2)
    1714:	1000683a 	jmp	r2
    1718:	00001a74 	movhi	zero,105
    171c:	000018ec 	andhi	zero,zero,99
    1720:	00001a74 	movhi	zero,105
    1724:	00001a58 	cmpnei	zero,zero,105
    1728:	000018ec 	andhi	zero,zero,99
    172c:	00001b78 	rdprs	zero,zero,109
    1730:	000018a4 	muli	zero,zero,98
    1734:	000018a4 	muli	zero,zero,98
    1738:	000018a4 	muli	zero,zero,98
    173c:	000018a4 	muli	zero,zero,98
    1740:	000018a4 	muli	zero,zero,98
    1744:	000018a4 	muli	zero,zero,98
    1748:	000018a4 	muli	zero,zero,98
    174c:	000018a4 	muli	zero,zero,98
    1750:	000018a4 	muli	zero,zero,98
    1754:	000018ec 	andhi	zero,zero,99
    1758:	000018ec 	andhi	zero,zero,99
    175c:	000018ec 	andhi	zero,zero,99
    1760:	000018ec 	andhi	zero,zero,99
    1764:	000018ec 	andhi	zero,zero,99
    1768:	000018ec 	andhi	zero,zero,99
    176c:	000018ec 	andhi	zero,zero,99
    1770:	00001b68 	cmpgeui	zero,zero,109
    1774:	000018ec 	andhi	zero,zero,99
    1778:	000018ec 	andhi	zero,zero,99
    177c:	000018ec 	andhi	zero,zero,99
    1780:	00001b20 	cmpeqi	zero,zero,108
    1784:	00001b04 	movi	zero,108
    1788:	000018ec 	andhi	zero,zero,99
    178c:	000018ec 	andhi	zero,zero,99
    1790:	00001ad4 	movui	zero,107
    1794:	000018ec 	andhi	zero,zero,99
    1798:	000018ec 	andhi	zero,zero,99
    179c:	000018ec 	andhi	zero,zero,99
    17a0:	000018ec 	andhi	zero,zero,99
    17a4:	00001aa4 	muli	zero,zero,106
    17a8:	000018ec 	andhi	zero,zero,99
    17ac:	000018ec 	andhi	zero,zero,99
    17b0:	000018ec 	andhi	zero,zero,99
    17b4:	000018ec 	andhi	zero,zero,99
    17b8:	000018ec 	andhi	zero,zero,99
    17bc:	00001a88 	cmpgei	zero,zero,106
    17c0:	000018ec 	andhi	zero,zero,99
    17c4:	000018ec 	andhi	zero,zero,99
    17c8:	000018ec 	andhi	zero,zero,99
    17cc:	000018ec 	andhi	zero,zero,99
    17d0:	00001a3c 	xorhi	zero,zero,104
    17d4:	000018ec 	andhi	zero,zero,99
    17d8:	000018ec 	andhi	zero,zero,99
    17dc:	000018ec 	andhi	zero,zero,99
    17e0:	000018ec 	andhi	zero,zero,99
    17e4:	000018ec 	andhi	zero,zero,99
    17e8:	000018ec 	andhi	zero,zero,99
    17ec:	000018ec 	andhi	zero,zero,99
    17f0:	00001b68 	cmpgeui	zero,zero,109
    17f4:	000018ec 	andhi	zero,zero,99
    17f8:	000018ec 	andhi	zero,zero,99
    17fc:	000018ec 	andhi	zero,zero,99
    1800:	00001b20 	cmpeqi	zero,zero,108
    1804:	00001b04 	movi	zero,108
    1808:	000018ec 	andhi	zero,zero,99
    180c:	000018ec 	andhi	zero,zero,99
    1810:	00001ad4 	movui	zero,107
    1814:	000018ec 	andhi	zero,zero,99
    1818:	000018ec 	andhi	zero,zero,99
    181c:	000018ec 	andhi	zero,zero,99
    1820:	000018ec 	andhi	zero,zero,99
    1824:	00001aa4 	muli	zero,zero,106
    1828:	000018ec 	andhi	zero,zero,99
    182c:	000018ec 	andhi	zero,zero,99
    1830:	000018ec 	andhi	zero,zero,99
    1834:	000018ec 	andhi	zero,zero,99
    1838:	000018ec 	andhi	zero,zero,99
    183c:	00001a88 	cmpgei	zero,zero,106
    1840:	000018ec 	andhi	zero,zero,99
    1844:	000018ec 	andhi	zero,zero,99
    1848:	000018ec 	andhi	zero,zero,99
    184c:	000018ec 	andhi	zero,zero,99
    1850:	00001a3c 	xorhi	zero,zero,104
    1854:	a809883a 	mov	r4,r21
    1858:	e00b883a 	mov	r5,fp
    185c:	00050a00 	call	50a0 <__srefill_r>
    1860:	1001001e 	bne	r2,zero,1c64 <__svfscanf_r+0x974>
    1864:	b1000017 	ldw	r4,0(r22)
    1868:	e0800017 	ldw	r2,0(fp)
    186c:	00000206 	br	1878 <__svfscanf_r+0x588>
    1870:	10800044 	addi	r2,r2,1
    1874:	e0800015 	stw	r2,0(fp)
    1878:	10c00003 	ldbu	r3,0(r2)
    187c:	20c7883a 	add	r3,r4,r3
    1880:	18c00043 	ldbu	r3,1(r3)
    1884:	18c0020c 	andi	r3,r3,8
    1888:	183f8026 	beq	r3,zero,168c <__alt_data_end+0xfe00168c>
    188c:	e0c00117 	ldw	r3,4(fp)
    1890:	8c400044 	addi	r17,r17,1
    1894:	18ffffc4 	addi	r3,r3,-1
    1898:	e0c00115 	stw	r3,4(fp)
    189c:	00fff416 	blt	zero,r3,1870 <__alt_data_end+0xfe001870>
    18a0:	003fec06 	br	1854 <__alt_data_end+0xfe001854>
    18a4:	a0803fcc 	andi	r2,r20,255
    18a8:	1080201c 	xori	r2,r2,128
    18ac:	10bfe004 	addi	r2,r2,-128
    18b0:	1885883a 	add	r2,r3,r2
    18b4:	10000d1e 	bne	r2,zero,18ec <__svfscanf_r+0x5fc>
    18b8:	00bf9fc4 	movi	r2,-385
    18bc:	90a4703a 	and	r18,r18,r2
    18c0:	99400005 	stb	r5,0(r19)
    18c4:	9cc00044 	addi	r19,r19,1
    18c8:	e0800117 	ldw	r2,4(fp)
    18cc:	bdffffc4 	addi	r23,r23,-1
    18d0:	8c400044 	addi	r17,r17,1
    18d4:	10bfffc4 	addi	r2,r2,-1
    18d8:	e0800115 	stw	r2,4(fp)
    18dc:	0080b80e 	bge	zero,r2,1bc0 <__svfscanf_r+0x8d0>
    18e0:	31800044 	addi	r6,r6,1
    18e4:	e1800015 	stw	r6,0(fp)
    18e8:	b83f7f1e 	bne	r23,zero,16e8 <__alt_data_end+0xfe0016e8>
    18ec:	d9c09d17 	ldw	r7,628(sp)
    18f0:	3800bf1e 	bne	r7,zero,1bf0 <__svfscanf_r+0x900>
    18f4:	1b3fffc4 	addi	r12,r3,-1
    18f8:	00800044 	movi	r2,1
    18fc:	13045f2e 	bgeu	r2,r12,2a7c <__svfscanf_r+0x178c>
    1900:	a0803fcc 	andi	r2,r20,255
    1904:	1080201c 	xori	r2,r2,128
    1908:	10bfe004 	addi	r2,r2,-128
    190c:	113fffc4 	addi	r4,r2,-1
    1910:	01400184 	movi	r5,6
    1914:	29001636 	bltu	r5,r4,1970 <__svfscanf_r+0x680>
    1918:	01000084 	movi	r4,2
    191c:	2084410e 	bge	r4,r2,2a24 <__svfscanf_r+0x1734>
    1920:	00c000c4 	movi	r3,3
    1924:	10c01226 	beq	r2,r3,1970 <__svfscanf_r+0x680>
    1928:	a02f883a 	mov	r23,r20
    192c:	9829883a 	mov	r20,r19
    1930:	a53fffc4 	addi	r20,r20,-1
    1934:	a1400007 	ldb	r5,0(r20)
    1938:	a809883a 	mov	r4,r21
    193c:	e00d883a 	mov	r6,fp
    1940:	00098300 	call	9830 <_ungetc_r>
    1944:	b8bfffc4 	addi	r2,r23,-1
    1948:	10c03fcc 	andi	r3,r2,255
    194c:	18c0201c 	xori	r3,r3,128
    1950:	a449883a 	add	r4,r20,r17
    1954:	18ffe004 	addi	r3,r3,-128
    1958:	014000c4 	movi	r5,3
    195c:	24c9c83a 	sub	r4,r4,r19
    1960:	102f883a 	mov	r23,r2
    1964:	28fff216 	blt	r5,r3,1930 <__alt_data_end+0xfe001930>
    1968:	2023883a 	mov	r17,r4
    196c:	a027883a 	mov	r19,r20
    1970:	9080400c 	andi	r2,r18,256
    1974:	10001426 	beq	r2,zero,19c8 <__svfscanf_r+0x6d8>
    1978:	9081000c 	andi	r2,r18,1024
    197c:	1004341e 	bne	r2,zero,2a50 <__svfscanf_r+0x1760>
    1980:	997fffc7 	ldb	r5,-1(r19)
    1984:	00801944 	movi	r2,101
    1988:	9d3fffc4 	addi	r20,r19,-1
    198c:	8dffffc4 	addi	r23,r17,-1
    1990:	28800826 	beq	r5,r2,19b4 <__svfscanf_r+0x6c4>
    1994:	00801144 	movi	r2,69
    1998:	28800626 	beq	r5,r2,19b4 <__svfscanf_r+0x6c4>
    199c:	a809883a 	mov	r4,r21
    19a0:	e00d883a 	mov	r6,fp
    19a4:	00098300 	call	9830 <_ungetc_r>
    19a8:	997fff87 	ldb	r5,-2(r19)
    19ac:	9d3fff84 	addi	r20,r19,-2
    19b0:	8dffff84 	addi	r23,r17,-2
    19b4:	a809883a 	mov	r4,r21
    19b8:	e00d883a 	mov	r6,fp
    19bc:	00098300 	call	9830 <_ungetc_r>
    19c0:	b823883a 	mov	r17,r23
    19c4:	a027883a 	mov	r19,r20
    19c8:	9080040c 	andi	r2,r18,16
    19cc:	10015c1e 	bne	r2,zero,1f40 <__svfscanf_r+0xc50>
    19d0:	98000005 	stb	zero,0(r19)
    19d4:	9101800c 	andi	r4,r18,1536
    19d8:	00810004 	movi	r2,1024
    19dc:	20837f26 	beq	r4,r2,27dc <__svfscanf_r+0x14ec>
    19e0:	d8c0a217 	ldw	r3,648(sp)
    19e4:	1803381e 	bne	r3,zero,26c8 <__svfscanf_r+0x13d8>
    19e8:	a809883a 	mov	r4,r21
    19ec:	d9400104 	addi	r5,sp,4
    19f0:	000d883a 	mov	r6,zero
    19f4:	00056b40 	call	56b4 <_strtod_r>
    19f8:	1029883a 	mov	r20,r2
    19fc:	9080004c 	andi	r2,r18,1
    1a00:	1003111e 	bne	r2,zero,2648 <__svfscanf_r+0x1358>
    1a04:	92c0008c 	andi	r11,r18,2
    1a08:	58038426 	beq	r11,zero,281c <__svfscanf_r+0x152c>
    1a0c:	d9409c17 	ldw	r5,624(sp)
    1a10:	28800017 	ldw	r2,0(r5)
    1a14:	29400104 	addi	r5,r5,4
    1a18:	d9409c15 	stw	r5,624(sp)
    1a1c:	15000015 	stw	r20,0(r2)
    1a20:	10c00115 	stw	r3,4(r2)
    1a24:	d8809f17 	ldw	r2,636(sp)
    1a28:	8029883a 	mov	r20,r16
    1a2c:	a021883a 	mov	r16,r20
    1a30:	10800044 	addi	r2,r2,1
    1a34:	d8809f15 	stw	r2,636(sp)
    1a38:	003e6b06 	br	13e8 <__alt_data_end+0xfe0013e8>
    1a3c:	a0803fcc 	andi	r2,r20,255
    1a40:	1080201c 	xori	r2,r2,128
    1a44:	10bfe004 	addi	r2,r2,-128
    1a48:	010001c4 	movi	r4,7
    1a4c:	113fa71e 	bne	r2,r4,18ec <__alt_data_end+0xfe0018ec>
    1a50:	05000204 	movi	r20,8
    1a54:	003f9a06 	br	18c0 <__alt_data_end+0xfe0018c0>
    1a58:	9080800c 	andi	r2,r18,512
    1a5c:	103fa326 	beq	r2,zero,18ec <__alt_data_end+0xfe0018ec>
    1a60:	d9009d17 	ldw	r4,628(sp)
    1a64:	00bf5fc4 	movi	r2,-641
    1a68:	90a4703a 	and	r18,r18,r2
    1a6c:	d900a115 	stw	r4,644(sp)
    1a70:	003f9306 	br	18c0 <__alt_data_end+0xfe0018c0>
    1a74:	9080200c 	andi	r2,r18,128
    1a78:	103f9c26 	beq	r2,zero,18ec <__alt_data_end+0xfe0018ec>
    1a7c:	00bfdfc4 	movi	r2,-129
    1a80:	90a4703a 	and	r18,r18,r2
    1a84:	003f8e06 	br	18c0 <__alt_data_end+0xfe0018c0>
    1a88:	a1003fcc 	andi	r4,r20,255
    1a8c:	2100201c 	xori	r4,r4,128
    1a90:	213fe004 	addi	r4,r4,-128
    1a94:	00800184 	movi	r2,6
    1a98:	20bf941e 	bne	r4,r2,18ec <__alt_data_end+0xfe0018ec>
    1a9c:	050001c4 	movi	r20,7
    1aa0:	003f8706 	br	18c0 <__alt_data_end+0xfe0018c0>
    1aa4:	1802b41e 	bne	r3,zero,2578 <__svfscanf_r+0x1288>
    1aa8:	d9009d17 	ldw	r4,628(sp)
    1aac:	2002f026 	beq	r4,zero,2670 <__svfscanf_r+0x1380>
    1ab0:	a0803fcc 	andi	r2,r20,255
    1ab4:	1080201c 	xori	r2,r2,128
    1ab8:	10bfe004 	addi	r2,r2,-128
    1abc:	01000044 	movi	r4,1
    1ac0:	11000226 	beq	r2,r4,1acc <__svfscanf_r+0x7dc>
    1ac4:	01000104 	movi	r4,4
    1ac8:	113f881e 	bne	r2,r4,18ec <__alt_data_end+0xfe0018ec>
    1acc:	a5000044 	addi	r20,r20,1
    1ad0:	003f7b06 	br	18c0 <__alt_data_end+0xfe0018c0>
    1ad4:	a0803fcc 	andi	r2,r20,255
    1ad8:	1080201c 	xori	r2,r2,128
    1adc:	10bfe004 	addi	r2,r2,-128
    1ae0:	10029f1e 	bne	r2,zero,2560 <__svfscanf_r+0x1270>
    1ae4:	d8809d17 	ldw	r2,628(sp)
    1ae8:	1000411e 	bne	r2,zero,1bf0 <__svfscanf_r+0x900>
    1aec:	9101c00c 	andi	r4,r18,1792
    1af0:	0081c004 	movi	r2,1792
    1af4:	20bf7f1e 	bne	r4,r2,18f4 <__alt_data_end+0xfe0018f4>
    1af8:	9364703a 	and	r18,r18,r13
    1afc:	05000044 	movi	r20,1
    1b00:	003f6f06 	br	18c0 <__alt_data_end+0xfe0018c0>
    1b04:	a1003fcc 	andi	r4,r20,255
    1b08:	2100201c 	xori	r4,r4,128
    1b0c:	213fe004 	addi	r4,r4,-128
    1b10:	00800084 	movi	r2,2
    1b14:	20bf751e 	bne	r4,r2,18ec <__alt_data_end+0xfe0018ec>
    1b18:	050000c4 	movi	r20,3
    1b1c:	003f6806 	br	18c0 <__alt_data_end+0xfe0018c0>
    1b20:	9081400c 	andi	r2,r18,1280
    1b24:	01010004 	movi	r4,1024
    1b28:	11000426 	beq	r2,r4,1b3c <__svfscanf_r+0x84c>
    1b2c:	9104703a 	and	r2,r18,r4
    1b30:	103f6e26 	beq	r2,zero,18ec <__alt_data_end+0xfe0018ec>
    1b34:	d8809d17 	ldw	r2,628(sp)
    1b38:	103f6e26 	beq	r2,zero,18f4 <__alt_data_end+0xfe0018f4>
    1b3c:	9080800c 	andi	r2,r18,512
    1b40:	1000051e 	bne	r2,zero,1b58 <__svfscanf_r+0x868>
    1b44:	d9009d17 	ldw	r4,628(sp)
    1b48:	d880a117 	ldw	r2,644(sp)
    1b4c:	dcc0a415 	stw	r19,656(sp)
    1b50:	2089c83a 	sub	r4,r4,r2
    1b54:	d900a215 	stw	r4,648(sp)
    1b58:	9364703a 	and	r18,r18,r13
    1b5c:	94806014 	ori	r18,r18,384
    1b60:	d8009d15 	stw	zero,628(sp)
    1b64:	003f5606 	br	18c0 <__alt_data_end+0xfe0018c0>
    1b68:	00800044 	movi	r2,1
    1b6c:	18bf5f1e 	bne	r3,r2,18ec <__alt_data_end+0xfe0018ec>
    1b70:	00c00084 	movi	r3,2
    1b74:	003f5206 	br	18c0 <__alt_data_end+0xfe0018c0>
    1b78:	9080400c 	andi	r2,r18,256
    1b7c:	103f4926 	beq	r2,zero,18a4 <__alt_data_end+0xfe0018a4>
    1b80:	d9409d17 	ldw	r5,628(sp)
    1b84:	00bfdfc4 	movi	r2,-129
    1b88:	90a4703a 	and	r18,r18,r2
    1b8c:	d880a317 	ldw	r2,652(sp)
    1b90:	29400044 	addi	r5,r5,1
    1b94:	d9409d15 	stw	r5,628(sp)
    1b98:	103f4b26 	beq	r2,zero,18c8 <__alt_data_end+0xfe0018c8>
    1b9c:	10bfffc4 	addi	r2,r2,-1
    1ba0:	d880a315 	stw	r2,652(sp)
    1ba4:	e0800117 	ldw	r2,4(fp)
    1ba8:	bdc00044 	addi	r23,r23,1
    1bac:	bdffffc4 	addi	r23,r23,-1
    1bb0:	10bfffc4 	addi	r2,r2,-1
    1bb4:	e0800115 	stw	r2,4(fp)
    1bb8:	8c400044 	addi	r17,r17,1
    1bbc:	00bf4816 	blt	zero,r2,18e0 <__alt_data_end+0xfe0018e0>
    1bc0:	a809883a 	mov	r4,r21
    1bc4:	e00b883a 	mov	r5,fp
    1bc8:	d8c0a615 	stw	r3,664(sp)
    1bcc:	d9c0aa15 	stw	r7,680(sp)
    1bd0:	db40a515 	stw	r13,660(sp)
    1bd4:	00050a00 	call	50a0 <__srefill_r>
    1bd8:	d8c0a617 	ldw	r3,664(sp)
    1bdc:	d9c0aa17 	ldw	r7,680(sp)
    1be0:	db40a517 	ldw	r13,660(sp)
    1be4:	103f411e 	bne	r2,zero,18ec <__alt_data_end+0xfe0018ec>
    1be8:	b83ebf1e 	bne	r23,zero,16e8 <__alt_data_end+0xfe0016e8>
    1bec:	003f3f06 	br	18ec <__alt_data_end+0xfe0018ec>
    1bf0:	00bfbfc4 	movi	r2,-257
    1bf4:	90a4703a 	and	r18,r18,r2
    1bf8:	003f3e06 	br	18f4 <__alt_data_end+0xfe0018f4>
    1bfc:	a1000043 	ldbu	r4,1(r20)
    1c00:	8029883a 	mov	r20,r16
    1c04:	9cc00414 	ori	r19,r19,16
    1c08:	20803fcc 	andi	r2,r4,255
    1c0c:	a4000044 	addi	r16,r20,1
    1c10:	28be062e 	bgeu	r5,r2,142c <__alt_data_end+0xfe00142c>
    1c14:	21003fcc 	andi	r4,r4,255
    1c18:	2100201c 	xori	r4,r4,128
    1c1c:	213fe004 	addi	r4,r4,-128
    1c20:	1907883a 	add	r3,r3,r4
    1c24:	18c00043 	ldbu	r3,1(r3)
    1c28:	00800044 	movi	r2,1
    1c2c:	18c000cc 	andi	r3,r3,3
    1c30:	1882e426 	beq	r3,r2,27c4 <__svfscanf_r+0x14d4>
    1c34:	e0800117 	ldw	r2,4(fp)
    1c38:	01000034 	movhi	r4,0
    1c3c:	211b4a04 	addi	r4,r4,27944
    1c40:	01400284 	movi	r5,10
    1c44:	d900a015 	stw	r4,640(sp)
    1c48:	d9409e15 	stw	r5,632(sp)
    1c4c:	048000c4 	movi	r18,3
    1c50:	00be8c16 	blt	zero,r2,1684 <__alt_data_end+0xfe001684>
    1c54:	a809883a 	mov	r4,r21
    1c58:	e00b883a 	mov	r5,fp
    1c5c:	00050a00 	call	50a0 <__srefill_r>
    1c60:	103e8826 	beq	r2,zero,1684 <__alt_data_end+0xfe001684>
    1c64:	0002f040 	call	2f04 <__sfp_lock_release>
    1c68:	d8c09f17 	ldw	r3,636(sp)
    1c6c:	1800b726 	beq	r3,zero,1f4c <__svfscanf_r+0xc5c>
    1c70:	e080030b 	ldhu	r2,12(fp)
    1c74:	1080100c 	andi	r2,r2,64
    1c78:	1000b41e 	bne	r2,zero,1f4c <__svfscanf_r+0xc5c>
    1c7c:	d8809f17 	ldw	r2,636(sp)
    1c80:	00000206 	br	1c8c <__svfscanf_r+0x99c>
    1c84:	0002f040 	call	2f04 <__sfp_lock_release>
    1c88:	00bfffc4 	movi	r2,-1
    1c8c:	dfc0b417 	ldw	ra,720(sp)
    1c90:	df00b317 	ldw	fp,716(sp)
    1c94:	ddc0b217 	ldw	r23,712(sp)
    1c98:	dd80b117 	ldw	r22,708(sp)
    1c9c:	dd40b017 	ldw	r21,704(sp)
    1ca0:	dd00af17 	ldw	r20,700(sp)
    1ca4:	dcc0ae17 	ldw	r19,696(sp)
    1ca8:	dc80ad17 	ldw	r18,692(sp)
    1cac:	dc40ac17 	ldw	r17,688(sp)
    1cb0:	dc00ab17 	ldw	r16,684(sp)
    1cb4:	dec0b504 	addi	sp,sp,724
    1cb8:	f800283a 	ret
    1cbc:	a1000043 	ldbu	r4,1(r20)
    1cc0:	9cc00094 	ori	r19,r19,2
    1cc4:	8029883a 	mov	r20,r16
    1cc8:	003dd506 	br	1420 <__alt_data_end+0xfe001420>
    1ccc:	04800104 	movi	r18,4
    1cd0:	003e6a06 	br	167c <__alt_data_end+0xfe00167c>
    1cd4:	9cc00054 	ori	r19,r19,1
    1cd8:	01c00034 	movhi	r7,0
    1cdc:	39db4a04 	addi	r7,r7,27944
    1ce0:	00800284 	movi	r2,10
    1ce4:	d9c0a015 	stw	r7,640(sp)
    1ce8:	d8809e15 	stw	r2,632(sp)
    1cec:	048000c4 	movi	r18,3
    1cf0:	003e6206 	br	167c <__alt_data_end+0xfe00167c>
    1cf4:	20803fcc 	andi	r2,r4,255
    1cf8:	bdc002a4 	muli	r23,r23,10
    1cfc:	1080201c 	xori	r2,r2,128
    1d00:	10bfe004 	addi	r2,r2,-128
    1d04:	b8af883a 	add	r23,r23,r2
    1d08:	a1000043 	ldbu	r4,1(r20)
    1d0c:	bdfff404 	addi	r23,r23,-48
    1d10:	8029883a 	mov	r20,r16
    1d14:	003dc206 	br	1420 <__alt_data_end+0xfe001420>
    1d18:	01400034 	movhi	r5,0
    1d1c:	295cae04 	addi	r5,r5,29368
    1d20:	01c00284 	movi	r7,10
    1d24:	d940a015 	stw	r5,640(sp)
    1d28:	d9c09e15 	stw	r7,632(sp)
    1d2c:	048000c4 	movi	r18,3
    1d30:	003e5206 	br	167c <__alt_data_end+0xfe00167c>
    1d34:	04800084 	movi	r18,2
    1d38:	003e5006 	br	167c <__alt_data_end+0xfe00167c>
    1d3c:	01000034 	movhi	r4,0
    1d40:	211cae04 	addi	r4,r4,29368
    1d44:	01400404 	movi	r5,16
    1d48:	9cc08814 	ori	r19,r19,544
    1d4c:	d900a015 	stw	r4,640(sp)
    1d50:	d9409e15 	stw	r5,632(sp)
    1d54:	048000c4 	movi	r18,3
    1d58:	003e4806 	br	167c <__alt_data_end+0xfe00167c>
    1d5c:	01000034 	movhi	r4,0
    1d60:	211cae04 	addi	r4,r4,29368
    1d64:	01400204 	movi	r5,8
    1d68:	d900a015 	stw	r4,640(sp)
    1d6c:	d9409e15 	stw	r5,632(sp)
    1d70:	048000c4 	movi	r18,3
    1d74:	003e4106 	br	167c <__alt_data_end+0xfe00167c>
    1d78:	9880040c 	andi	r2,r19,16
    1d7c:	1000701e 	bne	r2,zero,1f40 <__svfscanf_r+0xc50>
    1d80:	9880010c 	andi	r2,r19,4
    1d84:	10029b26 	beq	r2,zero,27f4 <__svfscanf_r+0x1504>
    1d88:	d9c09c17 	ldw	r7,624(sp)
    1d8c:	8029883a 	mov	r20,r16
    1d90:	a021883a 	mov	r16,r20
    1d94:	38800017 	ldw	r2,0(r7)
    1d98:	39c00104 	addi	r7,r7,4
    1d9c:	d9c09c15 	stw	r7,624(sp)
    1da0:	1440000d 	sth	r17,0(r2)
    1da4:	003d9006 	br	13e8 <__alt_data_end+0xfe0013e8>
    1da8:	a1000043 	ldbu	r4,1(r20)
    1dac:	20803fcc 	andi	r2,r4,255
    1db0:	1080201c 	xori	r2,r2,128
    1db4:	10bfe004 	addi	r2,r2,-128
    1db8:	11828426 	beq	r2,r6,27cc <__svfscanf_r+0x14dc>
    1dbc:	9cc00054 	ori	r19,r19,1
    1dc0:	8029883a 	mov	r20,r16
    1dc4:	003d9606 	br	1420 <__alt_data_end+0xfe001420>
    1dc8:	a1000043 	ldbu	r4,1(r20)
    1dcc:	9cc00114 	ori	r19,r19,4
    1dd0:	8029883a 	mov	r20,r16
    1dd4:	003d9206 	br	1420 <__alt_data_end+0xfe001420>
    1dd8:	00800034 	movhi	r2,0
    1ddc:	109b4a04 	addi	r2,r2,27944
    1de0:	00c00284 	movi	r3,10
    1de4:	d880a015 	stw	r2,640(sp)
    1de8:	d8c09e15 	stw	r3,632(sp)
    1dec:	048000c4 	movi	r18,3
    1df0:	003e2206 	br	167c <__alt_data_end+0xfe00167c>
    1df4:	9cc01014 	ori	r19,r19,64
    1df8:	0025883a 	mov	r18,zero
    1dfc:	003e1f06 	br	167c <__alt_data_end+0xfe00167c>
    1e00:	800b883a 	mov	r5,r16
    1e04:	d9005884 	addi	r4,sp,354
    1e08:	00053440 	call	5344 <__sccl>
    1e0c:	1021883a 	mov	r16,r2
    1e10:	9cc01014 	ori	r19,r19,64
    1e14:	04800044 	movi	r18,1
    1e18:	003e1806 	br	167c <__alt_data_end+0xfe00167c>
    1e1c:	00800034 	movhi	r2,0
    1e20:	109cae04 	addi	r2,r2,29368
    1e24:	00c00404 	movi	r3,16
    1e28:	9cc08014 	ori	r19,r19,512
    1e2c:	d880a015 	stw	r2,640(sp)
    1e30:	d8c09e15 	stw	r3,632(sp)
    1e34:	048000c4 	movi	r18,3
    1e38:	003e1006 	br	167c <__alt_data_end+0xfe00167c>
    1e3c:	00c00034 	movhi	r3,0
    1e40:	18dcae04 	addi	r3,r3,29368
    1e44:	01000204 	movi	r4,8
    1e48:	9cc00054 	ori	r19,r19,1
    1e4c:	d8c0a015 	stw	r3,640(sp)
    1e50:	d9009e15 	stw	r4,632(sp)
    1e54:	048000c4 	movi	r18,3
    1e58:	003e0806 	br	167c <__alt_data_end+0xfe00167c>
    1e5c:	d8c09904 	addi	r3,sp,612
    1e60:	9cc0040c 	andi	r19,r19,16
    1e64:	1809883a 	mov	r4,r3
    1e68:	000b883a 	mov	r5,zero
    1e6c:	01800204 	movi	r6,8
    1e70:	dcc0a115 	stw	r19,644(sp)
    1e74:	d8c09d15 	stw	r3,628(sp)
    1e78:	0004a0c0 	call	4a0c <memset>
    1e7c:	dcc0a117 	ldw	r19,644(sp)
    1e80:	98020626 	beq	r19,zero,269c <__svfscanf_r+0x13ac>
    1e84:	0025883a 	mov	r18,zero
    1e88:	dcc0a117 	ldw	r19,644(sp)
    1e8c:	0029883a 	mov	r20,zero
    1e90:	dc00a215 	stw	r16,648(sp)
    1e94:	0003c840 	call	3c84 <__locale_mb_cur_max>
    1e98:	153f7226 	beq	r2,r20,1c64 <__alt_data_end+0xfe001c64>
    1e9c:	e0800017 	ldw	r2,0(fp)
    1ea0:	e1000117 	ldw	r4,4(fp)
    1ea4:	d9c09d17 	ldw	r7,628(sp)
    1ea8:	12400003 	ldbu	r9,0(r2)
    1eac:	213fffc4 	addi	r4,r4,-1
    1eb0:	10800044 	addi	r2,r2,1
    1eb4:	e1000115 	stw	r4,4(fp)
    1eb8:	d9400104 	addi	r5,sp,4
    1ebc:	e0800015 	stw	r2,0(fp)
    1ec0:	2d07883a 	add	r3,r5,r20
    1ec4:	d9c00015 	stw	r7,0(sp)
    1ec8:	a4000044 	addi	r16,r20,1
    1ecc:	1a400005 	stb	r9,0(r3)
    1ed0:	a809883a 	mov	r4,r21
    1ed4:	900b883a 	mov	r5,r18
    1ed8:	d9800104 	addi	r6,sp,4
    1edc:	800f883a 	mov	r7,r16
    1ee0:	00044a00 	call	44a0 <_mbrtowc_r>
    1ee4:	00ffffc4 	movi	r3,-1
    1ee8:	10ff5e26 	beq	r2,r3,1c64 <__alt_data_end+0xfe001c64>
    1eec:	10020e1e 	bne	r2,zero,2728 <__svfscanf_r+0x1438>
    1ef0:	9800011e 	bne	r19,zero,1ef8 <__svfscanf_r+0xc08>
    1ef4:	90000015 	stw	zero,0(r18)
    1ef8:	8c23883a 	add	r17,r17,r16
    1efc:	bdffffc4 	addi	r23,r23,-1
    1f00:	98020d1e 	bne	r19,zero,2738 <__svfscanf_r+0x1448>
    1f04:	94800104 	addi	r18,r18,4
    1f08:	0029883a 	mov	r20,zero
    1f0c:	e0800117 	ldw	r2,4(fp)
    1f10:	00800416 	blt	zero,r2,1f24 <__svfscanf_r+0xc34>
    1f14:	a809883a 	mov	r4,r21
    1f18:	e00b883a 	mov	r5,fp
    1f1c:	00050a00 	call	50a0 <__srefill_r>
    1f20:	1002a11e 	bne	r2,zero,29a8 <__svfscanf_r+0x16b8>
    1f24:	b83fdb1e 	bne	r23,zero,1e94 <__alt_data_end+0xfe001e94>
    1f28:	dc00a217 	ldw	r16,648(sp)
    1f2c:	d8c0a117 	ldw	r3,644(sp)
    1f30:	1800031e 	bne	r3,zero,1f40 <__svfscanf_r+0xc50>
    1f34:	d9009f17 	ldw	r4,636(sp)
    1f38:	21000044 	addi	r4,r4,1
    1f3c:	d9009f15 	stw	r4,636(sp)
    1f40:	8029883a 	mov	r20,r16
    1f44:	a021883a 	mov	r16,r20
    1f48:	003d2706 	br	13e8 <__alt_data_end+0xfe0013e8>
    1f4c:	00bfffc4 	movi	r2,-1
    1f50:	003f4e06 	br	1c8c <__alt_data_end+0xfe001c8c>
    1f54:	00800044 	movi	r2,1
    1f58:	90803e1e 	bne	r18,r2,2054 <__svfscanf_r+0xd64>
    1f5c:	b800011e 	bne	r23,zero,1f64 <__svfscanf_r+0xc74>
    1f60:	05ffffc4 	movi	r23,-1
    1f64:	9cc0040c 	andi	r19,r19,16
    1f68:	98011d26 	beq	r19,zero,23e0 <__svfscanf_r+0x10f0>
    1f6c:	e0800017 	ldw	r2,0(fp)
    1f70:	0025883a 	mov	r18,zero
    1f74:	dd005884 	addi	r20,sp,354
    1f78:	10c00003 	ldbu	r3,0(r2)
    1f7c:	a0c7883a 	add	r3,r20,r3
    1f80:	18c00007 	ldb	r3,0(r3)
    1f84:	18001126 	beq	r3,zero,1fcc <__svfscanf_r+0xcdc>
    1f88:	e0c00117 	ldw	r3,4(fp)
    1f8c:	10800044 	addi	r2,r2,1
    1f90:	94800044 	addi	r18,r18,1
    1f94:	18ffffc4 	addi	r3,r3,-1
    1f98:	e0c00115 	stw	r3,4(fp)
    1f9c:	e0800015 	stw	r2,0(fp)
    1fa0:	bc800b26 	beq	r23,r18,1fd0 <__svfscanf_r+0xce0>
    1fa4:	00fff416 	blt	zero,r3,1f78 <__alt_data_end+0xfe001f78>
    1fa8:	a809883a 	mov	r4,r21
    1fac:	e00b883a 	mov	r5,fp
    1fb0:	00050a00 	call	50a0 <__srefill_r>
    1fb4:	1000061e 	bne	r2,zero,1fd0 <__svfscanf_r+0xce0>
    1fb8:	e0800017 	ldw	r2,0(fp)
    1fbc:	10c00003 	ldbu	r3,0(r2)
    1fc0:	a0c7883a 	add	r3,r20,r3
    1fc4:	18c00007 	ldb	r3,0(r3)
    1fc8:	183fef1e 	bne	r3,zero,1f88 <__alt_data_end+0xfe001f88>
    1fcc:	903d0a26 	beq	r18,zero,13f8 <__alt_data_end+0xfe0013f8>
    1fd0:	8ca3883a 	add	r17,r17,r18
    1fd4:	8029883a 	mov	r20,r16
    1fd8:	a021883a 	mov	r16,r20
    1fdc:	003d0206 	br	13e8 <__alt_data_end+0xfe0013e8>
    1fe0:	b800011e 	bne	r23,zero,1fe8 <__svfscanf_r+0xcf8>
    1fe4:	05ffffc4 	movi	r23,-1
    1fe8:	9880004c 	andi	r2,r19,1
    1fec:	10017a1e 	bne	r2,zero,25d8 <__svfscanf_r+0x12e8>
    1ff0:	9cc0040c 	andi	r19,r19,16
    1ff4:	98012826 	beq	r19,zero,2498 <__svfscanf_r+0x11a8>
    1ff8:	b1000017 	ldw	r4,0(r22)
    1ffc:	e0800017 	ldw	r2,0(fp)
    2000:	0025883a 	mov	r18,zero
    2004:	10c00003 	ldbu	r3,0(r2)
    2008:	20c7883a 	add	r3,r4,r3
    200c:	18c00043 	ldbu	r3,1(r3)
    2010:	18c0020c 	andi	r3,r3,8
    2014:	183fee1e 	bne	r3,zero,1fd0 <__alt_data_end+0xfe001fd0>
    2018:	e0c00117 	ldw	r3,4(fp)
    201c:	10800044 	addi	r2,r2,1
    2020:	94800044 	addi	r18,r18,1
    2024:	18ffffc4 	addi	r3,r3,-1
    2028:	e0c00115 	stw	r3,4(fp)
    202c:	e0800015 	stw	r2,0(fp)
    2030:	bcbfe726 	beq	r23,r18,1fd0 <__alt_data_end+0xfe001fd0>
    2034:	00fff316 	blt	zero,r3,2004 <__alt_data_end+0xfe002004>
    2038:	a809883a 	mov	r4,r21
    203c:	e00b883a 	mov	r5,fp
    2040:	00050a00 	call	50a0 <__srefill_r>
    2044:	103fe21e 	bne	r2,zero,1fd0 <__alt_data_end+0xfe001fd0>
    2048:	b1000017 	ldw	r4,0(r22)
    204c:	e0800017 	ldw	r2,0(fp)
    2050:	003fec06 	br	2004 <__alt_data_end+0xfe002004>
    2054:	b800011e 	bne	r23,zero,205c <__svfscanf_r+0xd6c>
    2058:	05c00044 	movi	r23,1
    205c:	9880004c 	andi	r2,r19,1
    2060:	103f7e1e 	bne	r2,zero,1e5c <__alt_data_end+0xfe001e5c>
    2064:	9cc0040c 	andi	r19,r19,16
    2068:	9801b926 	beq	r19,zero,2750 <__svfscanf_r+0x1460>
    206c:	0025883a 	mov	r18,zero
    2070:	00000806 	br	2094 <__svfscanf_r+0xda4>
    2074:	1887883a 	add	r3,r3,r2
    2078:	a809883a 	mov	r4,r21
    207c:	e00b883a 	mov	r5,fp
    2080:	e0c00015 	stw	r3,0(fp)
    2084:	90a5883a 	add	r18,r18,r2
    2088:	b8afc83a 	sub	r23,r23,r2
    208c:	00050a00 	call	50a0 <__srefill_r>
    2090:	1001ab1e 	bne	r2,zero,2740 <__svfscanf_r+0x1450>
    2094:	e0800117 	ldw	r2,4(fp)
    2098:	e0c00017 	ldw	r3,0(fp)
    209c:	15fff516 	blt	r2,r23,2074 <__alt_data_end+0xfe002074>
    20a0:	15c5c83a 	sub	r2,r2,r23
    20a4:	95e5883a 	add	r18,r18,r23
    20a8:	1dd5883a 	add	r10,r3,r23
    20ac:	e0800115 	stw	r2,4(fp)
    20b0:	e2800015 	stw	r10,0(fp)
    20b4:	8ca3883a 	add	r17,r17,r18
    20b8:	8029883a 	mov	r20,r16
    20bc:	003fc606 	br	1fd8 <__alt_data_end+0xfe001fd8>
    20c0:	b8bfffc4 	addi	r2,r23,-1
    20c4:	00c05704 	movi	r3,348
    20c8:	1880c12e 	bgeu	r3,r2,23d0 <__svfscanf_r+0x10e0>
    20cc:	b9ffa8c4 	addi	r7,r23,-349
    20d0:	05c05744 	movi	r23,349
    20d4:	8815883a 	mov	r10,r17
    20d8:	8023883a 	mov	r17,r16
    20dc:	dc009e17 	ldw	r16,632(sp)
    20e0:	9cc36014 	ori	r19,r19,3456
    20e4:	0025883a 	mov	r18,zero
    20e8:	dd000104 	addi	r20,sp,4
    20ec:	02401344 	movi	r9,77
    20f0:	02c08004 	movi	r11,512
    20f4:	01bf7fc4 	movi	r6,-513
    20f8:	023fdfc4 	movi	r8,-129
    20fc:	e1400017 	ldw	r5,0(fp)
    2100:	28c00003 	ldbu	r3,0(r5)
    2104:	18bff544 	addi	r2,r3,-43
    2108:	10803fcc 	andi	r2,r2,255
    210c:	48806436 	bltu	r9,r2,22a0 <__svfscanf_r+0xfb0>
    2110:	1085883a 	add	r2,r2,r2
    2114:	1085883a 	add	r2,r2,r2
    2118:	01000034 	movhi	r4,0
    211c:	21084b04 	addi	r4,r4,8492
    2120:	1105883a 	add	r2,r2,r4
    2124:	10800017 	ldw	r2,0(r2)
    2128:	1000683a 	jmp	r2
    212c:	000023c0 	call	23c <main+0x44>
    2130:	000022a0 	cmpeqi	zero,zero,138
    2134:	000023c0 	call	23c <main+0x44>
    2138:	000022a0 	cmpeqi	zero,zero,138
    213c:	000022a0 	cmpeqi	zero,zero,138
    2140:	00002338 	rdprs	zero,zero,140
    2144:	00002318 	cmpnei	zero,zero,140
    2148:	00002318 	cmpnei	zero,zero,140
    214c:	00002318 	cmpnei	zero,zero,140
    2150:	00002318 	cmpnei	zero,zero,140
    2154:	00002318 	cmpnei	zero,zero,140
    2158:	00002318 	cmpnei	zero,zero,140
    215c:	00002318 	cmpnei	zero,zero,140
    2160:	000022f8 	rdprs	zero,zero,139
    2164:	000022f8 	rdprs	zero,zero,139
    2168:	000022a0 	cmpeqi	zero,zero,138
    216c:	000022a0 	cmpeqi	zero,zero,138
    2170:	000022a0 	cmpeqi	zero,zero,138
    2174:	000022a0 	cmpeqi	zero,zero,138
    2178:	000022a0 	cmpeqi	zero,zero,138
    217c:	000022a0 	cmpeqi	zero,zero,138
    2180:	000022a0 	cmpeqi	zero,zero,138
    2184:	000022e4 	muli	zero,zero,139
    2188:	000022e4 	muli	zero,zero,139
    218c:	000022e4 	muli	zero,zero,139
    2190:	000022e4 	muli	zero,zero,139
    2194:	000022e4 	muli	zero,zero,139
    2198:	000022e4 	muli	zero,zero,139
    219c:	000022a0 	cmpeqi	zero,zero,138
    21a0:	000022a0 	cmpeqi	zero,zero,138
    21a4:	000022a0 	cmpeqi	zero,zero,138
    21a8:	000022a0 	cmpeqi	zero,zero,138
    21ac:	000022a0 	cmpeqi	zero,zero,138
    21b0:	000022a0 	cmpeqi	zero,zero,138
    21b4:	000022a0 	cmpeqi	zero,zero,138
    21b8:	000022a0 	cmpeqi	zero,zero,138
    21bc:	000022a0 	cmpeqi	zero,zero,138
    21c0:	000022a0 	cmpeqi	zero,zero,138
    21c4:	000022a0 	cmpeqi	zero,zero,138
    21c8:	000022a0 	cmpeqi	zero,zero,138
    21cc:	000022a0 	cmpeqi	zero,zero,138
    21d0:	000022a0 	cmpeqi	zero,zero,138
    21d4:	000022a0 	cmpeqi	zero,zero,138
    21d8:	000022a0 	cmpeqi	zero,zero,138
    21dc:	000022a0 	cmpeqi	zero,zero,138
    21e0:	00002264 	muli	zero,zero,137
    21e4:	000022a0 	cmpeqi	zero,zero,138
    21e8:	000022a0 	cmpeqi	zero,zero,138
    21ec:	000022a0 	cmpeqi	zero,zero,138
    21f0:	000022a0 	cmpeqi	zero,zero,138
    21f4:	000022a0 	cmpeqi	zero,zero,138
    21f8:	000022a0 	cmpeqi	zero,zero,138
    21fc:	000022a0 	cmpeqi	zero,zero,138
    2200:	000022a0 	cmpeqi	zero,zero,138
    2204:	000022e4 	muli	zero,zero,139
    2208:	000022e4 	muli	zero,zero,139
    220c:	000022e4 	muli	zero,zero,139
    2210:	000022e4 	muli	zero,zero,139
    2214:	000022e4 	muli	zero,zero,139
    2218:	000022e4 	muli	zero,zero,139
    221c:	000022a0 	cmpeqi	zero,zero,138
    2220:	000022a0 	cmpeqi	zero,zero,138
    2224:	000022a0 	cmpeqi	zero,zero,138
    2228:	000022a0 	cmpeqi	zero,zero,138
    222c:	000022a0 	cmpeqi	zero,zero,138
    2230:	000022a0 	cmpeqi	zero,zero,138
    2234:	000022a0 	cmpeqi	zero,zero,138
    2238:	000022a0 	cmpeqi	zero,zero,138
    223c:	000022a0 	cmpeqi	zero,zero,138
    2240:	000022a0 	cmpeqi	zero,zero,138
    2244:	000022a0 	cmpeqi	zero,zero,138
    2248:	000022a0 	cmpeqi	zero,zero,138
    224c:	000022a0 	cmpeqi	zero,zero,138
    2250:	000022a0 	cmpeqi	zero,zero,138
    2254:	000022a0 	cmpeqi	zero,zero,138
    2258:	000022a0 	cmpeqi	zero,zero,138
    225c:	000022a0 	cmpeqi	zero,zero,138
    2260:	00002264 	muli	zero,zero,137
    2264:	9881800c 	andi	r2,r19,1536
    2268:	12c00d1e 	bne	r2,r11,22a0 <__svfscanf_r+0xfb0>
    226c:	99a6703a 	and	r19,r19,r6
    2270:	9cc14014 	ori	r19,r19,1280
    2274:	04000404 	movi	r16,16
    2278:	e0800117 	ldw	r2,4(fp)
    227c:	a0c00005 	stb	r3,0(r20)
    2280:	a5000044 	addi	r20,r20,1
    2284:	10bfffc4 	addi	r2,r2,-1
    2288:	e0800115 	stw	r2,4(fp)
    228c:	00803b0e 	bge	zero,r2,237c <__svfscanf_r+0x108c>
    2290:	29400044 	addi	r5,r5,1
    2294:	e1400015 	stw	r5,0(fp)
    2298:	bdffffc4 	addi	r23,r23,-1
    229c:	b83f971e 	bne	r23,zero,20fc <__alt_data_end+0xfe0020fc>
    22a0:	dc009e15 	stw	r16,632(sp)
    22a4:	9880400c 	andi	r2,r19,256
    22a8:	8821883a 	mov	r16,r17
    22ac:	5023883a 	mov	r17,r10
    22b0:	10000426 	beq	r2,zero,22c4 <__svfscanf_r+0xfd4>
    22b4:	d9400104 	addi	r5,sp,4
    22b8:	2d013736 	bltu	r5,r20,2798 <__svfscanf_r+0x14a8>
    22bc:	d9c00104 	addi	r7,sp,4
    22c0:	3d3c4d26 	beq	r7,r20,13f8 <__alt_data_end+0xfe0013f8>
    22c4:	9880040c 	andi	r2,r19,16
    22c8:	1000af26 	beq	r2,zero,2588 <__svfscanf_r+0x1298>
    22cc:	d8c00104 	addi	r3,sp,4
    22d0:	a0e9c83a 	sub	r20,r20,r3
    22d4:	a4a5883a 	add	r18,r20,r18
    22d8:	8ca3883a 	add	r17,r17,r18
    22dc:	8029883a 	mov	r20,r16
    22e0:	003f3d06 	br	1fd8 <__alt_data_end+0xfe001fd8>
    22e4:	00800284 	movi	r2,10
    22e8:	143fed0e 	bge	r2,r16,22a0 <__alt_data_end+0xfe0022a0>
    22ec:	00bd1fc4 	movi	r2,-2945
    22f0:	98a6703a 	and	r19,r19,r2
    22f4:	003fe006 	br	2278 <__alt_data_end+0xfe002278>
    22f8:	8421883a 	add	r16,r16,r16
    22fc:	01000074 	movhi	r4,1
    2300:	21138e84 	addi	r4,r4,20026
    2304:	2405883a 	add	r2,r4,r16
    2308:	1400000f 	ldh	r16,0(r2)
    230c:	00800204 	movi	r2,8
    2310:	143ff616 	blt	r2,r16,22ec <__alt_data_end+0xfe0022ec>
    2314:	003fe206 	br	22a0 <__alt_data_end+0xfe0022a0>
    2318:	8421883a 	add	r16,r16,r16
    231c:	01000074 	movhi	r4,1
    2320:	21138e84 	addi	r4,r4,20026
    2324:	2405883a 	add	r2,r4,r16
    2328:	1400000f 	ldh	r16,0(r2)
    232c:	00bd1fc4 	movi	r2,-2945
    2330:	98a6703a 	and	r19,r19,r2
    2334:	003fd006 	br	2278 <__alt_data_end+0xfe002278>
    2338:	9882000c 	andi	r2,r19,2048
    233c:	103fce26 	beq	r2,zero,2278 <__alt_data_end+0xfe002278>
    2340:	8000021e 	bne	r16,zero,234c <__svfscanf_r+0x105c>
    2344:	9cc08014 	ori	r19,r19,512
    2348:	04000204 	movi	r16,8
    234c:	9881000c 	andi	r2,r19,1024
    2350:	1000c41e 	bne	r2,zero,2664 <__svfscanf_r+0x1374>
    2354:	00bf1fc4 	movi	r2,-897
    2358:	98a6703a 	and	r19,r19,r2
    235c:	38000226 	beq	r7,zero,2368 <__svfscanf_r+0x1078>
    2360:	39ffffc4 	addi	r7,r7,-1
    2364:	bdc00044 	addi	r23,r23,1
    2368:	e0800117 	ldw	r2,4(fp)
    236c:	94800044 	addi	r18,r18,1
    2370:	10bfffc4 	addi	r2,r2,-1
    2374:	e0800115 	stw	r2,4(fp)
    2378:	00bfc516 	blt	zero,r2,2290 <__alt_data_end+0xfe002290>
    237c:	a809883a 	mov	r4,r21
    2380:	e00b883a 	mov	r5,fp
    2384:	d980a715 	stw	r6,668(sp)
    2388:	d9c0aa15 	stw	r7,680(sp)
    238c:	da00a815 	stw	r8,672(sp)
    2390:	da40a515 	stw	r9,660(sp)
    2394:	da80a915 	stw	r10,676(sp)
    2398:	dac0a615 	stw	r11,664(sp)
    239c:	00050a00 	call	50a0 <__srefill_r>
    23a0:	d980a717 	ldw	r6,668(sp)
    23a4:	d9c0aa17 	ldw	r7,680(sp)
    23a8:	da00a817 	ldw	r8,672(sp)
    23ac:	da40a517 	ldw	r9,660(sp)
    23b0:	da80a917 	ldw	r10,676(sp)
    23b4:	dac0a617 	ldw	r11,664(sp)
    23b8:	103fb726 	beq	r2,zero,2298 <__alt_data_end+0xfe002298>
    23bc:	003fb806 	br	22a0 <__alt_data_end+0xfe0022a0>
    23c0:	9880200c 	andi	r2,r19,128
    23c4:	103fb626 	beq	r2,zero,22a0 <__alt_data_end+0xfe0022a0>
    23c8:	9a26703a 	and	r19,r19,r8
    23cc:	003faa06 	br	2278 <__alt_data_end+0xfe002278>
    23d0:	000f883a 	mov	r7,zero
    23d4:	003f3f06 	br	20d4 <__alt_data_end+0xfe0020d4>
    23d8:	d800a315 	stw	zero,652(sp)
    23dc:	003cb806 	br	16c0 <__alt_data_end+0xfe0016c0>
    23e0:	d9c09c17 	ldw	r7,624(sp)
    23e4:	dd005884 	addi	r20,sp,354
    23e8:	3c800017 	ldw	r18,0(r7)
    23ec:	38c00104 	addi	r3,r7,4
    23f0:	d8c09c15 	stw	r3,624(sp)
    23f4:	90bfffc4 	addi	r2,r18,-1
    23f8:	15e7883a 	add	r19,r2,r23
    23fc:	e0800017 	ldw	r2,0(fp)
    2400:	9007883a 	mov	r3,r18
    2404:	11400003 	ldbu	r5,0(r2)
    2408:	a14b883a 	add	r5,r20,r5
    240c:	29400007 	ldb	r5,0(r5)
    2410:	28001126 	beq	r5,zero,2458 <__svfscanf_r+0x1168>
    2414:	e1400117 	ldw	r5,4(fp)
    2418:	11800044 	addi	r6,r2,1
    241c:	e1800015 	stw	r6,0(fp)
    2420:	297fffc4 	addi	r5,r5,-1
    2424:	e1400115 	stw	r5,4(fp)
    2428:	10800003 	ldbu	r2,0(r2)
    242c:	1dc00044 	addi	r23,r3,1
    2430:	18800005 	stb	r2,0(r3)
    2434:	1cc00926 	beq	r3,r19,245c <__svfscanf_r+0x116c>
    2438:	e0800117 	ldw	r2,4(fp)
    243c:	0080100e 	bge	zero,r2,2480 <__svfscanf_r+0x1190>
    2440:	e0800017 	ldw	r2,0(fp)
    2444:	b807883a 	mov	r3,r23
    2448:	11400003 	ldbu	r5,0(r2)
    244c:	a14b883a 	add	r5,r20,r5
    2450:	29400007 	ldb	r5,0(r5)
    2454:	283fef1e 	bne	r5,zero,2414 <__alt_data_end+0xfe002414>
    2458:	182f883a 	mov	r23,r3
    245c:	bca5c83a 	sub	r18,r23,r18
    2460:	903be526 	beq	r18,zero,13f8 <__alt_data_end+0xfe0013f8>
    2464:	d9009f17 	ldw	r4,636(sp)
    2468:	b8000005 	stb	zero,0(r23)
    246c:	8ca3883a 	add	r17,r17,r18
    2470:	21000044 	addi	r4,r4,1
    2474:	d9009f15 	stw	r4,636(sp)
    2478:	8029883a 	mov	r20,r16
    247c:	003ed606 	br	1fd8 <__alt_data_end+0xfe001fd8>
    2480:	a809883a 	mov	r4,r21
    2484:	e00b883a 	mov	r5,fp
    2488:	00050a00 	call	50a0 <__srefill_r>
    248c:	103fec26 	beq	r2,zero,2440 <__alt_data_end+0xfe002440>
    2490:	95fff21e 	bne	r18,r23,245c <__alt_data_end+0xfe00245c>
    2494:	003df306 	br	1c64 <__alt_data_end+0xfe001c64>
    2498:	d8c09c17 	ldw	r3,624(sp)
    249c:	b1800017 	ldw	r6,0(r22)
    24a0:	1d000017 	ldw	r20,0(r3)
    24a4:	19c00104 	addi	r7,r3,4
    24a8:	d9c09c15 	stw	r7,624(sp)
    24ac:	a0ffffc4 	addi	r3,r20,-1
    24b0:	1def883a 	add	r23,r3,r23
    24b4:	e0c00017 	ldw	r3,0(fp)
    24b8:	a005883a 	mov	r2,r20
    24bc:	19400003 	ldbu	r5,0(r3)
    24c0:	314b883a 	add	r5,r6,r5
    24c4:	29400043 	ldbu	r5,1(r5)
    24c8:	2940020c 	andi	r5,r5,8
    24cc:	2800141e 	bne	r5,zero,2520 <__svfscanf_r+0x1230>
    24d0:	e1400117 	ldw	r5,4(fp)
    24d4:	19800044 	addi	r6,r3,1
    24d8:	e1800015 	stw	r6,0(fp)
    24dc:	297fffc4 	addi	r5,r5,-1
    24e0:	e1400115 	stw	r5,4(fp)
    24e4:	18c00003 	ldbu	r3,0(r3)
    24e8:	14c00044 	addi	r19,r2,1
    24ec:	9825883a 	mov	r18,r19
    24f0:	10c00005 	stb	r3,0(r2)
    24f4:	15c00b26 	beq	r2,r23,2524 <__svfscanf_r+0x1234>
    24f8:	e0800117 	ldw	r2,4(fp)
    24fc:	0080120e 	bge	zero,r2,2548 <__svfscanf_r+0x1258>
    2500:	9805883a 	mov	r2,r19
    2504:	e0c00017 	ldw	r3,0(fp)
    2508:	b1800017 	ldw	r6,0(r22)
    250c:	19400003 	ldbu	r5,0(r3)
    2510:	314b883a 	add	r5,r6,r5
    2514:	29400043 	ldbu	r5,1(r5)
    2518:	2940020c 	andi	r5,r5,8
    251c:	283fec26 	beq	r5,zero,24d0 <__alt_data_end+0xfe0024d0>
    2520:	1025883a 	mov	r18,r2
    2524:	d8809f17 	ldw	r2,636(sp)
    2528:	9529c83a 	sub	r20,r18,r20
    252c:	8d23883a 	add	r17,r17,r20
    2530:	10800044 	addi	r2,r2,1
    2534:	8029883a 	mov	r20,r16
    2538:	90000005 	stb	zero,0(r18)
    253c:	d8809f15 	stw	r2,636(sp)
    2540:	a021883a 	mov	r16,r20
    2544:	003ba806 	br	13e8 <__alt_data_end+0xfe0013e8>
    2548:	a809883a 	mov	r4,r21
    254c:	e00b883a 	mov	r5,fp
    2550:	00050a00 	call	50a0 <__srefill_r>
    2554:	103ff31e 	bne	r2,zero,2524 <__alt_data_end+0xfe002524>
    2558:	9805883a 	mov	r2,r19
    255c:	003fe906 	br	2504 <__alt_data_end+0xfe002504>
    2560:	010000c4 	movi	r4,3
    2564:	113d5926 	beq	r2,r4,1acc <__alt_data_end+0xfe001acc>
    2568:	01000144 	movi	r4,5
    256c:	113cdf1e 	bne	r2,r4,18ec <__alt_data_end+0xfe0018ec>
    2570:	a5000044 	addi	r20,r20,1
    2574:	003cd206 	br	18c0 <__alt_data_end+0xfe0018c0>
    2578:	00800084 	movi	r2,2
    257c:	18bd4c1e 	bne	r3,r2,1ab0 <__alt_data_end+0xfe001ab0>
    2580:	00c000c4 	movi	r3,3
    2584:	003cce06 	br	18c0 <__alt_data_end+0xfe0018c0>
    2588:	d8c0a017 	ldw	r3,640(sp)
    258c:	d9c09e17 	ldw	r7,632(sp)
    2590:	a809883a 	mov	r4,r21
    2594:	d9400104 	addi	r5,sp,4
    2598:	000d883a 	mov	r6,zero
    259c:	a0000005 	stb	zero,0(r20)
    25a0:	183ee83a 	callr	r3
    25a4:	98c0080c 	andi	r3,r19,32
    25a8:	1800411e 	bne	r3,zero,26b0 <__svfscanf_r+0x13c0>
    25ac:	98c0010c 	andi	r3,r19,4
    25b0:	1800b526 	beq	r3,zero,2888 <__svfscanf_r+0x1598>
    25b4:	d9409c17 	ldw	r5,624(sp)
    25b8:	28c00017 	ldw	r3,0(r5)
    25bc:	29400104 	addi	r5,r5,4
    25c0:	d9409c15 	stw	r5,624(sp)
    25c4:	1880000d 	sth	r2,0(r3)
    25c8:	d8809f17 	ldw	r2,636(sp)
    25cc:	10800044 	addi	r2,r2,1
    25d0:	d8809f15 	stw	r2,636(sp)
    25d4:	003f3d06 	br	22cc <__alt_data_end+0xfe0022cc>
    25d8:	d8c09904 	addi	r3,sp,612
    25dc:	9cc0040c 	andi	r19,r19,16
    25e0:	1809883a 	mov	r4,r3
    25e4:	000b883a 	mov	r5,zero
    25e8:	01800204 	movi	r6,8
    25ec:	d8c09d15 	stw	r3,628(sp)
    25f0:	0004a0c0 	call	4a0c <memset>
    25f4:	98002426 	beq	r19,zero,2688 <__svfscanf_r+0x1398>
    25f8:	dc809b04 	addi	r18,sp,620
    25fc:	000d883a 	mov	r6,zero
    2600:	dc00a115 	stw	r16,644(sp)
    2604:	3021883a 	mov	r16,r6
    2608:	e0800017 	ldw	r2,0(fp)
    260c:	b0c00017 	ldw	r3,0(r22)
    2610:	10800003 	ldbu	r2,0(r2)
    2614:	1885883a 	add	r2,r3,r2
    2618:	10800043 	ldbu	r2,1(r2)
    261c:	1080020c 	andi	r2,r2,8
    2620:	1000011e 	bne	r2,zero,2628 <__svfscanf_r+0x1338>
    2624:	b800ac1e 	bne	r23,zero,28d8 <__svfscanf_r+0x15e8>
    2628:	dc00a117 	ldw	r16,644(sp)
    262c:	983e441e 	bne	r19,zero,1f40 <__alt_data_end+0xfe001f40>
    2630:	d8809f17 	ldw	r2,636(sp)
    2634:	90000015 	stw	zero,0(r18)
    2638:	8029883a 	mov	r20,r16
    263c:	10800044 	addi	r2,r2,1
    2640:	d8809f15 	stw	r2,636(sp)
    2644:	003e3f06 	br	1f44 <__alt_data_end+0xfe001f44>
    2648:	d9009c17 	ldw	r4,624(sp)
    264c:	20800017 	ldw	r2,0(r4)
    2650:	21000104 	addi	r4,r4,4
    2654:	d9009c15 	stw	r4,624(sp)
    2658:	15000015 	stw	r20,0(r2)
    265c:	10c00115 	stw	r3,4(r2)
    2660:	003cf006 	br	1a24 <__alt_data_end+0xfe001a24>
    2664:	00be9fc4 	movi	r2,-1409
    2668:	98a6703a 	and	r19,r19,r2
    266c:	003f0206 	br	2278 <__alt_data_end+0xfe002278>
    2670:	9101c00c 	andi	r4,r18,1792
    2674:	0081c004 	movi	r2,1792
    2678:	20bd0d1e 	bne	r4,r2,1ab0 <__alt_data_end+0xfe001ab0>
    267c:	9364703a 	and	r18,r18,r13
    2680:	00c00044 	movi	r3,1
    2684:	003c8e06 	br	18c0 <__alt_data_end+0xfe0018c0>
    2688:	d9009c17 	ldw	r4,624(sp)
    268c:	24800017 	ldw	r18,0(r4)
    2690:	21000104 	addi	r4,r4,4
    2694:	d9009c15 	stw	r4,624(sp)
    2698:	003fd806 	br	25fc <__alt_data_end+0xfe0025fc>
    269c:	d9009c17 	ldw	r4,624(sp)
    26a0:	24800017 	ldw	r18,0(r4)
    26a4:	21000104 	addi	r4,r4,4
    26a8:	d9009c15 	stw	r4,624(sp)
    26ac:	003df606 	br	1e88 <__alt_data_end+0xfe001e88>
    26b0:	d9009c17 	ldw	r4,624(sp)
    26b4:	20c00017 	ldw	r3,0(r4)
    26b8:	21000104 	addi	r4,r4,4
    26bc:	d9009c15 	stw	r4,624(sp)
    26c0:	18800015 	stw	r2,0(r3)
    26c4:	003fc006 	br	25c8 <__alt_data_end+0xfe0025c8>
    26c8:	d8c0a417 	ldw	r3,656(sp)
    26cc:	000d883a 	mov	r6,zero
    26d0:	a809883a 	mov	r4,r21
    26d4:	19400044 	addi	r5,r3,1
    26d8:	01c00284 	movi	r7,10
    26dc:	0006d280 	call	6d28 <_strtol_r>
    26e0:	d8c0a217 	ldw	r3,648(sp)
    26e4:	dcc0a417 	ldw	r19,656(sp)
    26e8:	10cdc83a 	sub	r6,r2,r3
    26ec:	d88055c4 	addi	r2,sp,343
    26f0:	98800136 	bltu	r19,r2,26f8 <__svfscanf_r+0x1408>
    26f4:	dcc05584 	addi	r19,sp,342
    26f8:	9809883a 	mov	r4,r19
    26fc:	01400074 	movhi	r5,1
    2700:	29538d04 	addi	r5,r5,20020
    2704:	00054680 	call	5468 <sprintf>
    2708:	a809883a 	mov	r4,r21
    270c:	d9400104 	addi	r5,sp,4
    2710:	000d883a 	mov	r6,zero
    2714:	00056b40 	call	56b4 <_strtod_r>
    2718:	1029883a 	mov	r20,r2
    271c:	9080004c 	andi	r2,r18,1
    2720:	103cb826 	beq	r2,zero,1a04 <__alt_data_end+0xfe001a04>
    2724:	003fc806 	br	2648 <__alt_data_end+0xfe002648>
    2728:	013fff84 	movi	r4,-2
    272c:	113df21e 	bne	r2,r4,1ef8 <__alt_data_end+0xfe001ef8>
    2730:	8029883a 	mov	r20,r16
    2734:	003df506 	br	1f0c <__alt_data_end+0xfe001f0c>
    2738:	0029883a 	mov	r20,zero
    273c:	003df306 	br	1f0c <__alt_data_end+0xfe001f0c>
    2740:	903d4826 	beq	r18,zero,1c64 <__alt_data_end+0xfe001c64>
    2744:	8ca3883a 	add	r17,r17,r18
    2748:	8029883a 	mov	r20,r16
    274c:	003e2206 	br	1fd8 <__alt_data_end+0xfe001fd8>
    2750:	d9c09c17 	ldw	r7,624(sp)
    2754:	df000015 	stw	fp,0(sp)
    2758:	a809883a 	mov	r4,r21
    275c:	39400017 	ldw	r5,0(r7)
    2760:	01800044 	movi	r6,1
    2764:	b80f883a 	mov	r7,r23
    2768:	0002f400 	call	2f40 <_fread_r>
    276c:	d9009c17 	ldw	r4,624(sp)
    2770:	20c00104 	addi	r3,r4,4
    2774:	103d3b26 	beq	r2,zero,1c64 <__alt_data_end+0xfe001c64>
    2778:	d9409f17 	ldw	r5,636(sp)
    277c:	8029883a 	mov	r20,r16
    2780:	1463883a 	add	r17,r2,r17
    2784:	29400044 	addi	r5,r5,1
    2788:	d9409f15 	stw	r5,636(sp)
    278c:	d8c09c15 	stw	r3,624(sp)
    2790:	a021883a 	mov	r16,r20
    2794:	003b1406 	br	13e8 <__alt_data_end+0xfe0013e8>
    2798:	a17fffc7 	ldb	r5,-1(r20)
    279c:	a809883a 	mov	r4,r21
    27a0:	e00d883a 	mov	r6,fp
    27a4:	a53fffc4 	addi	r20,r20,-1
    27a8:	00098300 	call	9830 <_ungetc_r>
    27ac:	003ec306 	br	22bc <__alt_data_end+0xfe0022bc>
    27b0:	a809883a 	mov	r4,r21
    27b4:	e00b883a 	mov	r5,fp
    27b8:	00050a00 	call	50a0 <__srefill_r>
    27bc:	103b9e26 	beq	r2,zero,1638 <__alt_data_end+0xfe001638>
    27c0:	003d2806 	br	1c64 <__alt_data_end+0xfe001c64>
    27c4:	98a6b03a 	or	r19,r19,r2
    27c8:	003d4306 	br	1cd8 <__alt_data_end+0xfe001cd8>
    27cc:	a1000083 	ldbu	r4,2(r20)
    27d0:	9cc00094 	ori	r19,r19,2
    27d4:	a5000084 	addi	r20,r20,2
    27d8:	003b1106 	br	1420 <__alt_data_end+0xfe001420>
    27dc:	d8c09d17 	ldw	r3,628(sp)
    27e0:	d9c0a117 	ldw	r7,644(sp)
    27e4:	19c5c83a 	sub	r2,r3,r7
    27e8:	008dc83a 	sub	r6,zero,r2
    27ec:	103fbf1e 	bne	r2,zero,26ec <__alt_data_end+0xfe0026ec>
    27f0:	003c7d06 	br	19e8 <__alt_data_end+0xfe0019e8>
    27f4:	9880004c 	andi	r2,r19,1
    27f8:	10001726 	beq	r2,zero,2858 <__svfscanf_r+0x1568>
    27fc:	d8c09c17 	ldw	r3,624(sp)
    2800:	8029883a 	mov	r20,r16
    2804:	a021883a 	mov	r16,r20
    2808:	18800017 	ldw	r2,0(r3)
    280c:	18c00104 	addi	r3,r3,4
    2810:	d8c09c15 	stw	r3,624(sp)
    2814:	14400015 	stw	r17,0(r2)
    2818:	003af306 	br	13e8 <__alt_data_end+0xfe0013e8>
    281c:	d9c09c17 	ldw	r7,624(sp)
    2820:	180b883a 	mov	r5,r3
    2824:	a009883a 	mov	r4,r20
    2828:	3cc00017 	ldw	r19,0(r7)
    282c:	3c800104 	addi	r18,r7,4
    2830:	d8c0a615 	stw	r3,664(sp)
    2834:	00052780 	call	5278 <__fpclassifyd>
    2838:	d8c0a617 	ldw	r3,664(sp)
    283c:	10005d26 	beq	r2,zero,29b4 <__svfscanf_r+0x16c4>
    2840:	a009883a 	mov	r4,r20
    2844:	180b883a 	mov	r5,r3
    2848:	0011eb40 	call	11eb4 <__truncdfsf2>
    284c:	98800015 	stw	r2,0(r19)
    2850:	dc809c15 	stw	r18,624(sp)
    2854:	003c7306 	br	1a24 <__alt_data_end+0xfe001a24>
    2858:	9cc0008c 	andi	r19,r19,2
    285c:	98004a26 	beq	r19,zero,2988 <__svfscanf_r+0x1698>
    2860:	d9009c17 	ldw	r4,624(sp)
    2864:	8807d7fa 	srai	r3,r17,31
    2868:	8029883a 	mov	r20,r16
    286c:	20800017 	ldw	r2,0(r4)
    2870:	21000104 	addi	r4,r4,4
    2874:	d9009c15 	stw	r4,624(sp)
    2878:	14400015 	stw	r17,0(r2)
    287c:	10c00115 	stw	r3,4(r2)
    2880:	a021883a 	mov	r16,r20
    2884:	003ad806 	br	13e8 <__alt_data_end+0xfe0013e8>
    2888:	98c0004c 	andi	r3,r19,1
    288c:	1800381e 	bne	r3,zero,2970 <__svfscanf_r+0x1680>
    2890:	9cc0008c 	andi	r19,r19,2
    2894:	98003626 	beq	r19,zero,2970 <__svfscanf_r+0x1680>
    2898:	d880a017 	ldw	r2,640(sp)
    289c:	00c00034 	movhi	r3,0
    28a0:	18dcae04 	addi	r3,r3,29368
    28a4:	a809883a 	mov	r4,r21
    28a8:	d9400104 	addi	r5,sp,4
    28ac:	000d883a 	mov	r6,zero
    28b0:	d9c09e17 	ldw	r7,632(sp)
    28b4:	10c07c26 	beq	r2,r3,2aa8 <__svfscanf_r+0x17b8>
    28b8:	0006f880 	call	6f88 <_strtoll_r>
    28bc:	d9409c17 	ldw	r5,624(sp)
    28c0:	29000017 	ldw	r4,0(r5)
    28c4:	29400104 	addi	r5,r5,4
    28c8:	d9409c15 	stw	r5,624(sp)
    28cc:	20800015 	stw	r2,0(r4)
    28d0:	20c00115 	stw	r3,4(r4)
    28d4:	003f3c06 	br	25c8 <__alt_data_end+0xfe0025c8>
    28d8:	0003c840 	call	3c84 <__locale_mb_cur_max>
    28dc:	143ce126 	beq	r2,r16,1c64 <__alt_data_end+0xfe001c64>
    28e0:	e0800017 	ldw	r2,0(fp)
    28e4:	e1000117 	ldw	r4,4(fp)
    28e8:	d8c09d17 	ldw	r3,628(sp)
    28ec:	12000003 	ldbu	r8,0(r2)
    28f0:	213fffc4 	addi	r4,r4,-1
    28f4:	10800044 	addi	r2,r2,1
    28f8:	e1000115 	stw	r4,4(fp)
    28fc:	d9400104 	addi	r5,sp,4
    2900:	e0800015 	stw	r2,0(fp)
    2904:	85000044 	addi	r20,r16,1
    2908:	d8c00015 	stw	r3,0(sp)
    290c:	2c21883a 	add	r16,r5,r16
    2910:	a809883a 	mov	r4,r21
    2914:	900b883a 	mov	r5,r18
    2918:	d9800104 	addi	r6,sp,4
    291c:	a00f883a 	mov	r7,r20
    2920:	82000005 	stb	r8,0(r16)
    2924:	00044a00 	call	44a0 <_mbrtowc_r>
    2928:	013fffc4 	movi	r4,-1
    292c:	113ccd26 	beq	r2,r4,1c64 <__alt_data_end+0xfe001c64>
    2930:	1000251e 	bne	r2,zero,29c8 <__svfscanf_r+0x16d8>
    2934:	90000015 	stw	zero,0(r18)
    2938:	0009883a 	mov	r4,zero
    293c:	0003bd80 	call	3bd8 <iswspace>
    2940:	10002e26 	beq	r2,zero,29fc <__svfscanf_r+0x170c>
    2944:	dc00a117 	ldw	r16,644(sp)
    2948:	a03f3826 	beq	r20,zero,262c <__alt_data_end+0xfe00262c>
    294c:	a53fffc4 	addi	r20,r20,-1
    2950:	d9c00104 	addi	r7,sp,4
    2954:	3d05883a 	add	r2,r7,r20
    2958:	11400003 	ldbu	r5,0(r2)
    295c:	a809883a 	mov	r4,r21
    2960:	e00d883a 	mov	r6,fp
    2964:	00098300 	call	9830 <_ungetc_r>
    2968:	a03ff81e 	bne	r20,zero,294c <__alt_data_end+0xfe00294c>
    296c:	003f2f06 	br	262c <__alt_data_end+0xfe00262c>
    2970:	d9c09c17 	ldw	r7,624(sp)
    2974:	38c00017 	ldw	r3,0(r7)
    2978:	39c00104 	addi	r7,r7,4
    297c:	d9c09c15 	stw	r7,624(sp)
    2980:	18800015 	stw	r2,0(r3)
    2984:	003f1006 	br	25c8 <__alt_data_end+0xfe0025c8>
    2988:	d9409c17 	ldw	r5,624(sp)
    298c:	8029883a 	mov	r20,r16
    2990:	a021883a 	mov	r16,r20
    2994:	28800017 	ldw	r2,0(r5)
    2998:	29400104 	addi	r5,r5,4
    299c:	d9409c15 	stw	r5,624(sp)
    29a0:	14400015 	stw	r17,0(r2)
    29a4:	003a9006 	br	13e8 <__alt_data_end+0xfe0013e8>
    29a8:	dc00a217 	ldw	r16,648(sp)
    29ac:	a03d5f26 	beq	r20,zero,1f2c <__alt_data_end+0xfe001f2c>
    29b0:	003cac06 	br	1c64 <__alt_data_end+0xfe001c64>
    29b4:	0009883a 	mov	r4,zero
    29b8:	00054080 	call	5408 <nanf>
    29bc:	98800015 	stw	r2,0(r19)
    29c0:	dc809c15 	stw	r18,624(sp)
    29c4:	003c1706 	br	1a24 <__alt_data_end+0xfe001a24>
    29c8:	017fff84 	movi	r5,-2
    29cc:	1140111e 	bne	r2,r5,2a14 <__svfscanf_r+0x1724>
    29d0:	a021883a 	mov	r16,r20
    29d4:	e0800117 	ldw	r2,4(fp)
    29d8:	00bf0b16 	blt	zero,r2,2608 <__alt_data_end+0xfe002608>
    29dc:	a809883a 	mov	r4,r21
    29e0:	e00b883a 	mov	r5,fp
    29e4:	00050a00 	call	50a0 <__srefill_r>
    29e8:	103f0726 	beq	r2,zero,2608 <__alt_data_end+0xfe002608>
    29ec:	800d883a 	mov	r6,r16
    29f0:	dc00a117 	ldw	r16,644(sp)
    29f4:	303c9b1e 	bne	r6,zero,1c64 <__alt_data_end+0xfe001c64>
    29f8:	003f0c06 	br	262c <__alt_data_end+0xfe00262c>
    29fc:	8d23883a 	add	r17,r17,r20
    2a00:	bdffffc4 	addi	r23,r23,-1
    2a04:	9800051e 	bne	r19,zero,2a1c <__svfscanf_r+0x172c>
    2a08:	94800104 	addi	r18,r18,4
    2a0c:	0021883a 	mov	r16,zero
    2a10:	003ff006 	br	29d4 <__alt_data_end+0xfe0029d4>
    2a14:	91000017 	ldw	r4,0(r18)
    2a18:	003fc806 	br	293c <__alt_data_end+0xfe00293c>
    2a1c:	0021883a 	mov	r16,zero
    2a20:	003fec06 	br	29d4 <__alt_data_end+0xfe0029d4>
    2a24:	d8c00104 	addi	r3,sp,4
    2a28:	1cfa732e 	bgeu	r3,r19,13f8 <__alt_data_end+0xfe0013f8>
    2a2c:	9c3fffc4 	addi	r16,r19,-1
    2a30:	dc4000c4 	addi	r17,sp,3
    2a34:	81400007 	ldb	r5,0(r16)
    2a38:	a809883a 	mov	r4,r21
    2a3c:	843fffc4 	addi	r16,r16,-1
    2a40:	e00d883a 	mov	r6,fp
    2a44:	00098300 	call	9830 <_ungetc_r>
    2a48:	847ffa1e 	bne	r16,r17,2a34 <__alt_data_end+0xfe002a34>
    2a4c:	003a6a06 	br	13f8 <__alt_data_end+0xfe0013f8>
    2a50:	d9c00104 	addi	r7,sp,4
    2a54:	3cfa682e 	bgeu	r7,r19,13f8 <__alt_data_end+0xfe0013f8>
    2a58:	9c3fffc4 	addi	r16,r19,-1
    2a5c:	dc4000c4 	addi	r17,sp,3
    2a60:	81400007 	ldb	r5,0(r16)
    2a64:	a809883a 	mov	r4,r21
    2a68:	843fffc4 	addi	r16,r16,-1
    2a6c:	e00d883a 	mov	r6,fp
    2a70:	00098300 	call	9830 <_ungetc_r>
    2a74:	847ffa1e 	bne	r16,r17,2a60 <__alt_data_end+0xfe002a60>
    2a78:	003a5f06 	br	13f8 <__alt_data_end+0xfe0013f8>
    2a7c:	d8800104 	addi	r2,sp,4
    2a80:	14fa5d2e 	bgeu	r2,r19,13f8 <__alt_data_end+0xfe0013f8>
    2a84:	9c3fffc4 	addi	r16,r19,-1
    2a88:	dc4000c4 	addi	r17,sp,3
    2a8c:	81400007 	ldb	r5,0(r16)
    2a90:	a809883a 	mov	r4,r21
    2a94:	843fffc4 	addi	r16,r16,-1
    2a98:	e00d883a 	mov	r6,fp
    2a9c:	00098300 	call	9830 <_ungetc_r>
    2aa0:	847ffa1e 	bne	r16,r17,2a8c <__alt_data_end+0xfe002a8c>
    2aa4:	003a5406 	br	13f8 <__alt_data_end+0xfe0013f8>
    2aa8:	000751c0 	call	751c <_strtoull_r>
    2aac:	003f8306 	br	28bc <__alt_data_end+0xfe0028bc>

00002ab0 <vfscanf>:
    2ab0:	defffb04 	addi	sp,sp,-20
    2ab4:	dc000115 	stw	r16,4(sp)
    2ab8:	04000074 	movhi	r16,1
    2abc:	841bce04 	addi	r16,r16,28472
    2ac0:	80800017 	ldw	r2,0(r16)
    2ac4:	dc800315 	stw	r18,12(sp)
    2ac8:	dc400215 	stw	r17,8(sp)
    2acc:	dfc00415 	stw	ra,16(sp)
    2ad0:	2025883a 	mov	r18,r4
    2ad4:	2823883a 	mov	r17,r5
    2ad8:	300f883a 	mov	r7,r6
    2adc:	10000f26 	beq	r2,zero,2b1c <vfscanf+0x6c>
    2ae0:	10c00e17 	ldw	r3,56(r2)
    2ae4:	1009883a 	mov	r4,r2
    2ae8:	1800041e 	bne	r3,zero,2afc <vfscanf+0x4c>
    2aec:	d9800015 	stw	r6,0(sp)
    2af0:	0002c480 	call	2c48 <__sinit>
    2af4:	81000017 	ldw	r4,0(r16)
    2af8:	d9c00017 	ldw	r7,0(sp)
    2afc:	900b883a 	mov	r5,r18
    2b00:	880d883a 	mov	r6,r17
    2b04:	dfc00417 	ldw	ra,16(sp)
    2b08:	dc800317 	ldw	r18,12(sp)
    2b0c:	dc400217 	ldw	r17,8(sp)
    2b10:	dc000117 	ldw	r16,4(sp)
    2b14:	dec00504 	addi	sp,sp,20
    2b18:	00012f01 	jmpi	12f0 <__svfscanf_r>
    2b1c:	0009883a 	mov	r4,zero
    2b20:	900b883a 	mov	r5,r18
    2b24:	880d883a 	mov	r6,r17
    2b28:	dfc00417 	ldw	ra,16(sp)
    2b2c:	dc800317 	ldw	r18,12(sp)
    2b30:	dc400217 	ldw	r17,8(sp)
    2b34:	dc000117 	ldw	r16,4(sp)
    2b38:	dec00504 	addi	sp,sp,20
    2b3c:	00012f01 	jmpi	12f0 <__svfscanf_r>

00002b40 <__svfscanf>:
    2b40:	00800074 	movhi	r2,1
    2b44:	109bce04 	addi	r2,r2,28472
    2b48:	2007883a 	mov	r3,r4
    2b4c:	11000017 	ldw	r4,0(r2)
    2b50:	2805883a 	mov	r2,r5
    2b54:	300f883a 	mov	r7,r6
    2b58:	180b883a 	mov	r5,r3
    2b5c:	100d883a 	mov	r6,r2
    2b60:	00012f01 	jmpi	12f0 <__svfscanf_r>

00002b64 <_vfscanf_r>:
    2b64:	defffb04 	addi	sp,sp,-20
    2b68:	dc000315 	stw	r16,12(sp)
    2b6c:	dfc00415 	stw	ra,16(sp)
    2b70:	2021883a 	mov	r16,r4
    2b74:	20000926 	beq	r4,zero,2b9c <_vfscanf_r+0x38>
    2b78:	20800e17 	ldw	r2,56(r4)
    2b7c:	1000071e 	bne	r2,zero,2b9c <_vfscanf_r+0x38>
    2b80:	d9400015 	stw	r5,0(sp)
    2b84:	d9800115 	stw	r6,4(sp)
    2b88:	d9c00215 	stw	r7,8(sp)
    2b8c:	0002c480 	call	2c48 <__sinit>
    2b90:	d9c00217 	ldw	r7,8(sp)
    2b94:	d9800117 	ldw	r6,4(sp)
    2b98:	d9400017 	ldw	r5,0(sp)
    2b9c:	8009883a 	mov	r4,r16
    2ba0:	dfc00417 	ldw	ra,16(sp)
    2ba4:	dc000317 	ldw	r16,12(sp)
    2ba8:	dec00504 	addi	sp,sp,20
    2bac:	00012f01 	jmpi	12f0 <__svfscanf_r>

00002bb0 <__fp_lock>:
    2bb0:	0005883a 	mov	r2,zero
    2bb4:	f800283a 	ret

00002bb8 <__fp_unlock>:
    2bb8:	0005883a 	mov	r2,zero
    2bbc:	f800283a 	ret

00002bc0 <_cleanup_r>:
    2bc0:	01400074 	movhi	r5,1
    2bc4:	296d5404 	addi	r5,r5,-19120
    2bc8:	0003a781 	jmpi	3a78 <_fwalk>

00002bcc <__sfmoreglue>:
    2bcc:	defffc04 	addi	sp,sp,-16
    2bd0:	dc400115 	stw	r17,4(sp)
    2bd4:	2c401a24 	muli	r17,r5,104
    2bd8:	dc800215 	stw	r18,8(sp)
    2bdc:	2825883a 	mov	r18,r5
    2be0:	89400304 	addi	r5,r17,12
    2be4:	dc000015 	stw	r16,0(sp)
    2be8:	dfc00315 	stw	ra,12(sp)
    2bec:	0003cdc0 	call	3cdc <_malloc_r>
    2bf0:	1021883a 	mov	r16,r2
    2bf4:	10000726 	beq	r2,zero,2c14 <__sfmoreglue+0x48>
    2bf8:	11000304 	addi	r4,r2,12
    2bfc:	10000015 	stw	zero,0(r2)
    2c00:	14800115 	stw	r18,4(r2)
    2c04:	11000215 	stw	r4,8(r2)
    2c08:	000b883a 	mov	r5,zero
    2c0c:	880d883a 	mov	r6,r17
    2c10:	0004a0c0 	call	4a0c <memset>
    2c14:	8005883a 	mov	r2,r16
    2c18:	dfc00317 	ldw	ra,12(sp)
    2c1c:	dc800217 	ldw	r18,8(sp)
    2c20:	dc400117 	ldw	r17,4(sp)
    2c24:	dc000017 	ldw	r16,0(sp)
    2c28:	dec00404 	addi	sp,sp,16
    2c2c:	f800283a 	ret

00002c30 <_cleanup>:
    2c30:	00800074 	movhi	r2,1
    2c34:	109bcd04 	addi	r2,r2,28468
    2c38:	11000017 	ldw	r4,0(r2)
    2c3c:	01400074 	movhi	r5,1
    2c40:	296d5404 	addi	r5,r5,-19120
    2c44:	0003a781 	jmpi	3a78 <_fwalk>

00002c48 <__sinit>:
    2c48:	20800e17 	ldw	r2,56(r4)
    2c4c:	defff704 	addi	sp,sp,-36
    2c50:	dc800215 	stw	r18,8(sp)
    2c54:	dfc00815 	stw	ra,32(sp)
    2c58:	ddc00715 	stw	r23,28(sp)
    2c5c:	dd800615 	stw	r22,24(sp)
    2c60:	dd400515 	stw	r21,20(sp)
    2c64:	dd000415 	stw	r20,16(sp)
    2c68:	dcc00315 	stw	r19,12(sp)
    2c6c:	dc400115 	stw	r17,4(sp)
    2c70:	dc000015 	stw	r16,0(sp)
    2c74:	2025883a 	mov	r18,r4
    2c78:	10004f1e 	bne	r2,zero,2db8 <__sinit+0x170>
    2c7c:	24000117 	ldw	r16,4(r4)
    2c80:	00c00034 	movhi	r3,0
    2c84:	18caf004 	addi	r3,r3,11200
    2c88:	20c00f15 	stw	r3,60(r4)
    2c8c:	2080bb04 	addi	r2,r4,748
    2c90:	00c000c4 	movi	r3,3
    2c94:	05c00044 	movi	r23,1
    2c98:	20c0b915 	stw	r3,740(r4)
    2c9c:	2080ba15 	stw	r2,744(r4)
    2ca0:	25c00e15 	stw	r23,56(r4)
    2ca4:	2000b815 	stw	zero,736(r4)
    2ca8:	00800104 	movi	r2,4
    2cac:	81001704 	addi	r4,r16,92
    2cb0:	000b883a 	mov	r5,zero
    2cb4:	01800204 	movi	r6,8
    2cb8:	80000015 	stw	zero,0(r16)
    2cbc:	80000115 	stw	zero,4(r16)
    2cc0:	80000215 	stw	zero,8(r16)
    2cc4:	8080030d 	sth	r2,12(r16)
    2cc8:	80001915 	stw	zero,100(r16)
    2ccc:	8000038d 	sth	zero,14(r16)
    2cd0:	80000415 	stw	zero,16(r16)
    2cd4:	80000515 	stw	zero,20(r16)
    2cd8:	80000615 	stw	zero,24(r16)
    2cdc:	0004a0c0 	call	4a0c <memset>
    2ce0:	94400217 	ldw	r17,8(r18)
    2ce4:	05800034 	movhi	r22,0
    2ce8:	b5953504 	addi	r22,r22,21716
    2cec:	05400034 	movhi	r21,0
    2cf0:	ad554c04 	addi	r21,r21,21808
    2cf4:	05000034 	movhi	r20,0
    2cf8:	a5156b04 	addi	r20,r20,21932
    2cfc:	04c00034 	movhi	r19,0
    2d00:	9cd58204 	addi	r19,r19,22024
    2d04:	84000715 	stw	r16,28(r16)
    2d08:	85800815 	stw	r22,32(r16)
    2d0c:	85400915 	stw	r21,36(r16)
    2d10:	85000a15 	stw	r20,40(r16)
    2d14:	84c00b15 	stw	r19,44(r16)
    2d18:	00800284 	movi	r2,10
    2d1c:	89001704 	addi	r4,r17,92
    2d20:	000b883a 	mov	r5,zero
    2d24:	01800204 	movi	r6,8
    2d28:	88000015 	stw	zero,0(r17)
    2d2c:	88000115 	stw	zero,4(r17)
    2d30:	88000215 	stw	zero,8(r17)
    2d34:	8880030d 	sth	r2,12(r17)
    2d38:	88001915 	stw	zero,100(r17)
    2d3c:	8dc0038d 	sth	r23,14(r17)
    2d40:	88000415 	stw	zero,16(r17)
    2d44:	88000515 	stw	zero,20(r17)
    2d48:	88000615 	stw	zero,24(r17)
    2d4c:	0004a0c0 	call	4a0c <memset>
    2d50:	94000317 	ldw	r16,12(r18)
    2d54:	00800484 	movi	r2,18
    2d58:	8c400715 	stw	r17,28(r17)
    2d5c:	8d800815 	stw	r22,32(r17)
    2d60:	8d400915 	stw	r21,36(r17)
    2d64:	8d000a15 	stw	r20,40(r17)
    2d68:	8cc00b15 	stw	r19,44(r17)
    2d6c:	8080030d 	sth	r2,12(r16)
    2d70:	00800084 	movi	r2,2
    2d74:	80000015 	stw	zero,0(r16)
    2d78:	80000115 	stw	zero,4(r16)
    2d7c:	80000215 	stw	zero,8(r16)
    2d80:	80001915 	stw	zero,100(r16)
    2d84:	8080038d 	sth	r2,14(r16)
    2d88:	80000415 	stw	zero,16(r16)
    2d8c:	80000515 	stw	zero,20(r16)
    2d90:	80000615 	stw	zero,24(r16)
    2d94:	81001704 	addi	r4,r16,92
    2d98:	000b883a 	mov	r5,zero
    2d9c:	01800204 	movi	r6,8
    2da0:	0004a0c0 	call	4a0c <memset>
    2da4:	84000715 	stw	r16,28(r16)
    2da8:	85800815 	stw	r22,32(r16)
    2dac:	85400915 	stw	r21,36(r16)
    2db0:	85000a15 	stw	r20,40(r16)
    2db4:	84c00b15 	stw	r19,44(r16)
    2db8:	dfc00817 	ldw	ra,32(sp)
    2dbc:	ddc00717 	ldw	r23,28(sp)
    2dc0:	dd800617 	ldw	r22,24(sp)
    2dc4:	dd400517 	ldw	r21,20(sp)
    2dc8:	dd000417 	ldw	r20,16(sp)
    2dcc:	dcc00317 	ldw	r19,12(sp)
    2dd0:	dc800217 	ldw	r18,8(sp)
    2dd4:	dc400117 	ldw	r17,4(sp)
    2dd8:	dc000017 	ldw	r16,0(sp)
    2ddc:	dec00904 	addi	sp,sp,36
    2de0:	f800283a 	ret

00002de4 <__sfp>:
    2de4:	defffb04 	addi	sp,sp,-20
    2de8:	00800074 	movhi	r2,1
    2dec:	109bcd04 	addi	r2,r2,28468
    2df0:	dc800215 	stw	r18,8(sp)
    2df4:	14800017 	ldw	r18,0(r2)
    2df8:	dcc00315 	stw	r19,12(sp)
    2dfc:	dfc00415 	stw	ra,16(sp)
    2e00:	90800e17 	ldw	r2,56(r18)
    2e04:	dc400115 	stw	r17,4(sp)
    2e08:	dc000015 	stw	r16,0(sp)
    2e0c:	2027883a 	mov	r19,r4
    2e10:	10002f26 	beq	r2,zero,2ed0 <__sfp+0xec>
    2e14:	9480b804 	addi	r18,r18,736
    2e18:	047fffc4 	movi	r17,-1
    2e1c:	91400117 	ldw	r5,4(r18)
    2e20:	94000217 	ldw	r16,8(r18)
    2e24:	297fffc4 	addi	r5,r5,-1
    2e28:	28000a16 	blt	r5,zero,2e54 <__sfp+0x70>
    2e2c:	8080030f 	ldh	r2,12(r16)
    2e30:	10000c26 	beq	r2,zero,2e64 <__sfp+0x80>
    2e34:	80c01d04 	addi	r3,r16,116
    2e38:	00000206 	br	2e44 <__sfp+0x60>
    2e3c:	18bfe60f 	ldh	r2,-104(r3)
    2e40:	10000826 	beq	r2,zero,2e64 <__sfp+0x80>
    2e44:	297fffc4 	addi	r5,r5,-1
    2e48:	1c3ffd04 	addi	r16,r3,-12
    2e4c:	18c01a04 	addi	r3,r3,104
    2e50:	2c7ffa1e 	bne	r5,r17,2e3c <__alt_data_end+0xfe002e3c>
    2e54:	90800017 	ldw	r2,0(r18)
    2e58:	10002026 	beq	r2,zero,2edc <__sfp+0xf8>
    2e5c:	1025883a 	mov	r18,r2
    2e60:	003fee06 	br	2e1c <__alt_data_end+0xfe002e1c>
    2e64:	00bfffc4 	movi	r2,-1
    2e68:	8080038d 	sth	r2,14(r16)
    2e6c:	00800044 	movi	r2,1
    2e70:	8080030d 	sth	r2,12(r16)
    2e74:	80001915 	stw	zero,100(r16)
    2e78:	80000015 	stw	zero,0(r16)
    2e7c:	80000215 	stw	zero,8(r16)
    2e80:	80000115 	stw	zero,4(r16)
    2e84:	80000415 	stw	zero,16(r16)
    2e88:	80000515 	stw	zero,20(r16)
    2e8c:	80000615 	stw	zero,24(r16)
    2e90:	81001704 	addi	r4,r16,92
    2e94:	000b883a 	mov	r5,zero
    2e98:	01800204 	movi	r6,8
    2e9c:	0004a0c0 	call	4a0c <memset>
    2ea0:	8005883a 	mov	r2,r16
    2ea4:	80000c15 	stw	zero,48(r16)
    2ea8:	80000d15 	stw	zero,52(r16)
    2eac:	80001115 	stw	zero,68(r16)
    2eb0:	80001215 	stw	zero,72(r16)
    2eb4:	dfc00417 	ldw	ra,16(sp)
    2eb8:	dcc00317 	ldw	r19,12(sp)
    2ebc:	dc800217 	ldw	r18,8(sp)
    2ec0:	dc400117 	ldw	r17,4(sp)
    2ec4:	dc000017 	ldw	r16,0(sp)
    2ec8:	dec00504 	addi	sp,sp,20
    2ecc:	f800283a 	ret
    2ed0:	9009883a 	mov	r4,r18
    2ed4:	0002c480 	call	2c48 <__sinit>
    2ed8:	003fce06 	br	2e14 <__alt_data_end+0xfe002e14>
    2edc:	9809883a 	mov	r4,r19
    2ee0:	01400104 	movi	r5,4
    2ee4:	0002bcc0 	call	2bcc <__sfmoreglue>
    2ee8:	90800015 	stw	r2,0(r18)
    2eec:	103fdb1e 	bne	r2,zero,2e5c <__alt_data_end+0xfe002e5c>
    2ef0:	00800304 	movi	r2,12
    2ef4:	98800015 	stw	r2,0(r19)
    2ef8:	0005883a 	mov	r2,zero
    2efc:	003fed06 	br	2eb4 <__alt_data_end+0xfe002eb4>

00002f00 <__sfp_lock_acquire>:
    2f00:	f800283a 	ret

00002f04 <__sfp_lock_release>:
    2f04:	f800283a 	ret

00002f08 <__sinit_lock_acquire>:
    2f08:	f800283a 	ret

00002f0c <__sinit_lock_release>:
    2f0c:	f800283a 	ret

00002f10 <__fp_lock_all>:
    2f10:	00800074 	movhi	r2,1
    2f14:	109bce04 	addi	r2,r2,28472
    2f18:	11000017 	ldw	r4,0(r2)
    2f1c:	01400034 	movhi	r5,0
    2f20:	294aec04 	addi	r5,r5,11184
    2f24:	0003a781 	jmpi	3a78 <_fwalk>

00002f28 <__fp_unlock_all>:
    2f28:	00800074 	movhi	r2,1
    2f2c:	109bce04 	addi	r2,r2,28472
    2f30:	11000017 	ldw	r4,0(r2)
    2f34:	01400034 	movhi	r5,0
    2f38:	294aee04 	addi	r5,r5,11192
    2f3c:	0003a781 	jmpi	3a78 <_fwalk>

00002f40 <_fread_r>:
    2f40:	defff504 	addi	sp,sp,-44
    2f44:	dd400615 	stw	r21,24(sp)
    2f48:	39ab383a 	mul	r21,r7,r6
    2f4c:	ddc00815 	stw	r23,32(sp)
    2f50:	dd800715 	stw	r22,28(sp)
    2f54:	dc000115 	stw	r16,4(sp)
    2f58:	dfc00a15 	stw	ra,40(sp)
    2f5c:	df000915 	stw	fp,36(sp)
    2f60:	dd000515 	stw	r20,20(sp)
    2f64:	dcc00415 	stw	r19,16(sp)
    2f68:	dc800315 	stw	r18,12(sp)
    2f6c:	dc400215 	stw	r17,8(sp)
    2f70:	302f883a 	mov	r23,r6
    2f74:	382d883a 	mov	r22,r7
    2f78:	dc000b17 	ldw	r16,44(sp)
    2f7c:	a8003b26 	beq	r21,zero,306c <_fread_r+0x12c>
    2f80:	2029883a 	mov	r20,r4
    2f84:	2825883a 	mov	r18,r5
    2f88:	20000226 	beq	r4,zero,2f94 <_fread_r+0x54>
    2f8c:	20800e17 	ldw	r2,56(r4)
    2f90:	10007326 	beq	r2,zero,3160 <_fread_r+0x220>
    2f94:	0002f000 	call	2f00 <__sfp_lock_acquire>
    2f98:	8080030b 	ldhu	r2,12(r16)
    2f9c:	10c8000c 	andi	r3,r2,8192
    2fa0:	1800061e 	bne	r3,zero,2fbc <_fread_r+0x7c>
    2fa4:	81001917 	ldw	r4,100(r16)
    2fa8:	00f7ffc4 	movi	r3,-8193
    2fac:	10880014 	ori	r2,r2,8192
    2fb0:	20c6703a 	and	r3,r4,r3
    2fb4:	8080030d 	sth	r2,12(r16)
    2fb8:	80c01915 	stw	r3,100(r16)
    2fbc:	84400117 	ldw	r17,4(r16)
    2fc0:	88003116 	blt	r17,zero,3088 <_fread_r+0x148>
    2fc4:	1080008c 	andi	r2,r2,2
    2fc8:	8807883a 	mov	r3,r17
    2fcc:	1000331e 	bne	r2,zero,309c <_fread_r+0x15c>
    2fd0:	a827883a 	mov	r19,r21
    2fd4:	00000b06 	br	3004 <_fread_r+0xc4>
    2fd8:	00047c40 	call	47c4 <memcpy>
    2fdc:	80800017 	ldw	r2,0(r16)
    2fe0:	9465883a 	add	r18,r18,r17
    2fe4:	9c67c83a 	sub	r19,r19,r17
    2fe8:	1463883a 	add	r17,r2,r17
    2fec:	a009883a 	mov	r4,r20
    2ff0:	800b883a 	mov	r5,r16
    2ff4:	84400015 	stw	r17,0(r16)
    2ff8:	00050a00 	call	50a0 <__srefill_r>
    2ffc:	10001d1e 	bne	r2,zero,3074 <_fread_r+0x134>
    3000:	84400117 	ldw	r17,4(r16)
    3004:	9009883a 	mov	r4,r18
    3008:	880d883a 	mov	r6,r17
    300c:	81400017 	ldw	r5,0(r16)
    3010:	8cfff136 	bltu	r17,r19,2fd8 <__alt_data_end+0xfe002fd8>
    3014:	980d883a 	mov	r6,r19
    3018:	00047c40 	call	47c4 <memcpy>
    301c:	80800117 	ldw	r2,4(r16)
    3020:	80c00017 	ldw	r3,0(r16)
    3024:	14c5c83a 	sub	r2,r2,r19
    3028:	1ce7883a 	add	r19,r3,r19
    302c:	80800115 	stw	r2,4(r16)
    3030:	84c00015 	stw	r19,0(r16)
    3034:	0002f040 	call	2f04 <__sfp_lock_release>
    3038:	b005883a 	mov	r2,r22
    303c:	dfc00a17 	ldw	ra,40(sp)
    3040:	df000917 	ldw	fp,36(sp)
    3044:	ddc00817 	ldw	r23,32(sp)
    3048:	dd800717 	ldw	r22,28(sp)
    304c:	dd400617 	ldw	r21,24(sp)
    3050:	dd000517 	ldw	r20,20(sp)
    3054:	dcc00417 	ldw	r19,16(sp)
    3058:	dc800317 	ldw	r18,12(sp)
    305c:	dc400217 	ldw	r17,8(sp)
    3060:	dc000117 	ldw	r16,4(sp)
    3064:	dec00b04 	addi	sp,sp,44
    3068:	f800283a 	ret
    306c:	0005883a 	mov	r2,zero
    3070:	003ff206 	br	303c <__alt_data_end+0xfe00303c>
    3074:	0002f040 	call	2f04 <__sfp_lock_release>
    3078:	acc9c83a 	sub	r4,r21,r19
    307c:	b80b883a 	mov	r5,r23
    3080:	000f7b00 	call	f7b0 <__udivsi3>
    3084:	003fed06 	br	303c <__alt_data_end+0xfe00303c>
    3088:	80000115 	stw	zero,4(r16)
    308c:	1080008c 	andi	r2,r2,2
    3090:	0007883a 	mov	r3,zero
    3094:	0023883a 	mov	r17,zero
    3098:	103fcd26 	beq	r2,zero,2fd0 <__alt_data_end+0xfe002fd0>
    309c:	1823883a 	mov	r17,r3
    30a0:	a8c0012e 	bgeu	r21,r3,30a8 <_fread_r+0x168>
    30a4:	a823883a 	mov	r17,r21
    30a8:	81400017 	ldw	r5,0(r16)
    30ac:	9009883a 	mov	r4,r18
    30b0:	880d883a 	mov	r6,r17
    30b4:	00047c40 	call	47c4 <memcpy>
    30b8:	80800117 	ldw	r2,4(r16)
    30bc:	84c00017 	ldw	r19,0(r16)
    30c0:	81400c17 	ldw	r5,48(r16)
    30c4:	1445c83a 	sub	r2,r2,r17
    30c8:	9c67883a 	add	r19,r19,r17
    30cc:	84c00015 	stw	r19,0(r16)
    30d0:	80800115 	stw	r2,4(r16)
    30d4:	9465883a 	add	r18,r18,r17
    30d8:	ac63c83a 	sub	r17,r21,r17
    30dc:	28002626 	beq	r5,zero,3178 <_fread_r+0x238>
    30e0:	883fd426 	beq	r17,zero,3034 <__alt_data_end+0xfe003034>
    30e4:	80801004 	addi	r2,r16,64
    30e8:	28800326 	beq	r5,r2,30f8 <_fread_r+0x1b8>
    30ec:	a009883a 	mov	r4,r20
    30f0:	00032fc0 	call	32fc <_free_r>
    30f4:	84c00017 	ldw	r19,0(r16)
    30f8:	80000c15 	stw	zero,48(r16)
    30fc:	80c00417 	ldw	r3,16(r16)
    3100:	87000517 	ldw	fp,20(r16)
    3104:	d8c00015 	stw	r3,0(sp)
    3108:	00000106 	br	3110 <_fread_r+0x1d0>
    310c:	883fc926 	beq	r17,zero,3034 <__alt_data_end+0xfe003034>
    3110:	84800415 	stw	r18,16(r16)
    3114:	84400515 	stw	r17,20(r16)
    3118:	84800015 	stw	r18,0(r16)
    311c:	a009883a 	mov	r4,r20
    3120:	800b883a 	mov	r5,r16
    3124:	00050a00 	call	50a0 <__srefill_r>
    3128:	d8c00017 	ldw	r3,0(sp)
    312c:	81000117 	ldw	r4,4(r16)
    3130:	87000515 	stw	fp,20(r16)
    3134:	80c00415 	stw	r3,16(r16)
    3138:	84c00015 	stw	r19,0(r16)
    313c:	80000115 	stw	zero,4(r16)
    3140:	8923c83a 	sub	r17,r17,r4
    3144:	9125883a 	add	r18,r18,r4
    3148:	103ff026 	beq	r2,zero,310c <__alt_data_end+0xfe00310c>
    314c:	0002f040 	call	2f04 <__sfp_lock_release>
    3150:	ac49c83a 	sub	r4,r21,r17
    3154:	b80b883a 	mov	r5,r23
    3158:	000f7b00 	call	f7b0 <__udivsi3>
    315c:	003fb706 	br	303c <__alt_data_end+0xfe00303c>
    3160:	0002c480 	call	2c48 <__sinit>
    3164:	0002f000 	call	2f00 <__sfp_lock_acquire>
    3168:	8080030b 	ldhu	r2,12(r16)
    316c:	10c8000c 	andi	r3,r2,8192
    3170:	183f921e 	bne	r3,zero,2fbc <__alt_data_end+0xfe002fbc>
    3174:	003f8b06 	br	2fa4 <__alt_data_end+0xfe002fa4>
    3178:	883fe01e 	bne	r17,zero,30fc <__alt_data_end+0xfe0030fc>
    317c:	003fad06 	br	3034 <__alt_data_end+0xfe003034>

00003180 <fread>:
    3180:	00800074 	movhi	r2,1
    3184:	109bce04 	addi	r2,r2,28472
    3188:	2011883a 	mov	r8,r4
    318c:	11000017 	ldw	r4,0(r2)
    3190:	defffe04 	addi	sp,sp,-8
    3194:	2807883a 	mov	r3,r5
    3198:	3005883a 	mov	r2,r6
    319c:	d9c00015 	stw	r7,0(sp)
    31a0:	400b883a 	mov	r5,r8
    31a4:	180d883a 	mov	r6,r3
    31a8:	100f883a 	mov	r7,r2
    31ac:	dfc00115 	stw	ra,4(sp)
    31b0:	0002f400 	call	2f40 <_fread_r>
    31b4:	dfc00117 	ldw	ra,4(sp)
    31b8:	dec00204 	addi	sp,sp,8
    31bc:	f800283a 	ret

000031c0 <_malloc_trim_r>:
    31c0:	defffb04 	addi	sp,sp,-20
    31c4:	dcc00315 	stw	r19,12(sp)
    31c8:	dc800215 	stw	r18,8(sp)
    31cc:	dc400115 	stw	r17,4(sp)
    31d0:	dc000015 	stw	r16,0(sp)
    31d4:	2827883a 	mov	r19,r5
    31d8:	dfc00415 	stw	ra,16(sp)
    31dc:	04400074 	movhi	r17,1
    31e0:	8c563504 	addi	r17,r17,22740
    31e4:	2021883a 	mov	r16,r4
    31e8:	00126c80 	call	126c8 <__malloc_lock>
    31ec:	88800217 	ldw	r2,8(r17)
    31f0:	14800117 	ldw	r18,4(r2)
    31f4:	00bfff04 	movi	r2,-4
    31f8:	90a4703a 	and	r18,r18,r2
    31fc:	94e7c83a 	sub	r19,r18,r19
    3200:	9cc3fbc4 	addi	r19,r19,4079
    3204:	9826d33a 	srli	r19,r19,12
    3208:	0083ffc4 	movi	r2,4095
    320c:	9cffffc4 	addi	r19,r19,-1
    3210:	9826933a 	slli	r19,r19,12
    3214:	14c0060e 	bge	r2,r19,3230 <_malloc_trim_r+0x70>
    3218:	8009883a 	mov	r4,r16
    321c:	000b883a 	mov	r5,zero
    3220:	00052e00 	call	52e0 <_sbrk_r>
    3224:	88c00217 	ldw	r3,8(r17)
    3228:	1c87883a 	add	r3,r3,r18
    322c:	10c00a26 	beq	r2,r3,3258 <_malloc_trim_r+0x98>
    3230:	8009883a 	mov	r4,r16
    3234:	00126e80 	call	126e8 <__malloc_unlock>
    3238:	0005883a 	mov	r2,zero
    323c:	dfc00417 	ldw	ra,16(sp)
    3240:	dcc00317 	ldw	r19,12(sp)
    3244:	dc800217 	ldw	r18,8(sp)
    3248:	dc400117 	ldw	r17,4(sp)
    324c:	dc000017 	ldw	r16,0(sp)
    3250:	dec00504 	addi	sp,sp,20
    3254:	f800283a 	ret
    3258:	8009883a 	mov	r4,r16
    325c:	04cbc83a 	sub	r5,zero,r19
    3260:	00052e00 	call	52e0 <_sbrk_r>
    3264:	00ffffc4 	movi	r3,-1
    3268:	10c01326 	beq	r2,r3,32b8 <_malloc_trim_r+0xf8>
    326c:	008000b4 	movhi	r2,2
    3270:	10a2df04 	addi	r2,r2,-29828
    3274:	11000017 	ldw	r4,0(r2)
    3278:	88c00217 	ldw	r3,8(r17)
    327c:	94e5c83a 	sub	r18,r18,r19
    3280:	94800054 	ori	r18,r18,1
    3284:	24e7c83a 	sub	r19,r4,r19
    3288:	1c800115 	stw	r18,4(r3)
    328c:	8009883a 	mov	r4,r16
    3290:	14c00015 	stw	r19,0(r2)
    3294:	00126e80 	call	126e8 <__malloc_unlock>
    3298:	00800044 	movi	r2,1
    329c:	dfc00417 	ldw	ra,16(sp)
    32a0:	dcc00317 	ldw	r19,12(sp)
    32a4:	dc800217 	ldw	r18,8(sp)
    32a8:	dc400117 	ldw	r17,4(sp)
    32ac:	dc000017 	ldw	r16,0(sp)
    32b0:	dec00504 	addi	sp,sp,20
    32b4:	f800283a 	ret
    32b8:	8009883a 	mov	r4,r16
    32bc:	000b883a 	mov	r5,zero
    32c0:	00052e00 	call	52e0 <_sbrk_r>
    32c4:	88c00217 	ldw	r3,8(r17)
    32c8:	014003c4 	movi	r5,15
    32cc:	10c9c83a 	sub	r4,r2,r3
    32d0:	293fd70e 	bge	r5,r4,3230 <__alt_data_end+0xfe003230>
    32d4:	01400074 	movhi	r5,1
    32d8:	295bd104 	addi	r5,r5,28484
    32dc:	29400017 	ldw	r5,0(r5)
    32e0:	21000054 	ori	r4,r4,1
    32e4:	19000115 	stw	r4,4(r3)
    32e8:	1145c83a 	sub	r2,r2,r5
    32ec:	014000b4 	movhi	r5,2
    32f0:	2962df04 	addi	r5,r5,-29828
    32f4:	28800015 	stw	r2,0(r5)
    32f8:	003fcd06 	br	3230 <__alt_data_end+0xfe003230>

000032fc <_free_r>:
    32fc:	defffd04 	addi	sp,sp,-12
    3300:	dc000015 	stw	r16,0(sp)
    3304:	dfc00215 	stw	ra,8(sp)
    3308:	dc400115 	stw	r17,4(sp)
    330c:	2821883a 	mov	r16,r5
    3310:	28004c26 	beq	r5,zero,3444 <_free_r+0x148>
    3314:	2023883a 	mov	r17,r4
    3318:	00126c80 	call	126c8 <__malloc_lock>
    331c:	823fff17 	ldw	r8,-4(r16)
    3320:	00bfff84 	movi	r2,-2
    3324:	81bffe04 	addi	r6,r16,-8
    3328:	4084703a 	and	r2,r8,r2
    332c:	3087883a 	add	r3,r6,r2
    3330:	01400074 	movhi	r5,1
    3334:	29563504 	addi	r5,r5,22740
    3338:	1a400117 	ldw	r9,4(r3)
    333c:	29000217 	ldw	r4,8(r5)
    3340:	01ffff04 	movi	r7,-4
    3344:	49ce703a 	and	r7,r9,r7
    3348:	20c06526 	beq	r4,r3,34e0 <_free_r+0x1e4>
    334c:	19c00115 	stw	r7,4(r3)
    3350:	4200004c 	andi	r8,r8,1
    3354:	40003026 	beq	r8,zero,3418 <_free_r+0x11c>
    3358:	0009883a 	mov	r4,zero
    335c:	19d1883a 	add	r8,r3,r7
    3360:	42000117 	ldw	r8,4(r8)
    3364:	4200004c 	andi	r8,r8,1
    3368:	4000061e 	bne	r8,zero,3384 <_free_r+0x88>
    336c:	11c5883a 	add	r2,r2,r7
    3370:	19c00217 	ldw	r7,8(r3)
    3374:	20004e26 	beq	r4,zero,34b0 <_free_r+0x1b4>
    3378:	18c00317 	ldw	r3,12(r3)
    337c:	38c00315 	stw	r3,12(r7)
    3380:	19c00215 	stw	r7,8(r3)
    3384:	10c00054 	ori	r3,r2,1
    3388:	30c00115 	stw	r3,4(r6)
    338c:	3087883a 	add	r3,r6,r2
    3390:	18800015 	stw	r2,0(r3)
    3394:	20001a1e 	bne	r4,zero,3400 <_free_r+0x104>
    3398:	00c07fc4 	movi	r3,511
    339c:	18802e2e 	bgeu	r3,r2,3458 <_free_r+0x15c>
    33a0:	1006d27a 	srli	r3,r2,9
    33a4:	01000104 	movi	r4,4
    33a8:	20c06636 	bltu	r4,r3,3544 <_free_r+0x248>
    33ac:	1008d1ba 	srli	r4,r2,6
    33b0:	21000e04 	addi	r4,r4,56
    33b4:	210f883a 	add	r7,r4,r4
    33b8:	39cf883a 	add	r7,r7,r7
    33bc:	39cf883a 	add	r7,r7,r7
    33c0:	29cf883a 	add	r7,r5,r7
    33c4:	38c00217 	ldw	r3,8(r7)
    33c8:	01400074 	movhi	r5,1
    33cc:	29563504 	addi	r5,r5,22740
    33d0:	19c06126 	beq	r3,r7,3558 <_free_r+0x25c>
    33d4:	013fff04 	movi	r4,-4
    33d8:	19400117 	ldw	r5,4(r3)
    33dc:	290a703a 	and	r5,r5,r4
    33e0:	1140022e 	bgeu	r2,r5,33ec <_free_r+0xf0>
    33e4:	18c00217 	ldw	r3,8(r3)
    33e8:	38fffb1e 	bne	r7,r3,33d8 <__alt_data_end+0xfe0033d8>
    33ec:	18800317 	ldw	r2,12(r3)
    33f0:	30800315 	stw	r2,12(r6)
    33f4:	30c00215 	stw	r3,8(r6)
    33f8:	11800215 	stw	r6,8(r2)
    33fc:	19800315 	stw	r6,12(r3)
    3400:	8809883a 	mov	r4,r17
    3404:	dfc00217 	ldw	ra,8(sp)
    3408:	dc400117 	ldw	r17,4(sp)
    340c:	dc000017 	ldw	r16,0(sp)
    3410:	dec00304 	addi	sp,sp,12
    3414:	00126e81 	jmpi	126e8 <__malloc_unlock>
    3418:	813ffe17 	ldw	r4,-8(r16)
    341c:	2a400204 	addi	r9,r5,8
    3420:	310dc83a 	sub	r6,r6,r4
    3424:	32000217 	ldw	r8,8(r6)
    3428:	1105883a 	add	r2,r2,r4
    342c:	42404326 	beq	r8,r9,353c <_free_r+0x240>
    3430:	32400317 	ldw	r9,12(r6)
    3434:	0009883a 	mov	r4,zero
    3438:	42400315 	stw	r9,12(r8)
    343c:	4a000215 	stw	r8,8(r9)
    3440:	003fc606 	br	335c <__alt_data_end+0xfe00335c>
    3444:	dfc00217 	ldw	ra,8(sp)
    3448:	dc400117 	ldw	r17,4(sp)
    344c:	dc000017 	ldw	r16,0(sp)
    3450:	dec00304 	addi	sp,sp,12
    3454:	f800283a 	ret
    3458:	1004d0fa 	srli	r2,r2,3
    345c:	02000044 	movi	r8,1
    3460:	29c00117 	ldw	r7,4(r5)
    3464:	1087883a 	add	r3,r2,r2
    3468:	18c7883a 	add	r3,r3,r3
    346c:	18c7883a 	add	r3,r3,r3
    3470:	28c7883a 	add	r3,r5,r3
    3474:	1005d0ba 	srai	r2,r2,2
    3478:	19000217 	ldw	r4,8(r3)
    347c:	30c00315 	stw	r3,12(r6)
    3480:	4084983a 	sll	r2,r8,r2
    3484:	31000215 	stw	r4,8(r6)
    3488:	19800215 	stw	r6,8(r3)
    348c:	11c4b03a 	or	r2,r2,r7
    3490:	21800315 	stw	r6,12(r4)
    3494:	8809883a 	mov	r4,r17
    3498:	28800115 	stw	r2,4(r5)
    349c:	dfc00217 	ldw	ra,8(sp)
    34a0:	dc400117 	ldw	r17,4(sp)
    34a4:	dc000017 	ldw	r16,0(sp)
    34a8:	dec00304 	addi	sp,sp,12
    34ac:	00126e81 	jmpi	126e8 <__malloc_unlock>
    34b0:	02000074 	movhi	r8,1
    34b4:	42163704 	addi	r8,r8,22748
    34b8:	3a3faf1e 	bne	r7,r8,3378 <__alt_data_end+0xfe003378>
    34bc:	29800515 	stw	r6,20(r5)
    34c0:	29800415 	stw	r6,16(r5)
    34c4:	10c00054 	ori	r3,r2,1
    34c8:	31c00315 	stw	r7,12(r6)
    34cc:	31c00215 	stw	r7,8(r6)
    34d0:	30c00115 	stw	r3,4(r6)
    34d4:	308d883a 	add	r6,r6,r2
    34d8:	30800015 	stw	r2,0(r6)
    34dc:	003fc806 	br	3400 <__alt_data_end+0xfe003400>
    34e0:	4200004c 	andi	r8,r8,1
    34e4:	3885883a 	add	r2,r7,r2
    34e8:	4000071e 	bne	r8,zero,3508 <_free_r+0x20c>
    34ec:	81fffe17 	ldw	r7,-8(r16)
    34f0:	31cdc83a 	sub	r6,r6,r7
    34f4:	30c00317 	ldw	r3,12(r6)
    34f8:	31000217 	ldw	r4,8(r6)
    34fc:	11c5883a 	add	r2,r2,r7
    3500:	20c00315 	stw	r3,12(r4)
    3504:	19000215 	stw	r4,8(r3)
    3508:	00c00074 	movhi	r3,1
    350c:	18dbd204 	addi	r3,r3,28488
    3510:	11000054 	ori	r4,r2,1
    3514:	18c00017 	ldw	r3,0(r3)
    3518:	31000115 	stw	r4,4(r6)
    351c:	29800215 	stw	r6,8(r5)
    3520:	10ffb736 	bltu	r2,r3,3400 <__alt_data_end+0xfe003400>
    3524:	008000b4 	movhi	r2,2
    3528:	10a2d704 	addi	r2,r2,-29860
    352c:	11400017 	ldw	r5,0(r2)
    3530:	8809883a 	mov	r4,r17
    3534:	00031c00 	call	31c0 <_malloc_trim_r>
    3538:	003fb106 	br	3400 <__alt_data_end+0xfe003400>
    353c:	01000044 	movi	r4,1
    3540:	003f8606 	br	335c <__alt_data_end+0xfe00335c>
    3544:	01000504 	movi	r4,20
    3548:	20c00b36 	bltu	r4,r3,3578 <_free_r+0x27c>
    354c:	190016c4 	addi	r4,r3,91
    3550:	210f883a 	add	r7,r4,r4
    3554:	003f9806 	br	33b8 <__alt_data_end+0xfe0033b8>
    3558:	2009d0ba 	srai	r4,r4,2
    355c:	00800044 	movi	r2,1
    3560:	29c00117 	ldw	r7,4(r5)
    3564:	1108983a 	sll	r4,r2,r4
    3568:	1805883a 	mov	r2,r3
    356c:	21c8b03a 	or	r4,r4,r7
    3570:	29000115 	stw	r4,4(r5)
    3574:	003f9e06 	br	33f0 <__alt_data_end+0xfe0033f0>
    3578:	01001504 	movi	r4,84
    357c:	20c00436 	bltu	r4,r3,3590 <_free_r+0x294>
    3580:	1008d33a 	srli	r4,r2,12
    3584:	21001b84 	addi	r4,r4,110
    3588:	210f883a 	add	r7,r4,r4
    358c:	003f8a06 	br	33b8 <__alt_data_end+0xfe0033b8>
    3590:	01005504 	movi	r4,340
    3594:	20c00436 	bltu	r4,r3,35a8 <_free_r+0x2ac>
    3598:	1008d3fa 	srli	r4,r2,15
    359c:	21001dc4 	addi	r4,r4,119
    35a0:	210f883a 	add	r7,r4,r4
    35a4:	003f8406 	br	33b8 <__alt_data_end+0xfe0033b8>
    35a8:	01015504 	movi	r4,1364
    35ac:	20c00436 	bltu	r4,r3,35c0 <_free_r+0x2c4>
    35b0:	1008d4ba 	srli	r4,r2,18
    35b4:	21001f04 	addi	r4,r4,124
    35b8:	210f883a 	add	r7,r4,r4
    35bc:	003f7e06 	br	33b8 <__alt_data_end+0xfe0033b8>
    35c0:	01c03f04 	movi	r7,252
    35c4:	01001f84 	movi	r4,126
    35c8:	003f7b06 	br	33b8 <__alt_data_end+0xfe0033b8>

000035cc <__sfvwrite_r>:
    35cc:	30800217 	ldw	r2,8(r6)
    35d0:	defff404 	addi	sp,sp,-48
    35d4:	dcc00515 	stw	r19,20(sp)
    35d8:	dfc00b15 	stw	ra,44(sp)
    35dc:	df000a15 	stw	fp,40(sp)
    35e0:	ddc00915 	stw	r23,36(sp)
    35e4:	dd800815 	stw	r22,32(sp)
    35e8:	dd400715 	stw	r21,28(sp)
    35ec:	dd000615 	stw	r20,24(sp)
    35f0:	dc800415 	stw	r18,16(sp)
    35f4:	dc400315 	stw	r17,12(sp)
    35f8:	dc000215 	stw	r16,8(sp)
    35fc:	3027883a 	mov	r19,r6
    3600:	10001d26 	beq	r2,zero,3678 <__sfvwrite_r+0xac>
    3604:	2880030b 	ldhu	r2,12(r5)
    3608:	202b883a 	mov	r21,r4
    360c:	2821883a 	mov	r16,r5
    3610:	10c0020c 	andi	r3,r2,8
    3614:	18002526 	beq	r3,zero,36ac <__sfvwrite_r+0xe0>
    3618:	28c00417 	ldw	r3,16(r5)
    361c:	18002326 	beq	r3,zero,36ac <__sfvwrite_r+0xe0>
    3620:	10c0008c 	andi	r3,r2,2
    3624:	9c400017 	ldw	r17,0(r19)
    3628:	18002826 	beq	r3,zero,36cc <__sfvwrite_r+0x100>
    362c:	0029883a 	mov	r20,zero
    3630:	0025883a 	mov	r18,zero
    3634:	05810004 	movi	r22,1024
    3638:	a00d883a 	mov	r6,r20
    363c:	a809883a 	mov	r4,r21
    3640:	90004726 	beq	r18,zero,3760 <__sfvwrite_r+0x194>
    3644:	900f883a 	mov	r7,r18
    3648:	81400717 	ldw	r5,28(r16)
    364c:	b480012e 	bgeu	r22,r18,3654 <__sfvwrite_r+0x88>
    3650:	01c10004 	movi	r7,1024
    3654:	80800917 	ldw	r2,36(r16)
    3658:	103ee83a 	callr	r2
    365c:	00804c0e 	bge	zero,r2,3790 <__sfvwrite_r+0x1c4>
    3660:	98c00217 	ldw	r3,8(r19)
    3664:	a0a9883a 	add	r20,r20,r2
    3668:	90a5c83a 	sub	r18,r18,r2
    366c:	1885c83a 	sub	r2,r3,r2
    3670:	98800215 	stw	r2,8(r19)
    3674:	103ff01e 	bne	r2,zero,3638 <__alt_data_end+0xfe003638>
    3678:	0005883a 	mov	r2,zero
    367c:	dfc00b17 	ldw	ra,44(sp)
    3680:	df000a17 	ldw	fp,40(sp)
    3684:	ddc00917 	ldw	r23,36(sp)
    3688:	dd800817 	ldw	r22,32(sp)
    368c:	dd400717 	ldw	r21,28(sp)
    3690:	dd000617 	ldw	r20,24(sp)
    3694:	dcc00517 	ldw	r19,20(sp)
    3698:	dc800417 	ldw	r18,16(sp)
    369c:	dc400317 	ldw	r17,12(sp)
    36a0:	dc000217 	ldw	r16,8(sp)
    36a4:	dec00c04 	addi	sp,sp,48
    36a8:	f800283a 	ret
    36ac:	a809883a 	mov	r4,r21
    36b0:	800b883a 	mov	r5,r16
    36b4:	0009a4c0 	call	9a4c <__swsetup_r>
    36b8:	1000e81e 	bne	r2,zero,3a5c <__sfvwrite_r+0x490>
    36bc:	8080030b 	ldhu	r2,12(r16)
    36c0:	9c400017 	ldw	r17,0(r19)
    36c4:	10c0008c 	andi	r3,r2,2
    36c8:	183fd81e 	bne	r3,zero,362c <__alt_data_end+0xfe00362c>
    36cc:	10c0004c 	andi	r3,r2,1
    36d0:	002d883a 	mov	r22,zero
    36d4:	1800331e 	bne	r3,zero,37a4 <__sfvwrite_r+0x1d8>
    36d8:	0025883a 	mov	r18,zero
    36dc:	90001c26 	beq	r18,zero,3750 <__sfvwrite_r+0x184>
    36e0:	10c0800c 	andi	r3,r2,512
    36e4:	85000217 	ldw	r20,8(r16)
    36e8:	18006f26 	beq	r3,zero,38a8 <__sfvwrite_r+0x2dc>
    36ec:	95008936 	bltu	r18,r20,3914 <__sfvwrite_r+0x348>
    36f0:	10c1200c 	andi	r3,r2,1152
    36f4:	1800a11e 	bne	r3,zero,397c <__sfvwrite_r+0x3b0>
    36f8:	81000017 	ldw	r4,0(r16)
    36fc:	a02f883a 	mov	r23,r20
    3700:	a039883a 	mov	fp,r20
    3704:	9029883a 	mov	r20,r18
    3708:	b00b883a 	mov	r5,r22
    370c:	b80d883a 	mov	r6,r23
    3710:	00048d00 	call	48d0 <memmove>
    3714:	81400217 	ldw	r5,8(r16)
    3718:	81000017 	ldw	r4,0(r16)
    371c:	9005883a 	mov	r2,r18
    3720:	2f39c83a 	sub	fp,r5,fp
    3724:	25c7883a 	add	r3,r4,r23
    3728:	87000215 	stw	fp,8(r16)
    372c:	80c00015 	stw	r3,0(r16)
    3730:	98c00217 	ldw	r3,8(r19)
    3734:	b0ad883a 	add	r22,r22,r2
    3738:	90a5c83a 	sub	r18,r18,r2
    373c:	1d29c83a 	sub	r20,r3,r20
    3740:	9d000215 	stw	r20,8(r19)
    3744:	a03fcc26 	beq	r20,zero,3678 <__alt_data_end+0xfe003678>
    3748:	8080030b 	ldhu	r2,12(r16)
    374c:	903fe41e 	bne	r18,zero,36e0 <__alt_data_end+0xfe0036e0>
    3750:	8d800017 	ldw	r22,0(r17)
    3754:	8c800117 	ldw	r18,4(r17)
    3758:	8c400204 	addi	r17,r17,8
    375c:	003fdf06 	br	36dc <__alt_data_end+0xfe0036dc>
    3760:	8d000017 	ldw	r20,0(r17)
    3764:	8c800117 	ldw	r18,4(r17)
    3768:	8c400204 	addi	r17,r17,8
    376c:	003fb206 	br	3638 <__alt_data_end+0xfe003638>
    3770:	0004b200 	call	4b20 <_realloc_r>
    3774:	1039883a 	mov	fp,r2
    3778:	10009d1e 	bne	r2,zero,39f0 <__sfvwrite_r+0x424>
    377c:	81400417 	ldw	r5,16(r16)
    3780:	a809883a 	mov	r4,r21
    3784:	00032fc0 	call	32fc <_free_r>
    3788:	00800304 	movi	r2,12
    378c:	a8800015 	stw	r2,0(r21)
    3790:	80c0030b 	ldhu	r3,12(r16)
    3794:	00bfffc4 	movi	r2,-1
    3798:	18c01014 	ori	r3,r3,64
    379c:	80c0030d 	sth	r3,12(r16)
    37a0:	003fb606 	br	367c <__alt_data_end+0xfe00367c>
    37a4:	0007883a 	mov	r3,zero
    37a8:	0039883a 	mov	fp,zero
    37ac:	0025883a 	mov	r18,zero
    37b0:	90001f26 	beq	r18,zero,3830 <__sfvwrite_r+0x264>
    37b4:	18006826 	beq	r3,zero,3958 <__sfvwrite_r+0x38c>
    37b8:	b02f883a 	mov	r23,r22
    37bc:	9580012e 	bgeu	r18,r22,37c4 <__sfvwrite_r+0x1f8>
    37c0:	902f883a 	mov	r23,r18
    37c4:	81000017 	ldw	r4,0(r16)
    37c8:	80800417 	ldw	r2,16(r16)
    37cc:	b829883a 	mov	r20,r23
    37d0:	81800217 	ldw	r6,8(r16)
    37d4:	81c00517 	ldw	r7,20(r16)
    37d8:	1100022e 	bgeu	r2,r4,37e4 <__sfvwrite_r+0x218>
    37dc:	31d1883a 	add	r8,r6,r7
    37e0:	45c01816 	blt	r8,r23,3844 <__sfvwrite_r+0x278>
    37e4:	b9c03f16 	blt	r23,r7,38e4 <__sfvwrite_r+0x318>
    37e8:	80800917 	ldw	r2,36(r16)
    37ec:	81400717 	ldw	r5,28(r16)
    37f0:	a809883a 	mov	r4,r21
    37f4:	d8c00115 	stw	r3,4(sp)
    37f8:	e00d883a 	mov	r6,fp
    37fc:	103ee83a 	callr	r2
    3800:	1029883a 	mov	r20,r2
    3804:	d8c00117 	ldw	r3,4(sp)
    3808:	00bfe10e 	bge	zero,r2,3790 <__alt_data_end+0xfe003790>
    380c:	b52dc83a 	sub	r22,r22,r20
    3810:	b0001f26 	beq	r22,zero,3890 <__sfvwrite_r+0x2c4>
    3814:	98800217 	ldw	r2,8(r19)
    3818:	e539883a 	add	fp,fp,r20
    381c:	9525c83a 	sub	r18,r18,r20
    3820:	1529c83a 	sub	r20,r2,r20
    3824:	9d000215 	stw	r20,8(r19)
    3828:	a03f9326 	beq	r20,zero,3678 <__alt_data_end+0xfe003678>
    382c:	903fe11e 	bne	r18,zero,37b4 <__alt_data_end+0xfe0037b4>
    3830:	8f000017 	ldw	fp,0(r17)
    3834:	8c800117 	ldw	r18,4(r17)
    3838:	0007883a 	mov	r3,zero
    383c:	8c400204 	addi	r17,r17,8
    3840:	003fdb06 	br	37b0 <__alt_data_end+0xfe0037b0>
    3844:	400d883a 	mov	r6,r8
    3848:	e00b883a 	mov	r5,fp
    384c:	d8c00115 	stw	r3,4(sp)
    3850:	da000015 	stw	r8,0(sp)
    3854:	00048d00 	call	48d0 <memmove>
    3858:	da000017 	ldw	r8,0(sp)
    385c:	80800017 	ldw	r2,0(r16)
    3860:	a809883a 	mov	r4,r21
    3864:	800b883a 	mov	r5,r16
    3868:	1205883a 	add	r2,r2,r8
    386c:	80800015 	stw	r2,0(r16)
    3870:	da000015 	stw	r8,0(sp)
    3874:	000b5640 	call	b564 <_fflush_r>
    3878:	d8c00117 	ldw	r3,4(sp)
    387c:	da000017 	ldw	r8,0(sp)
    3880:	103fc31e 	bne	r2,zero,3790 <__alt_data_end+0xfe003790>
    3884:	4029883a 	mov	r20,r8
    3888:	b52dc83a 	sub	r22,r22,r20
    388c:	b03fe11e 	bne	r22,zero,3814 <__alt_data_end+0xfe003814>
    3890:	a809883a 	mov	r4,r21
    3894:	800b883a 	mov	r5,r16
    3898:	000b5640 	call	b564 <_fflush_r>
    389c:	103fbc1e 	bne	r2,zero,3790 <__alt_data_end+0xfe003790>
    38a0:	0007883a 	mov	r3,zero
    38a4:	003fdb06 	br	3814 <__alt_data_end+0xfe003814>
    38a8:	81000017 	ldw	r4,0(r16)
    38ac:	80800417 	ldw	r2,16(r16)
    38b0:	1100012e 	bgeu	r2,r4,38b8 <__sfvwrite_r+0x2ec>
    38b4:	a4805836 	bltu	r20,r18,3a18 <__sfvwrite_r+0x44c>
    38b8:	81c00517 	ldw	r7,20(r16)
    38bc:	91c01a36 	bltu	r18,r7,3928 <__sfvwrite_r+0x35c>
    38c0:	80800917 	ldw	r2,36(r16)
    38c4:	81400717 	ldw	r5,28(r16)
    38c8:	a809883a 	mov	r4,r21
    38cc:	b00d883a 	mov	r6,r22
    38d0:	103ee83a 	callr	r2
    38d4:	1029883a 	mov	r20,r2
    38d8:	00bfad0e 	bge	zero,r2,3790 <__alt_data_end+0xfe003790>
    38dc:	a005883a 	mov	r2,r20
    38e0:	003f9306 	br	3730 <__alt_data_end+0xfe003730>
    38e4:	b80d883a 	mov	r6,r23
    38e8:	e00b883a 	mov	r5,fp
    38ec:	d8c00115 	stw	r3,4(sp)
    38f0:	00048d00 	call	48d0 <memmove>
    38f4:	80800217 	ldw	r2,8(r16)
    38f8:	81000017 	ldw	r4,0(r16)
    38fc:	d8c00117 	ldw	r3,4(sp)
    3900:	15c5c83a 	sub	r2,r2,r23
    3904:	25ef883a 	add	r23,r4,r23
    3908:	80800215 	stw	r2,8(r16)
    390c:	85c00015 	stw	r23,0(r16)
    3910:	003fbe06 	br	380c <__alt_data_end+0xfe00380c>
    3914:	81000017 	ldw	r4,0(r16)
    3918:	9039883a 	mov	fp,r18
    391c:	9029883a 	mov	r20,r18
    3920:	902f883a 	mov	r23,r18
    3924:	003f7806 	br	3708 <__alt_data_end+0xfe003708>
    3928:	b00b883a 	mov	r5,r22
    392c:	900d883a 	mov	r6,r18
    3930:	00048d00 	call	48d0 <memmove>
    3934:	80c00217 	ldw	r3,8(r16)
    3938:	80800017 	ldw	r2,0(r16)
    393c:	9029883a 	mov	r20,r18
    3940:	1c87c83a 	sub	r3,r3,r18
    3944:	1485883a 	add	r2,r2,r18
    3948:	80800015 	stw	r2,0(r16)
    394c:	80c00215 	stw	r3,8(r16)
    3950:	9005883a 	mov	r2,r18
    3954:	003f7606 	br	3730 <__alt_data_end+0xfe003730>
    3958:	e009883a 	mov	r4,fp
    395c:	01400284 	movi	r5,10
    3960:	900d883a 	mov	r6,r18
    3964:	00046dc0 	call	46dc <memchr>
    3968:	10003926 	beq	r2,zero,3a50 <__sfvwrite_r+0x484>
    396c:	15800044 	addi	r22,r2,1
    3970:	b72dc83a 	sub	r22,r22,fp
    3974:	00c00044 	movi	r3,1
    3978:	003f8f06 	br	37b8 <__alt_data_end+0xfe0037b8>
    397c:	81000517 	ldw	r4,20(r16)
    3980:	81400417 	ldw	r5,16(r16)
    3984:	80c00017 	ldw	r3,0(r16)
    3988:	210d883a 	add	r6,r4,r4
    398c:	3109883a 	add	r4,r6,r4
    3990:	2028d7fa 	srli	r20,r4,31
    3994:	196fc83a 	sub	r23,r3,r5
    3998:	b9800044 	addi	r6,r23,1
    399c:	a109883a 	add	r4,r20,r4
    39a0:	2029d07a 	srai	r20,r4,1
    39a4:	348d883a 	add	r6,r6,r18
    39a8:	a180272e 	bgeu	r20,r6,3a48 <__sfvwrite_r+0x47c>
    39ac:	3029883a 	mov	r20,r6
    39b0:	1081000c 	andi	r2,r2,1024
    39b4:	a809883a 	mov	r4,r21
    39b8:	103f6d26 	beq	r2,zero,3770 <__alt_data_end+0xfe003770>
    39bc:	300b883a 	mov	r5,r6
    39c0:	0003cdc0 	call	3cdc <_malloc_r>
    39c4:	1039883a 	mov	fp,r2
    39c8:	103f6f26 	beq	r2,zero,3788 <__alt_data_end+0xfe003788>
    39cc:	81400417 	ldw	r5,16(r16)
    39d0:	1009883a 	mov	r4,r2
    39d4:	b80d883a 	mov	r6,r23
    39d8:	00047c40 	call	47c4 <memcpy>
    39dc:	8080030b 	ldhu	r2,12(r16)
    39e0:	00fedfc4 	movi	r3,-1153
    39e4:	10c4703a 	and	r2,r2,r3
    39e8:	10802014 	ori	r2,r2,128
    39ec:	8080030d 	sth	r2,12(r16)
    39f0:	e5c9883a 	add	r4,fp,r23
    39f4:	a5c7c83a 	sub	r3,r20,r23
    39f8:	87000415 	stw	fp,16(r16)
    39fc:	85000515 	stw	r20,20(r16)
    3a00:	81000015 	stw	r4,0(r16)
    3a04:	9039883a 	mov	fp,r18
    3a08:	80c00215 	stw	r3,8(r16)
    3a0c:	9029883a 	mov	r20,r18
    3a10:	902f883a 	mov	r23,r18
    3a14:	003f3c06 	br	3708 <__alt_data_end+0xfe003708>
    3a18:	b00b883a 	mov	r5,r22
    3a1c:	a00d883a 	mov	r6,r20
    3a20:	00048d00 	call	48d0 <memmove>
    3a24:	80800017 	ldw	r2,0(r16)
    3a28:	a809883a 	mov	r4,r21
    3a2c:	800b883a 	mov	r5,r16
    3a30:	1505883a 	add	r2,r2,r20
    3a34:	80800015 	stw	r2,0(r16)
    3a38:	000b5640 	call	b564 <_fflush_r>
    3a3c:	103f541e 	bne	r2,zero,3790 <__alt_data_end+0xfe003790>
    3a40:	a005883a 	mov	r2,r20
    3a44:	003f3a06 	br	3730 <__alt_data_end+0xfe003730>
    3a48:	a00d883a 	mov	r6,r20
    3a4c:	003fd806 	br	39b0 <__alt_data_end+0xfe0039b0>
    3a50:	95800044 	addi	r22,r18,1
    3a54:	00c00044 	movi	r3,1
    3a58:	003f5706 	br	37b8 <__alt_data_end+0xfe0037b8>
    3a5c:	80c0030b 	ldhu	r3,12(r16)
    3a60:	00bfffc4 	movi	r2,-1
    3a64:	18c01014 	ori	r3,r3,64
    3a68:	80c0030d 	sth	r3,12(r16)
    3a6c:	00c00244 	movi	r3,9
    3a70:	a8c00015 	stw	r3,0(r21)
    3a74:	003f0106 	br	367c <__alt_data_end+0xfe00367c>

00003a78 <_fwalk>:
    3a78:	defff904 	addi	sp,sp,-28
    3a7c:	dcc00315 	stw	r19,12(sp)
    3a80:	24c0b804 	addi	r19,r4,736
    3a84:	dd400515 	stw	r21,20(sp)
    3a88:	dd000415 	stw	r20,16(sp)
    3a8c:	dfc00615 	stw	ra,24(sp)
    3a90:	dc800215 	stw	r18,8(sp)
    3a94:	dc400115 	stw	r17,4(sp)
    3a98:	dc000015 	stw	r16,0(sp)
    3a9c:	282b883a 	mov	r21,r5
    3aa0:	0029883a 	mov	r20,zero
    3aa4:	0002f000 	call	2f00 <__sfp_lock_acquire>
    3aa8:	98001226 	beq	r19,zero,3af4 <_fwalk+0x7c>
    3aac:	04bfffc4 	movi	r18,-1
    3ab0:	9c400117 	ldw	r17,4(r19)
    3ab4:	9c000217 	ldw	r16,8(r19)
    3ab8:	8c7fffc4 	addi	r17,r17,-1
    3abc:	88000b16 	blt	r17,zero,3aec <_fwalk+0x74>
    3ac0:	84000304 	addi	r16,r16,12
    3ac4:	80c0000f 	ldh	r3,0(r16)
    3ac8:	8c7fffc4 	addi	r17,r17,-1
    3acc:	813ffd04 	addi	r4,r16,-12
    3ad0:	18000426 	beq	r3,zero,3ae4 <_fwalk+0x6c>
    3ad4:	80c0008f 	ldh	r3,2(r16)
    3ad8:	1c800226 	beq	r3,r18,3ae4 <_fwalk+0x6c>
    3adc:	a83ee83a 	callr	r21
    3ae0:	a0a8b03a 	or	r20,r20,r2
    3ae4:	84001a04 	addi	r16,r16,104
    3ae8:	8cbff61e 	bne	r17,r18,3ac4 <__alt_data_end+0xfe003ac4>
    3aec:	9cc00017 	ldw	r19,0(r19)
    3af0:	983fef1e 	bne	r19,zero,3ab0 <__alt_data_end+0xfe003ab0>
    3af4:	0002f040 	call	2f04 <__sfp_lock_release>
    3af8:	a005883a 	mov	r2,r20
    3afc:	dfc00617 	ldw	ra,24(sp)
    3b00:	dd400517 	ldw	r21,20(sp)
    3b04:	dd000417 	ldw	r20,16(sp)
    3b08:	dcc00317 	ldw	r19,12(sp)
    3b0c:	dc800217 	ldw	r18,8(sp)
    3b10:	dc400117 	ldw	r17,4(sp)
    3b14:	dc000017 	ldw	r16,0(sp)
    3b18:	dec00704 	addi	sp,sp,28
    3b1c:	f800283a 	ret

00003b20 <_fwalk_reent>:
    3b20:	defff804 	addi	sp,sp,-32
    3b24:	dcc00315 	stw	r19,12(sp)
    3b28:	24c0b804 	addi	r19,r4,736
    3b2c:	dd800615 	stw	r22,24(sp)
    3b30:	dd400515 	stw	r21,20(sp)
    3b34:	dd000415 	stw	r20,16(sp)
    3b38:	dfc00715 	stw	ra,28(sp)
    3b3c:	dc800215 	stw	r18,8(sp)
    3b40:	dc400115 	stw	r17,4(sp)
    3b44:	dc000015 	stw	r16,0(sp)
    3b48:	2029883a 	mov	r20,r4
    3b4c:	282b883a 	mov	r21,r5
    3b50:	002d883a 	mov	r22,zero
    3b54:	0002f000 	call	2f00 <__sfp_lock_acquire>
    3b58:	98001326 	beq	r19,zero,3ba8 <_fwalk_reent+0x88>
    3b5c:	04bfffc4 	movi	r18,-1
    3b60:	9c400117 	ldw	r17,4(r19)
    3b64:	9c000217 	ldw	r16,8(r19)
    3b68:	8c7fffc4 	addi	r17,r17,-1
    3b6c:	88000c16 	blt	r17,zero,3ba0 <_fwalk_reent+0x80>
    3b70:	84000304 	addi	r16,r16,12
    3b74:	80c0000f 	ldh	r3,0(r16)
    3b78:	8c7fffc4 	addi	r17,r17,-1
    3b7c:	817ffd04 	addi	r5,r16,-12
    3b80:	18000526 	beq	r3,zero,3b98 <_fwalk_reent+0x78>
    3b84:	80c0008f 	ldh	r3,2(r16)
    3b88:	a009883a 	mov	r4,r20
    3b8c:	1c800226 	beq	r3,r18,3b98 <_fwalk_reent+0x78>
    3b90:	a83ee83a 	callr	r21
    3b94:	b0acb03a 	or	r22,r22,r2
    3b98:	84001a04 	addi	r16,r16,104
    3b9c:	8cbff51e 	bne	r17,r18,3b74 <__alt_data_end+0xfe003b74>
    3ba0:	9cc00017 	ldw	r19,0(r19)
    3ba4:	983fee1e 	bne	r19,zero,3b60 <__alt_data_end+0xfe003b60>
    3ba8:	0002f040 	call	2f04 <__sfp_lock_release>
    3bac:	b005883a 	mov	r2,r22
    3bb0:	dfc00717 	ldw	ra,28(sp)
    3bb4:	dd800617 	ldw	r22,24(sp)
    3bb8:	dd400517 	ldw	r21,20(sp)
    3bbc:	dd000417 	ldw	r20,16(sp)
    3bc0:	dcc00317 	ldw	r19,12(sp)
    3bc4:	dc800217 	ldw	r18,8(sp)
    3bc8:	dc400117 	ldw	r17,4(sp)
    3bcc:	dc000017 	ldw	r16,0(sp)
    3bd0:	dec00804 	addi	sp,sp,32
    3bd4:	f800283a 	ret

00003bd8 <iswspace>:
    3bd8:	00803fc4 	movi	r2,255
    3bdc:	11000836 	bltu	r2,r4,3c00 <iswspace+0x28>
    3be0:	00800074 	movhi	r2,1
    3be4:	109bcf04 	addi	r2,r2,28476
    3be8:	10800017 	ldw	r2,0(r2)
    3bec:	1109883a 	add	r4,r2,r4
    3bf0:	20800043 	ldbu	r2,1(r4)
    3bf4:	1080020c 	andi	r2,r2,8
    3bf8:	10803fcc 	andi	r2,r2,255
    3bfc:	f800283a 	ret
    3c00:	0005883a 	mov	r2,zero
    3c04:	f800283a 	ret

00003c08 <_setlocale_r>:
    3c08:	defffe04 	addi	sp,sp,-8
    3c0c:	dc000015 	stw	r16,0(sp)
    3c10:	dfc00115 	stw	ra,4(sp)
    3c14:	3021883a 	mov	r16,r6
    3c18:	30000526 	beq	r6,zero,3c30 <_setlocale_r+0x28>
    3c1c:	3009883a 	mov	r4,r6
    3c20:	01400074 	movhi	r5,1
    3c24:	29543804 	addi	r5,r5,20704
    3c28:	00056100 	call	5610 <strcmp>
    3c2c:	1000061e 	bne	r2,zero,3c48 <_setlocale_r+0x40>
    3c30:	00800074 	movhi	r2,1
    3c34:	10938b04 	addi	r2,r2,20012
    3c38:	dfc00117 	ldw	ra,4(sp)
    3c3c:	dc000017 	ldw	r16,0(sp)
    3c40:	dec00204 	addi	sp,sp,8
    3c44:	f800283a 	ret
    3c48:	8009883a 	mov	r4,r16
    3c4c:	01400074 	movhi	r5,1
    3c50:	29538b04 	addi	r5,r5,20012
    3c54:	00056100 	call	5610 <strcmp>
    3c58:	103ff526 	beq	r2,zero,3c30 <__alt_data_end+0xfe003c30>
    3c5c:	8009883a 	mov	r4,r16
    3c60:	01400074 	movhi	r5,1
    3c64:	29545104 	addi	r5,r5,20804
    3c68:	00056100 	call	5610 <strcmp>
    3c6c:	103ff026 	beq	r2,zero,3c30 <__alt_data_end+0xfe003c30>
    3c70:	0005883a 	mov	r2,zero
    3c74:	003ff006 	br	3c38 <__alt_data_end+0xfe003c38>

00003c78 <__locale_charset>:
    3c78:	00800074 	movhi	r2,1
    3c7c:	10961f04 	addi	r2,r2,22652
    3c80:	f800283a 	ret

00003c84 <__locale_mb_cur_max>:
    3c84:	00800074 	movhi	r2,1
    3c88:	109bd004 	addi	r2,r2,28480
    3c8c:	10800017 	ldw	r2,0(r2)
    3c90:	f800283a 	ret

00003c94 <__locale_msgcharset>:
    3c94:	00800074 	movhi	r2,1
    3c98:	10961704 	addi	r2,r2,22620
    3c9c:	f800283a 	ret

00003ca0 <__locale_cjk_lang>:
    3ca0:	0005883a 	mov	r2,zero
    3ca4:	f800283a 	ret

00003ca8 <_localeconv_r>:
    3ca8:	00800074 	movhi	r2,1
    3cac:	10962704 	addi	r2,r2,22684
    3cb0:	f800283a 	ret

00003cb4 <setlocale>:
    3cb4:	00c00074 	movhi	r3,1
    3cb8:	18dbce04 	addi	r3,r3,28472
    3cbc:	2005883a 	mov	r2,r4
    3cc0:	19000017 	ldw	r4,0(r3)
    3cc4:	280d883a 	mov	r6,r5
    3cc8:	100b883a 	mov	r5,r2
    3ccc:	0003c081 	jmpi	3c08 <_setlocale_r>

00003cd0 <localeconv>:
    3cd0:	00800074 	movhi	r2,1
    3cd4:	10962704 	addi	r2,r2,22684
    3cd8:	f800283a 	ret

00003cdc <_malloc_r>:
    3cdc:	defff504 	addi	sp,sp,-44
    3ce0:	dc800315 	stw	r18,12(sp)
    3ce4:	dfc00a15 	stw	ra,40(sp)
    3ce8:	df000915 	stw	fp,36(sp)
    3cec:	ddc00815 	stw	r23,32(sp)
    3cf0:	dd800715 	stw	r22,28(sp)
    3cf4:	dd400615 	stw	r21,24(sp)
    3cf8:	dd000515 	stw	r20,20(sp)
    3cfc:	dcc00415 	stw	r19,16(sp)
    3d00:	dc400215 	stw	r17,8(sp)
    3d04:	dc000115 	stw	r16,4(sp)
    3d08:	288002c4 	addi	r2,r5,11
    3d0c:	00c00584 	movi	r3,22
    3d10:	2025883a 	mov	r18,r4
    3d14:	18802b2e 	bgeu	r3,r2,3dc4 <_malloc_r+0xe8>
    3d18:	047ffe04 	movi	r17,-8
    3d1c:	1462703a 	and	r17,r2,r17
    3d20:	88002a16 	blt	r17,zero,3dcc <_malloc_r+0xf0>
    3d24:	89402936 	bltu	r17,r5,3dcc <_malloc_r+0xf0>
    3d28:	9009883a 	mov	r4,r18
    3d2c:	00126c80 	call	126c8 <__malloc_lock>
    3d30:	00807dc4 	movi	r2,503
    3d34:	14402936 	bltu	r2,r17,3ddc <_malloc_r+0x100>
    3d38:	8808d0fa 	srli	r4,r17,3
    3d3c:	04c00074 	movhi	r19,1
    3d40:	9cd63504 	addi	r19,r19,22740
    3d44:	2105883a 	add	r2,r4,r4
    3d48:	1085883a 	add	r2,r2,r2
    3d4c:	1085883a 	add	r2,r2,r2
    3d50:	9885883a 	add	r2,r19,r2
    3d54:	14000317 	ldw	r16,12(r2)
    3d58:	80815226 	beq	r16,r2,42a4 <_malloc_r+0x5c8>
    3d5c:	81000117 	ldw	r4,4(r16)
    3d60:	00bfff04 	movi	r2,-4
    3d64:	80c00317 	ldw	r3,12(r16)
    3d68:	2084703a 	and	r2,r4,r2
    3d6c:	8085883a 	add	r2,r16,r2
    3d70:	81000217 	ldw	r4,8(r16)
    3d74:	11400117 	ldw	r5,4(r2)
    3d78:	20c00315 	stw	r3,12(r4)
    3d7c:	19000215 	stw	r4,8(r3)
    3d80:	28c00054 	ori	r3,r5,1
    3d84:	10c00115 	stw	r3,4(r2)
    3d88:	9009883a 	mov	r4,r18
    3d8c:	00126e80 	call	126e8 <__malloc_unlock>
    3d90:	80800204 	addi	r2,r16,8
    3d94:	dfc00a17 	ldw	ra,40(sp)
    3d98:	df000917 	ldw	fp,36(sp)
    3d9c:	ddc00817 	ldw	r23,32(sp)
    3da0:	dd800717 	ldw	r22,28(sp)
    3da4:	dd400617 	ldw	r21,24(sp)
    3da8:	dd000517 	ldw	r20,20(sp)
    3dac:	dcc00417 	ldw	r19,16(sp)
    3db0:	dc800317 	ldw	r18,12(sp)
    3db4:	dc400217 	ldw	r17,8(sp)
    3db8:	dc000117 	ldw	r16,4(sp)
    3dbc:	dec00b04 	addi	sp,sp,44
    3dc0:	f800283a 	ret
    3dc4:	04400404 	movi	r17,16
    3dc8:	897fd72e 	bgeu	r17,r5,3d28 <__alt_data_end+0xfe003d28>
    3dcc:	00800304 	movi	r2,12
    3dd0:	90800015 	stw	r2,0(r18)
    3dd4:	0005883a 	mov	r2,zero
    3dd8:	003fee06 	br	3d94 <__alt_data_end+0xfe003d94>
    3ddc:	8808d27a 	srli	r4,r17,9
    3de0:	20007126 	beq	r4,zero,3fa8 <_malloc_r+0x2cc>
    3de4:	00800104 	movi	r2,4
    3de8:	1100f536 	bltu	r2,r4,41c0 <_malloc_r+0x4e4>
    3dec:	8808d1ba 	srli	r4,r17,6
    3df0:	21000e04 	addi	r4,r4,56
    3df4:	210b883a 	add	r5,r4,r4
    3df8:	294b883a 	add	r5,r5,r5
    3dfc:	294b883a 	add	r5,r5,r5
    3e00:	04c00074 	movhi	r19,1
    3e04:	9cd63504 	addi	r19,r19,22740
    3e08:	994b883a 	add	r5,r19,r5
    3e0c:	2c000317 	ldw	r16,12(r5)
    3e10:	2c000e26 	beq	r5,r16,3e4c <_malloc_r+0x170>
    3e14:	80c00117 	ldw	r3,4(r16)
    3e18:	01ffff04 	movi	r7,-4
    3e1c:	018003c4 	movi	r6,15
    3e20:	19c6703a 	and	r3,r3,r7
    3e24:	1c45c83a 	sub	r2,r3,r17
    3e28:	30800716 	blt	r6,r2,3e48 <_malloc_r+0x16c>
    3e2c:	1000610e 	bge	r2,zero,3fb4 <_malloc_r+0x2d8>
    3e30:	84000317 	ldw	r16,12(r16)
    3e34:	2c000526 	beq	r5,r16,3e4c <_malloc_r+0x170>
    3e38:	80c00117 	ldw	r3,4(r16)
    3e3c:	19c6703a 	and	r3,r3,r7
    3e40:	1c45c83a 	sub	r2,r3,r17
    3e44:	30bff90e 	bge	r6,r2,3e2c <__alt_data_end+0xfe003e2c>
    3e48:	213fffc4 	addi	r4,r4,-1
    3e4c:	21000044 	addi	r4,r4,1
    3e50:	9c000417 	ldw	r16,16(r19)
    3e54:	00c00074 	movhi	r3,1
    3e58:	18d63504 	addi	r3,r3,22740
    3e5c:	1a400204 	addi	r9,r3,8
    3e60:	82410926 	beq	r16,r9,4288 <_malloc_r+0x5ac>
    3e64:	81400117 	ldw	r5,4(r16)
    3e68:	00bfff04 	movi	r2,-4
    3e6c:	018003c4 	movi	r6,15
    3e70:	2884703a 	and	r2,r5,r2
    3e74:	144bc83a 	sub	r5,r2,r17
    3e78:	3140f416 	blt	r6,r5,424c <_malloc_r+0x570>
    3e7c:	1a400515 	stw	r9,20(r3)
    3e80:	1a400415 	stw	r9,16(r3)
    3e84:	2800570e 	bge	r5,zero,3fe4 <_malloc_r+0x308>
    3e88:	01407fc4 	movi	r5,511
    3e8c:	2880d436 	bltu	r5,r2,41e0 <_malloc_r+0x504>
    3e90:	1004d0fa 	srli	r2,r2,3
    3e94:	02000044 	movi	r8,1
    3e98:	19c00117 	ldw	r7,4(r3)
    3e9c:	108b883a 	add	r5,r2,r2
    3ea0:	294b883a 	add	r5,r5,r5
    3ea4:	1005d0ba 	srai	r2,r2,2
    3ea8:	294b883a 	add	r5,r5,r5
    3eac:	28cb883a 	add	r5,r5,r3
    3eb0:	29800217 	ldw	r6,8(r5)
    3eb4:	4084983a 	sll	r2,r8,r2
    3eb8:	81400315 	stw	r5,12(r16)
    3ebc:	81800215 	stw	r6,8(r16)
    3ec0:	11c4b03a 	or	r2,r2,r7
    3ec4:	2c000215 	stw	r16,8(r5)
    3ec8:	18800115 	stw	r2,4(r3)
    3ecc:	34000315 	stw	r16,12(r6)
    3ed0:	2007d0ba 	srai	r3,r4,2
    3ed4:	01400044 	movi	r5,1
    3ed8:	28ca983a 	sll	r5,r5,r3
    3edc:	11404936 	bltu	r2,r5,4004 <_malloc_r+0x328>
    3ee0:	1146703a 	and	r3,r2,r5
    3ee4:	18000a1e 	bne	r3,zero,3f10 <_malloc_r+0x234>
    3ee8:	00ffff04 	movi	r3,-4
    3eec:	294b883a 	add	r5,r5,r5
    3ef0:	20c8703a 	and	r4,r4,r3
    3ef4:	1146703a 	and	r3,r2,r5
    3ef8:	21000104 	addi	r4,r4,4
    3efc:	1800041e 	bne	r3,zero,3f10 <_malloc_r+0x234>
    3f00:	294b883a 	add	r5,r5,r5
    3f04:	1146703a 	and	r3,r2,r5
    3f08:	21000104 	addi	r4,r4,4
    3f0c:	183ffc26 	beq	r3,zero,3f00 <__alt_data_end+0xfe003f00>
    3f10:	023fff04 	movi	r8,-4
    3f14:	01c003c4 	movi	r7,15
    3f18:	2105883a 	add	r2,r4,r4
    3f1c:	1085883a 	add	r2,r2,r2
    3f20:	1085883a 	add	r2,r2,r2
    3f24:	9897883a 	add	r11,r19,r2
    3f28:	5a800304 	addi	r10,r11,12
    3f2c:	2019883a 	mov	r12,r4
    3f30:	54000017 	ldw	r16,0(r10)
    3f34:	51bffd04 	addi	r6,r10,-12
    3f38:	8180041e 	bne	r16,r6,3f4c <_malloc_r+0x270>
    3f3c:	0000d406 	br	4290 <_malloc_r+0x5b4>
    3f40:	1000dd0e 	bge	r2,zero,42b8 <_malloc_r+0x5dc>
    3f44:	84000317 	ldw	r16,12(r16)
    3f48:	8180d126 	beq	r16,r6,4290 <_malloc_r+0x5b4>
    3f4c:	80c00117 	ldw	r3,4(r16)
    3f50:	1a06703a 	and	r3,r3,r8
    3f54:	1c45c83a 	sub	r2,r3,r17
    3f58:	38bff90e 	bge	r7,r2,3f40 <__alt_data_end+0xfe003f40>
    3f5c:	80c00317 	ldw	r3,12(r16)
    3f60:	81000217 	ldw	r4,8(r16)
    3f64:	89400054 	ori	r5,r17,1
    3f68:	81400115 	stw	r5,4(r16)
    3f6c:	20c00315 	stw	r3,12(r4)
    3f70:	19000215 	stw	r4,8(r3)
    3f74:	8463883a 	add	r17,r16,r17
    3f78:	9c400515 	stw	r17,20(r19)
    3f7c:	9c400415 	stw	r17,16(r19)
    3f80:	10c00054 	ori	r3,r2,1
    3f84:	8a400315 	stw	r9,12(r17)
    3f88:	8a400215 	stw	r9,8(r17)
    3f8c:	88c00115 	stw	r3,4(r17)
    3f90:	88a3883a 	add	r17,r17,r2
    3f94:	88800015 	stw	r2,0(r17)
    3f98:	9009883a 	mov	r4,r18
    3f9c:	00126e80 	call	126e8 <__malloc_unlock>
    3fa0:	80800204 	addi	r2,r16,8
    3fa4:	003f7b06 	br	3d94 <__alt_data_end+0xfe003d94>
    3fa8:	01401f84 	movi	r5,126
    3fac:	01000fc4 	movi	r4,63
    3fb0:	003f9106 	br	3df8 <__alt_data_end+0xfe003df8>
    3fb4:	80800317 	ldw	r2,12(r16)
    3fb8:	81000217 	ldw	r4,8(r16)
    3fbc:	80c7883a 	add	r3,r16,r3
    3fc0:	19400117 	ldw	r5,4(r3)
    3fc4:	20800315 	stw	r2,12(r4)
    3fc8:	11000215 	stw	r4,8(r2)
    3fcc:	28800054 	ori	r2,r5,1
    3fd0:	18800115 	stw	r2,4(r3)
    3fd4:	9009883a 	mov	r4,r18
    3fd8:	00126e80 	call	126e8 <__malloc_unlock>
    3fdc:	80800204 	addi	r2,r16,8
    3fe0:	003f6c06 	br	3d94 <__alt_data_end+0xfe003d94>
    3fe4:	8085883a 	add	r2,r16,r2
    3fe8:	10c00117 	ldw	r3,4(r2)
    3fec:	9009883a 	mov	r4,r18
    3ff0:	18c00054 	ori	r3,r3,1
    3ff4:	10c00115 	stw	r3,4(r2)
    3ff8:	00126e80 	call	126e8 <__malloc_unlock>
    3ffc:	80800204 	addi	r2,r16,8
    4000:	003f6406 	br	3d94 <__alt_data_end+0xfe003d94>
    4004:	9c000217 	ldw	r16,8(r19)
    4008:	00bfff04 	movi	r2,-4
    400c:	85400117 	ldw	r21,4(r16)
    4010:	a8aa703a 	and	r21,r21,r2
    4014:	ac400336 	bltu	r21,r17,4024 <_malloc_r+0x348>
    4018:	ac45c83a 	sub	r2,r21,r17
    401c:	00c003c4 	movi	r3,15
    4020:	18805d16 	blt	r3,r2,4198 <_malloc_r+0x4bc>
    4024:	008000b4 	movhi	r2,2
    4028:	10a2d704 	addi	r2,r2,-29860
    402c:	00c00074 	movhi	r3,1
    4030:	18dbd104 	addi	r3,r3,28484
    4034:	15c00017 	ldw	r23,0(r2)
    4038:	19000017 	ldw	r4,0(r3)
    403c:	00bfffc4 	movi	r2,-1
    4040:	8579883a 	add	fp,r16,r21
    4044:	8def883a 	add	r23,r17,r23
    4048:	2080e426 	beq	r4,r2,43dc <_malloc_r+0x700>
    404c:	bdc403c4 	addi	r23,r23,4111
    4050:	00bc0004 	movi	r2,-4096
    4054:	b8ae703a 	and	r23,r23,r2
    4058:	9009883a 	mov	r4,r18
    405c:	b80b883a 	mov	r5,r23
    4060:	d8c00015 	stw	r3,0(sp)
    4064:	00052e00 	call	52e0 <_sbrk_r>
    4068:	1029883a 	mov	r20,r2
    406c:	00bfffc4 	movi	r2,-1
    4070:	d8c00017 	ldw	r3,0(sp)
    4074:	a080a426 	beq	r20,r2,4308 <_malloc_r+0x62c>
    4078:	a700a236 	bltu	r20,fp,4304 <_malloc_r+0x628>
    407c:	058000b4 	movhi	r22,2
    4080:	b5a2df04 	addi	r22,r22,-29828
    4084:	b0800017 	ldw	r2,0(r22)
    4088:	b885883a 	add	r2,r23,r2
    408c:	b0800015 	stw	r2,0(r22)
    4090:	e500da26 	beq	fp,r20,43fc <_malloc_r+0x720>
    4094:	19000017 	ldw	r4,0(r3)
    4098:	00ffffc4 	movi	r3,-1
    409c:	20c0e426 	beq	r4,r3,4430 <_malloc_r+0x754>
    40a0:	a739c83a 	sub	fp,r20,fp
    40a4:	1705883a 	add	r2,r2,fp
    40a8:	b0800015 	stw	r2,0(r22)
    40ac:	a08001cc 	andi	r2,r20,7
    40b0:	1000b526 	beq	r2,zero,4388 <_malloc_r+0x6ac>
    40b4:	a0a9c83a 	sub	r20,r20,r2
    40b8:	00c40204 	movi	r3,4104
    40bc:	a5000204 	addi	r20,r20,8
    40c0:	1885c83a 	sub	r2,r3,r2
    40c4:	a5c7883a 	add	r3,r20,r23
    40c8:	18c3ffcc 	andi	r3,r3,4095
    40cc:	10efc83a 	sub	r23,r2,r3
    40d0:	9009883a 	mov	r4,r18
    40d4:	b80b883a 	mov	r5,r23
    40d8:	00052e00 	call	52e0 <_sbrk_r>
    40dc:	00ffffc4 	movi	r3,-1
    40e0:	10c0d026 	beq	r2,r3,4424 <_malloc_r+0x748>
    40e4:	1505c83a 	sub	r2,r2,r20
    40e8:	b887883a 	add	r3,r23,r2
    40ec:	18c00054 	ori	r3,r3,1
    40f0:	b0800017 	ldw	r2,0(r22)
    40f4:	9d000215 	stw	r20,8(r19)
    40f8:	a0c00115 	stw	r3,4(r20)
    40fc:	b885883a 	add	r2,r23,r2
    4100:	b0800015 	stw	r2,0(r22)
    4104:	84c00e26 	beq	r16,r19,4140 <_malloc_r+0x464>
    4108:	00c003c4 	movi	r3,15
    410c:	1d40a02e 	bgeu	r3,r21,4390 <_malloc_r+0x6b4>
    4110:	81400117 	ldw	r5,4(r16)
    4114:	ad7ffd04 	addi	r21,r21,-12
    4118:	013ffe04 	movi	r4,-8
    411c:	a908703a 	and	r4,r21,r4
    4120:	2940004c 	andi	r5,r5,1
    4124:	214ab03a 	or	r5,r4,r5
    4128:	81400115 	stw	r5,4(r16)
    412c:	01800144 	movi	r6,5
    4130:	810b883a 	add	r5,r16,r4
    4134:	29800115 	stw	r6,4(r5)
    4138:	29800215 	stw	r6,8(r5)
    413c:	1900c036 	bltu	r3,r4,4440 <_malloc_r+0x764>
    4140:	00c000b4 	movhi	r3,2
    4144:	18e2d604 	addi	r3,r3,-29864
    4148:	19000017 	ldw	r4,0(r3)
    414c:	2080012e 	bgeu	r4,r2,4154 <_malloc_r+0x478>
    4150:	18800015 	stw	r2,0(r3)
    4154:	00c000b4 	movhi	r3,2
    4158:	18e2d504 	addi	r3,r3,-29868
    415c:	19000017 	ldw	r4,0(r3)
    4160:	9c000217 	ldw	r16,8(r19)
    4164:	2080012e 	bgeu	r4,r2,416c <_malloc_r+0x490>
    4168:	18800015 	stw	r2,0(r3)
    416c:	80c00117 	ldw	r3,4(r16)
    4170:	00bfff04 	movi	r2,-4
    4174:	1886703a 	and	r3,r3,r2
    4178:	1c45c83a 	sub	r2,r3,r17
    417c:	1c400236 	bltu	r3,r17,4188 <_malloc_r+0x4ac>
    4180:	00c003c4 	movi	r3,15
    4184:	18800416 	blt	r3,r2,4198 <_malloc_r+0x4bc>
    4188:	9009883a 	mov	r4,r18
    418c:	00126e80 	call	126e8 <__malloc_unlock>
    4190:	0005883a 	mov	r2,zero
    4194:	003eff06 	br	3d94 <__alt_data_end+0xfe003d94>
    4198:	88c00054 	ori	r3,r17,1
    419c:	80c00115 	stw	r3,4(r16)
    41a0:	8463883a 	add	r17,r16,r17
    41a4:	10800054 	ori	r2,r2,1
    41a8:	9c400215 	stw	r17,8(r19)
    41ac:	88800115 	stw	r2,4(r17)
    41b0:	9009883a 	mov	r4,r18
    41b4:	00126e80 	call	126e8 <__malloc_unlock>
    41b8:	80800204 	addi	r2,r16,8
    41bc:	003ef506 	br	3d94 <__alt_data_end+0xfe003d94>
    41c0:	00800504 	movi	r2,20
    41c4:	1100482e 	bgeu	r2,r4,42e8 <_malloc_r+0x60c>
    41c8:	00801504 	movi	r2,84
    41cc:	11006836 	bltu	r2,r4,4370 <_malloc_r+0x694>
    41d0:	8808d33a 	srli	r4,r17,12
    41d4:	21001b84 	addi	r4,r4,110
    41d8:	210b883a 	add	r5,r4,r4
    41dc:	003f0606 	br	3df8 <__alt_data_end+0xfe003df8>
    41e0:	1006d27a 	srli	r3,r2,9
    41e4:	01400104 	movi	r5,4
    41e8:	28c0422e 	bgeu	r5,r3,42f4 <_malloc_r+0x618>
    41ec:	01400504 	movi	r5,20
    41f0:	28c07c36 	bltu	r5,r3,43e4 <_malloc_r+0x708>
    41f4:	194016c4 	addi	r5,r3,91
    41f8:	294d883a 	add	r6,r5,r5
    41fc:	318d883a 	add	r6,r6,r6
    4200:	318d883a 	add	r6,r6,r6
    4204:	998d883a 	add	r6,r19,r6
    4208:	30c00217 	ldw	r3,8(r6)
    420c:	01c00074 	movhi	r7,1
    4210:	39d63504 	addi	r7,r7,22740
    4214:	19806326 	beq	r3,r6,43a4 <_malloc_r+0x6c8>
    4218:	01ffff04 	movi	r7,-4
    421c:	19400117 	ldw	r5,4(r3)
    4220:	29ca703a 	and	r5,r5,r7
    4224:	1140022e 	bgeu	r2,r5,4230 <_malloc_r+0x554>
    4228:	18c00217 	ldw	r3,8(r3)
    422c:	30fffb1e 	bne	r6,r3,421c <__alt_data_end+0xfe00421c>
    4230:	19400317 	ldw	r5,12(r3)
    4234:	98800117 	ldw	r2,4(r19)
    4238:	81400315 	stw	r5,12(r16)
    423c:	80c00215 	stw	r3,8(r16)
    4240:	2c000215 	stw	r16,8(r5)
    4244:	1c000315 	stw	r16,12(r3)
    4248:	003f2106 	br	3ed0 <__alt_data_end+0xfe003ed0>
    424c:	88800054 	ori	r2,r17,1
    4250:	80800115 	stw	r2,4(r16)
    4254:	8463883a 	add	r17,r16,r17
    4258:	1c400515 	stw	r17,20(r3)
    425c:	1c400415 	stw	r17,16(r3)
    4260:	28800054 	ori	r2,r5,1
    4264:	88800115 	stw	r2,4(r17)
    4268:	8a400315 	stw	r9,12(r17)
    426c:	8a400215 	stw	r9,8(r17)
    4270:	8963883a 	add	r17,r17,r5
    4274:	89400015 	stw	r5,0(r17)
    4278:	9009883a 	mov	r4,r18
    427c:	00126e80 	call	126e8 <__malloc_unlock>
    4280:	80800204 	addi	r2,r16,8
    4284:	003ec306 	br	3d94 <__alt_data_end+0xfe003d94>
    4288:	18800117 	ldw	r2,4(r3)
    428c:	003f1006 	br	3ed0 <__alt_data_end+0xfe003ed0>
    4290:	63000044 	addi	r12,r12,1
    4294:	608000cc 	andi	r2,r12,3
    4298:	52800204 	addi	r10,r10,8
    429c:	103f241e 	bne	r2,zero,3f30 <__alt_data_end+0xfe003f30>
    42a0:	00002106 	br	4328 <_malloc_r+0x64c>
    42a4:	80800204 	addi	r2,r16,8
    42a8:	84000517 	ldw	r16,20(r16)
    42ac:	143eab1e 	bne	r2,r16,3d5c <__alt_data_end+0xfe003d5c>
    42b0:	21000084 	addi	r4,r4,2
    42b4:	003ee606 	br	3e50 <__alt_data_end+0xfe003e50>
    42b8:	80c7883a 	add	r3,r16,r3
    42bc:	19400117 	ldw	r5,4(r3)
    42c0:	80800317 	ldw	r2,12(r16)
    42c4:	81000217 	ldw	r4,8(r16)
    42c8:	29400054 	ori	r5,r5,1
    42cc:	19400115 	stw	r5,4(r3)
    42d0:	20800315 	stw	r2,12(r4)
    42d4:	11000215 	stw	r4,8(r2)
    42d8:	9009883a 	mov	r4,r18
    42dc:	00126e80 	call	126e8 <__malloc_unlock>
    42e0:	80800204 	addi	r2,r16,8
    42e4:	003eab06 	br	3d94 <__alt_data_end+0xfe003d94>
    42e8:	210016c4 	addi	r4,r4,91
    42ec:	210b883a 	add	r5,r4,r4
    42f0:	003ec106 	br	3df8 <__alt_data_end+0xfe003df8>
    42f4:	100ad1ba 	srli	r5,r2,6
    42f8:	29400e04 	addi	r5,r5,56
    42fc:	294d883a 	add	r6,r5,r5
    4300:	003fbe06 	br	41fc <__alt_data_end+0xfe0041fc>
    4304:	84ff5d26 	beq	r16,r19,407c <__alt_data_end+0xfe00407c>
    4308:	9c000217 	ldw	r16,8(r19)
    430c:	00bfff04 	movi	r2,-4
    4310:	80c00117 	ldw	r3,4(r16)
    4314:	1886703a 	and	r3,r3,r2
    4318:	003f9706 	br	4178 <__alt_data_end+0xfe004178>
    431c:	5ac00017 	ldw	r11,0(r11)
    4320:	213fffc4 	addi	r4,r4,-1
    4324:	58805c1e 	bne	r11,r2,4498 <_malloc_r+0x7bc>
    4328:	20c000cc 	andi	r3,r4,3
    432c:	58bffe04 	addi	r2,r11,-8
    4330:	183ffa1e 	bne	r3,zero,431c <__alt_data_end+0xfe00431c>
    4334:	98800117 	ldw	r2,4(r19)
    4338:	0146303a 	nor	r3,zero,r5
    433c:	1884703a 	and	r2,r3,r2
    4340:	98800115 	stw	r2,4(r19)
    4344:	294b883a 	add	r5,r5,r5
    4348:	117f2e36 	bltu	r2,r5,4004 <__alt_data_end+0xfe004004>
    434c:	283f2d26 	beq	r5,zero,4004 <__alt_data_end+0xfe004004>
    4350:	1146703a 	and	r3,r2,r5
    4354:	6009883a 	mov	r4,r12
    4358:	183eef1e 	bne	r3,zero,3f18 <__alt_data_end+0xfe003f18>
    435c:	294b883a 	add	r5,r5,r5
    4360:	1146703a 	and	r3,r2,r5
    4364:	21000104 	addi	r4,r4,4
    4368:	183ffc26 	beq	r3,zero,435c <__alt_data_end+0xfe00435c>
    436c:	003eea06 	br	3f18 <__alt_data_end+0xfe003f18>
    4370:	00805504 	movi	r2,340
    4374:	11001336 	bltu	r2,r4,43c4 <_malloc_r+0x6e8>
    4378:	8808d3fa 	srli	r4,r17,15
    437c:	21001dc4 	addi	r4,r4,119
    4380:	210b883a 	add	r5,r4,r4
    4384:	003e9c06 	br	3df8 <__alt_data_end+0xfe003df8>
    4388:	00840004 	movi	r2,4096
    438c:	003f4d06 	br	40c4 <__alt_data_end+0xfe0040c4>
    4390:	00800044 	movi	r2,1
    4394:	a0800115 	stw	r2,4(r20)
    4398:	a021883a 	mov	r16,r20
    439c:	0007883a 	mov	r3,zero
    43a0:	003f7506 	br	4178 <__alt_data_end+0xfe004178>
    43a4:	280bd0ba 	srai	r5,r5,2
    43a8:	01800044 	movi	r6,1
    43ac:	38800117 	ldw	r2,4(r7)
    43b0:	314c983a 	sll	r6,r6,r5
    43b4:	180b883a 	mov	r5,r3
    43b8:	3084b03a 	or	r2,r6,r2
    43bc:	38800115 	stw	r2,4(r7)
    43c0:	003f9d06 	br	4238 <__alt_data_end+0xfe004238>
    43c4:	00815504 	movi	r2,1364
    43c8:	11001336 	bltu	r2,r4,4418 <_malloc_r+0x73c>
    43cc:	8808d4ba 	srli	r4,r17,18
    43d0:	21001f04 	addi	r4,r4,124
    43d4:	210b883a 	add	r5,r4,r4
    43d8:	003e8706 	br	3df8 <__alt_data_end+0xfe003df8>
    43dc:	bdc00404 	addi	r23,r23,16
    43e0:	003f1d06 	br	4058 <__alt_data_end+0xfe004058>
    43e4:	01401504 	movi	r5,84
    43e8:	28c01c36 	bltu	r5,r3,445c <_malloc_r+0x780>
    43ec:	100ad33a 	srli	r5,r2,12
    43f0:	29401b84 	addi	r5,r5,110
    43f4:	294d883a 	add	r6,r5,r5
    43f8:	003f8006 	br	41fc <__alt_data_end+0xfe0041fc>
    43fc:	e103ffcc 	andi	r4,fp,4095
    4400:	203f241e 	bne	r4,zero,4094 <__alt_data_end+0xfe004094>
    4404:	98c00217 	ldw	r3,8(r19)
    4408:	bd49883a 	add	r4,r23,r21
    440c:	21000054 	ori	r4,r4,1
    4410:	19000115 	stw	r4,4(r3)
    4414:	003f4a06 	br	4140 <__alt_data_end+0xfe004140>
    4418:	01403f04 	movi	r5,252
    441c:	01001f84 	movi	r4,126
    4420:	003e7506 	br	3df8 <__alt_data_end+0xfe003df8>
    4424:	00c00044 	movi	r3,1
    4428:	002f883a 	mov	r23,zero
    442c:	003f3006 	br	40f0 <__alt_data_end+0xfe0040f0>
    4430:	00800074 	movhi	r2,1
    4434:	109bd104 	addi	r2,r2,28484
    4438:	15000015 	stw	r20,0(r2)
    443c:	003f1b06 	br	40ac <__alt_data_end+0xfe0040ac>
    4440:	9009883a 	mov	r4,r18
    4444:	81400204 	addi	r5,r16,8
    4448:	00032fc0 	call	32fc <_free_r>
    444c:	008000b4 	movhi	r2,2
    4450:	10a2df04 	addi	r2,r2,-29828
    4454:	10800017 	ldw	r2,0(r2)
    4458:	003f3906 	br	4140 <__alt_data_end+0xfe004140>
    445c:	01405504 	movi	r5,340
    4460:	28c00436 	bltu	r5,r3,4474 <_malloc_r+0x798>
    4464:	100ad3fa 	srli	r5,r2,15
    4468:	29401dc4 	addi	r5,r5,119
    446c:	294d883a 	add	r6,r5,r5
    4470:	003f6206 	br	41fc <__alt_data_end+0xfe0041fc>
    4474:	01415504 	movi	r5,1364
    4478:	28c00436 	bltu	r5,r3,448c <_malloc_r+0x7b0>
    447c:	100ad4ba 	srli	r5,r2,18
    4480:	29401f04 	addi	r5,r5,124
    4484:	294d883a 	add	r6,r5,r5
    4488:	003f5c06 	br	41fc <__alt_data_end+0xfe0041fc>
    448c:	01803f04 	movi	r6,252
    4490:	01401f84 	movi	r5,126
    4494:	003f5906 	br	41fc <__alt_data_end+0xfe0041fc>
    4498:	98800117 	ldw	r2,4(r19)
    449c:	003fa906 	br	4344 <__alt_data_end+0xfe004344>

000044a0 <_mbrtowc_r>:
    44a0:	defff704 	addi	sp,sp,-36
    44a4:	dc800715 	stw	r18,28(sp)
    44a8:	dc400615 	stw	r17,24(sp)
    44ac:	dc000515 	stw	r16,20(sp)
    44b0:	00800074 	movhi	r2,1
    44b4:	109bd304 	addi	r2,r2,28492
    44b8:	dfc00815 	stw	ra,32(sp)
    44bc:	2021883a 	mov	r16,r4
    44c0:	dc400917 	ldw	r17,36(sp)
    44c4:	14800017 	ldw	r18,0(r2)
    44c8:	30001626 	beq	r6,zero,4524 <_mbrtowc_r+0x84>
    44cc:	d9400215 	stw	r5,8(sp)
    44d0:	d9800315 	stw	r6,12(sp)
    44d4:	d9c00415 	stw	r7,16(sp)
    44d8:	0003c780 	call	3c78 <__locale_charset>
    44dc:	d9400217 	ldw	r5,8(sp)
    44e0:	d9800317 	ldw	r6,12(sp)
    44e4:	d9c00417 	ldw	r7,16(sp)
    44e8:	d8800015 	stw	r2,0(sp)
    44ec:	dc400115 	stw	r17,4(sp)
    44f0:	8009883a 	mov	r4,r16
    44f4:	903ee83a 	callr	r18
    44f8:	00ffffc4 	movi	r3,-1
    44fc:	10c0031e 	bne	r2,r3,450c <_mbrtowc_r+0x6c>
    4500:	88000015 	stw	zero,0(r17)
    4504:	00c02284 	movi	r3,138
    4508:	80c00015 	stw	r3,0(r16)
    450c:	dfc00817 	ldw	ra,32(sp)
    4510:	dc800717 	ldw	r18,28(sp)
    4514:	dc400617 	ldw	r17,24(sp)
    4518:	dc000517 	ldw	r16,20(sp)
    451c:	dec00904 	addi	sp,sp,36
    4520:	f800283a 	ret
    4524:	0003c780 	call	3c78 <__locale_charset>
    4528:	d8800015 	stw	r2,0(sp)
    452c:	dc400115 	stw	r17,4(sp)
    4530:	8009883a 	mov	r4,r16
    4534:	000b883a 	mov	r5,zero
    4538:	01800074 	movhi	r6,1
    453c:	31945104 	addi	r6,r6,20804
    4540:	01c00044 	movi	r7,1
    4544:	903ee83a 	callr	r18
    4548:	003feb06 	br	44f8 <__alt_data_end+0xfe0044f8>

0000454c <mbrtowc>:
    454c:	defff604 	addi	sp,sp,-40
    4550:	dc400315 	stw	r17,12(sp)
    4554:	dc000215 	stw	r16,8(sp)
    4558:	dfc00915 	stw	ra,36(sp)
    455c:	dd800815 	stw	r22,32(sp)
    4560:	dd400715 	stw	r21,28(sp)
    4564:	dd000615 	stw	r20,24(sp)
    4568:	dcc00515 	stw	r19,20(sp)
    456c:	dc800415 	stw	r18,16(sp)
    4570:	2821883a 	mov	r16,r5
    4574:	3823883a 	mov	r17,r7
    4578:	28002026 	beq	r5,zero,45fc <mbrtowc+0xb0>
    457c:	04800074 	movhi	r18,1
    4580:	949bce04 	addi	r18,r18,28472
    4584:	95800017 	ldw	r22,0(r18)
    4588:	00800074 	movhi	r2,1
    458c:	109bd304 	addi	r2,r2,28492
    4590:	15400017 	ldw	r21,0(r2)
    4594:	2029883a 	mov	r20,r4
    4598:	3027883a 	mov	r19,r6
    459c:	0003c780 	call	3c78 <__locale_charset>
    45a0:	d8800015 	stw	r2,0(sp)
    45a4:	dc400115 	stw	r17,4(sp)
    45a8:	b009883a 	mov	r4,r22
    45ac:	a00b883a 	mov	r5,r20
    45b0:	800d883a 	mov	r6,r16
    45b4:	980f883a 	mov	r7,r19
    45b8:	a83ee83a 	callr	r21
    45bc:	00ffffc4 	movi	r3,-1
    45c0:	10c0041e 	bne	r2,r3,45d4 <mbrtowc+0x88>
    45c4:	90c00017 	ldw	r3,0(r18)
    45c8:	01002284 	movi	r4,138
    45cc:	88000015 	stw	zero,0(r17)
    45d0:	19000015 	stw	r4,0(r3)
    45d4:	dfc00917 	ldw	ra,36(sp)
    45d8:	dd800817 	ldw	r22,32(sp)
    45dc:	dd400717 	ldw	r21,28(sp)
    45e0:	dd000617 	ldw	r20,24(sp)
    45e4:	dcc00517 	ldw	r19,20(sp)
    45e8:	dc800417 	ldw	r18,16(sp)
    45ec:	dc400317 	ldw	r17,12(sp)
    45f0:	dc000217 	ldw	r16,8(sp)
    45f4:	dec00a04 	addi	sp,sp,40
    45f8:	f800283a 	ret
    45fc:	04800074 	movhi	r18,1
    4600:	949bce04 	addi	r18,r18,28472
    4604:	94c00017 	ldw	r19,0(r18)
    4608:	00800074 	movhi	r2,1
    460c:	109bd304 	addi	r2,r2,28492
    4610:	14000017 	ldw	r16,0(r2)
    4614:	0003c780 	call	3c78 <__locale_charset>
    4618:	d8800015 	stw	r2,0(sp)
    461c:	dc400115 	stw	r17,4(sp)
    4620:	9809883a 	mov	r4,r19
    4624:	000b883a 	mov	r5,zero
    4628:	01800074 	movhi	r6,1
    462c:	31945104 	addi	r6,r6,20804
    4630:	01c00044 	movi	r7,1
    4634:	803ee83a 	callr	r16
    4638:	003fe006 	br	45bc <__alt_data_end+0xfe0045bc>

0000463c <__ascii_mbtowc>:
    463c:	deffff04 	addi	sp,sp,-4
    4640:	28000826 	beq	r5,zero,4664 <__ascii_mbtowc+0x28>
    4644:	30000926 	beq	r6,zero,466c <__ascii_mbtowc+0x30>
    4648:	38000b26 	beq	r7,zero,4678 <__ascii_mbtowc+0x3c>
    464c:	30800003 	ldbu	r2,0(r6)
    4650:	28800015 	stw	r2,0(r5)
    4654:	30800003 	ldbu	r2,0(r6)
    4658:	1004c03a 	cmpne	r2,r2,zero
    465c:	dec00104 	addi	sp,sp,4
    4660:	f800283a 	ret
    4664:	d80b883a 	mov	r5,sp
    4668:	303ff71e 	bne	r6,zero,4648 <__alt_data_end+0xfe004648>
    466c:	0005883a 	mov	r2,zero
    4670:	dec00104 	addi	sp,sp,4
    4674:	f800283a 	ret
    4678:	00bfff84 	movi	r2,-2
    467c:	003ff706 	br	465c <__alt_data_end+0xfe00465c>

00004680 <_mbtowc_r>:
    4680:	defff804 	addi	sp,sp,-32
    4684:	00800074 	movhi	r2,1
    4688:	109bd304 	addi	r2,r2,28492
    468c:	dfc00715 	stw	ra,28(sp)
    4690:	dc000615 	stw	r16,24(sp)
    4694:	14000017 	ldw	r16,0(r2)
    4698:	d9000215 	stw	r4,8(sp)
    469c:	d9400315 	stw	r5,12(sp)
    46a0:	d9800415 	stw	r6,16(sp)
    46a4:	d9c00515 	stw	r7,20(sp)
    46a8:	0003c780 	call	3c78 <__locale_charset>
    46ac:	d8800015 	stw	r2,0(sp)
    46b0:	d8800817 	ldw	r2,32(sp)
    46b4:	d9000217 	ldw	r4,8(sp)
    46b8:	d9400317 	ldw	r5,12(sp)
    46bc:	d9800417 	ldw	r6,16(sp)
    46c0:	d9c00517 	ldw	r7,20(sp)
    46c4:	d8800115 	stw	r2,4(sp)
    46c8:	803ee83a 	callr	r16
    46cc:	dfc00717 	ldw	ra,28(sp)
    46d0:	dc000617 	ldw	r16,24(sp)
    46d4:	dec00804 	addi	sp,sp,32
    46d8:	f800283a 	ret

000046dc <memchr>:
    46dc:	208000cc 	andi	r2,r4,3
    46e0:	2811883a 	mov	r8,r5
    46e4:	10003526 	beq	r2,zero,47bc <memchr+0xe0>
    46e8:	30bfffc4 	addi	r2,r6,-1
    46ec:	30001b26 	beq	r6,zero,475c <memchr+0x80>
    46f0:	21800003 	ldbu	r6,0(r4)
    46f4:	28c03fcc 	andi	r3,r5,255
    46f8:	30c01a26 	beq	r6,r3,4764 <memchr+0x88>
    46fc:	180d883a 	mov	r6,r3
    4700:	00000406 	br	4714 <memchr+0x38>
    4704:	10001526 	beq	r2,zero,475c <memchr+0x80>
    4708:	20c00003 	ldbu	r3,0(r4)
    470c:	10bfffc4 	addi	r2,r2,-1
    4710:	19801426 	beq	r3,r6,4764 <memchr+0x88>
    4714:	21000044 	addi	r4,r4,1
    4718:	20c000cc 	andi	r3,r4,3
    471c:	183ff91e 	bne	r3,zero,4704 <__alt_data_end+0xfe004704>
    4720:	02c000c4 	movi	r11,3
    4724:	58801136 	bltu	r11,r2,476c <memchr+0x90>
    4728:	10000c26 	beq	r2,zero,475c <memchr+0x80>
    472c:	20c00003 	ldbu	r3,0(r4)
    4730:	29403fcc 	andi	r5,r5,255
    4734:	19400b26 	beq	r3,r5,4764 <memchr+0x88>
    4738:	20c00044 	addi	r3,r4,1
    473c:	2085883a 	add	r2,r4,r2
    4740:	41803fcc 	andi	r6,r8,255
    4744:	00000306 	br	4754 <memchr+0x78>
    4748:	18c00044 	addi	r3,r3,1
    474c:	197fffc3 	ldbu	r5,-1(r3)
    4750:	29800426 	beq	r5,r6,4764 <memchr+0x88>
    4754:	1809883a 	mov	r4,r3
    4758:	18bffb1e 	bne	r3,r2,4748 <__alt_data_end+0xfe004748>
    475c:	0005883a 	mov	r2,zero
    4760:	f800283a 	ret
    4764:	2005883a 	mov	r2,r4
    4768:	f800283a 	ret
    476c:	28c03fcc 	andi	r3,r5,255
    4770:	180c923a 	slli	r6,r3,8
    4774:	02bfbff4 	movhi	r10,65279
    4778:	52bfbfc4 	addi	r10,r10,-257
    477c:	02602074 	movhi	r9,32897
    4780:	4a602004 	addi	r9,r9,-32640
    4784:	30c6b03a 	or	r3,r6,r3
    4788:	180c943a 	slli	r6,r3,16
    478c:	30ccb03a 	or	r6,r6,r3
    4790:	20c00017 	ldw	r3,0(r4)
    4794:	30c6f03a 	xor	r3,r6,r3
    4798:	1a8f883a 	add	r7,r3,r10
    479c:	00c6303a 	nor	r3,zero,r3
    47a0:	38c6703a 	and	r3,r7,r3
    47a4:	1a46703a 	and	r3,r3,r9
    47a8:	183fdf1e 	bne	r3,zero,4728 <__alt_data_end+0xfe004728>
    47ac:	10bfff04 	addi	r2,r2,-4
    47b0:	21000104 	addi	r4,r4,4
    47b4:	58bff636 	bltu	r11,r2,4790 <__alt_data_end+0xfe004790>
    47b8:	003fdb06 	br	4728 <__alt_data_end+0xfe004728>
    47bc:	3005883a 	mov	r2,r6
    47c0:	003fd706 	br	4720 <__alt_data_end+0xfe004720>

000047c4 <memcpy>:
    47c4:	00c003c4 	movi	r3,15
    47c8:	2005883a 	mov	r2,r4
    47cc:	1980372e 	bgeu	r3,r6,48ac <memcpy+0xe8>
    47d0:	2146b03a 	or	r3,r4,r5
    47d4:	18c000cc 	andi	r3,r3,3
    47d8:	1800371e 	bne	r3,zero,48b8 <memcpy+0xf4>
    47dc:	327ffc04 	addi	r9,r6,-16
    47e0:	4812d13a 	srli	r9,r9,4
    47e4:	2007883a 	mov	r3,r4
    47e8:	280f883a 	mov	r7,r5
    47ec:	4808913a 	slli	r4,r9,4
    47f0:	1109883a 	add	r4,r2,r4
    47f4:	21000404 	addi	r4,r4,16
    47f8:	3a000017 	ldw	r8,0(r7)
    47fc:	18c00404 	addi	r3,r3,16
    4800:	39c00404 	addi	r7,r7,16
    4804:	1a3ffc15 	stw	r8,-16(r3)
    4808:	3a3ffd17 	ldw	r8,-12(r7)
    480c:	1a3ffd15 	stw	r8,-12(r3)
    4810:	3a3ffe17 	ldw	r8,-8(r7)
    4814:	1a3ffe15 	stw	r8,-8(r3)
    4818:	3a3fff17 	ldw	r8,-4(r7)
    481c:	1a3fff15 	stw	r8,-4(r3)
    4820:	193ff51e 	bne	r3,r4,47f8 <__alt_data_end+0xfe0047f8>
    4824:	49000044 	addi	r4,r9,1
    4828:	2008913a 	slli	r4,r4,4
    482c:	328003cc 	andi	r10,r6,15
    4830:	1107883a 	add	r3,r2,r4
    4834:	290b883a 	add	r5,r5,r4
    4838:	010000c4 	movi	r4,3
    483c:	2280212e 	bgeu	r4,r10,48c4 <memcpy+0x100>
    4840:	52bfff04 	addi	r10,r10,-4
    4844:	5014d0ba 	srli	r10,r10,2
    4848:	180f883a 	mov	r7,r3
    484c:	2811883a 	mov	r8,r5
    4850:	5289883a 	add	r4,r10,r10
    4854:	2109883a 	add	r4,r4,r4
    4858:	21000104 	addi	r4,r4,4
    485c:	1909883a 	add	r4,r3,r4
    4860:	42400017 	ldw	r9,0(r8)
    4864:	39c00104 	addi	r7,r7,4
    4868:	42000104 	addi	r8,r8,4
    486c:	3a7fff15 	stw	r9,-4(r7)
    4870:	393ffb1e 	bne	r7,r4,4860 <__alt_data_end+0xfe004860>
    4874:	51000044 	addi	r4,r10,1
    4878:	2109883a 	add	r4,r4,r4
    487c:	2109883a 	add	r4,r4,r4
    4880:	318000cc 	andi	r6,r6,3
    4884:	1907883a 	add	r3,r3,r4
    4888:	290b883a 	add	r5,r5,r4
    488c:	30000c26 	beq	r6,zero,48c0 <memcpy+0xfc>
    4890:	298d883a 	add	r6,r5,r6
    4894:	29c00003 	ldbu	r7,0(r5)
    4898:	18c00044 	addi	r3,r3,1
    489c:	29400044 	addi	r5,r5,1
    48a0:	19ffffc5 	stb	r7,-1(r3)
    48a4:	29bffb1e 	bne	r5,r6,4894 <__alt_data_end+0xfe004894>
    48a8:	f800283a 	ret
    48ac:	2007883a 	mov	r3,r4
    48b0:	303ff71e 	bne	r6,zero,4890 <__alt_data_end+0xfe004890>
    48b4:	00000206 	br	48c0 <memcpy+0xfc>
    48b8:	2007883a 	mov	r3,r4
    48bc:	003ff406 	br	4890 <__alt_data_end+0xfe004890>
    48c0:	f800283a 	ret
    48c4:	500d883a 	mov	r6,r10
    48c8:	303ff11e 	bne	r6,zero,4890 <__alt_data_end+0xfe004890>
    48cc:	003ffc06 	br	48c0 <__alt_data_end+0xfe0048c0>

000048d0 <memmove>:
    48d0:	2005883a 	mov	r2,r4
    48d4:	29000b2e 	bgeu	r5,r4,4904 <memmove+0x34>
    48d8:	298f883a 	add	r7,r5,r6
    48dc:	21c0092e 	bgeu	r4,r7,4904 <memmove+0x34>
    48e0:	2187883a 	add	r3,r4,r6
    48e4:	198bc83a 	sub	r5,r3,r6
    48e8:	30003e26 	beq	r6,zero,49e4 <memmove+0x114>
    48ec:	39ffffc4 	addi	r7,r7,-1
    48f0:	39000003 	ldbu	r4,0(r7)
    48f4:	18ffffc4 	addi	r3,r3,-1
    48f8:	19000005 	stb	r4,0(r3)
    48fc:	197ffb1e 	bne	r3,r5,48ec <__alt_data_end+0xfe0048ec>
    4900:	f800283a 	ret
    4904:	00c003c4 	movi	r3,15
    4908:	1980372e 	bgeu	r3,r6,49e8 <memmove+0x118>
    490c:	1146b03a 	or	r3,r2,r5
    4910:	18c000cc 	andi	r3,r3,3
    4914:	1800371e 	bne	r3,zero,49f4 <memmove+0x124>
    4918:	327ffc04 	addi	r9,r6,-16
    491c:	4812d13a 	srli	r9,r9,4
    4920:	280f883a 	mov	r7,r5
    4924:	1007883a 	mov	r3,r2
    4928:	4810913a 	slli	r8,r9,4
    492c:	1211883a 	add	r8,r2,r8
    4930:	42000404 	addi	r8,r8,16
    4934:	39000017 	ldw	r4,0(r7)
    4938:	18c00404 	addi	r3,r3,16
    493c:	39c00404 	addi	r7,r7,16
    4940:	193ffc15 	stw	r4,-16(r3)
    4944:	393ffd17 	ldw	r4,-12(r7)
    4948:	193ffd15 	stw	r4,-12(r3)
    494c:	393ffe17 	ldw	r4,-8(r7)
    4950:	193ffe15 	stw	r4,-8(r3)
    4954:	393fff17 	ldw	r4,-4(r7)
    4958:	193fff15 	stw	r4,-4(r3)
    495c:	1a3ff51e 	bne	r3,r8,4934 <__alt_data_end+0xfe004934>
    4960:	49000044 	addi	r4,r9,1
    4964:	2008913a 	slli	r4,r4,4
    4968:	328003cc 	andi	r10,r6,15
    496c:	1107883a 	add	r3,r2,r4
    4970:	290b883a 	add	r5,r5,r4
    4974:	010000c4 	movi	r4,3
    4978:	2280212e 	bgeu	r4,r10,4a00 <memmove+0x130>
    497c:	52bfff04 	addi	r10,r10,-4
    4980:	5014d0ba 	srli	r10,r10,2
    4984:	180f883a 	mov	r7,r3
    4988:	2809883a 	mov	r4,r5
    498c:	5291883a 	add	r8,r10,r10
    4990:	4211883a 	add	r8,r8,r8
    4994:	42400104 	addi	r9,r8,4
    4998:	1a53883a 	add	r9,r3,r9
    499c:	22000017 	ldw	r8,0(r4)
    49a0:	39c00104 	addi	r7,r7,4
    49a4:	21000104 	addi	r4,r4,4
    49a8:	3a3fff15 	stw	r8,-4(r7)
    49ac:	3a7ffb1e 	bne	r7,r9,499c <__alt_data_end+0xfe00499c>
    49b0:	51000044 	addi	r4,r10,1
    49b4:	2109883a 	add	r4,r4,r4
    49b8:	2109883a 	add	r4,r4,r4
    49bc:	318000cc 	andi	r6,r6,3
    49c0:	1907883a 	add	r3,r3,r4
    49c4:	290b883a 	add	r5,r5,r4
    49c8:	30000c26 	beq	r6,zero,49fc <memmove+0x12c>
    49cc:	198d883a 	add	r6,r3,r6
    49d0:	29c00003 	ldbu	r7,0(r5)
    49d4:	18c00044 	addi	r3,r3,1
    49d8:	29400044 	addi	r5,r5,1
    49dc:	19ffffc5 	stb	r7,-1(r3)
    49e0:	19bffb1e 	bne	r3,r6,49d0 <__alt_data_end+0xfe0049d0>
    49e4:	f800283a 	ret
    49e8:	1007883a 	mov	r3,r2
    49ec:	303ff71e 	bne	r6,zero,49cc <__alt_data_end+0xfe0049cc>
    49f0:	00000206 	br	49fc <memmove+0x12c>
    49f4:	1007883a 	mov	r3,r2
    49f8:	003ff406 	br	49cc <__alt_data_end+0xfe0049cc>
    49fc:	f800283a 	ret
    4a00:	500d883a 	mov	r6,r10
    4a04:	303ff11e 	bne	r6,zero,49cc <__alt_data_end+0xfe0049cc>
    4a08:	003ffc06 	br	49fc <__alt_data_end+0xfe0049fc>

00004a0c <memset>:
    4a0c:	20c000cc 	andi	r3,r4,3
    4a10:	2005883a 	mov	r2,r4
    4a14:	18003f26 	beq	r3,zero,4b14 <memset+0x108>
    4a18:	31ffffc4 	addi	r7,r6,-1
    4a1c:	30003b26 	beq	r6,zero,4b0c <memset+0x100>
    4a20:	2813883a 	mov	r9,r5
    4a24:	200d883a 	mov	r6,r4
    4a28:	2007883a 	mov	r3,r4
    4a2c:	00000406 	br	4a40 <memset+0x34>
    4a30:	3a3fffc4 	addi	r8,r7,-1
    4a34:	31800044 	addi	r6,r6,1
    4a38:	38003426 	beq	r7,zero,4b0c <memset+0x100>
    4a3c:	400f883a 	mov	r7,r8
    4a40:	18c00044 	addi	r3,r3,1
    4a44:	32400005 	stb	r9,0(r6)
    4a48:	1a0000cc 	andi	r8,r3,3
    4a4c:	403ff81e 	bne	r8,zero,4a30 <__alt_data_end+0xfe004a30>
    4a50:	010000c4 	movi	r4,3
    4a54:	21c0282e 	bgeu	r4,r7,4af8 <memset+0xec>
    4a58:	29003fcc 	andi	r4,r5,255
    4a5c:	2010923a 	slli	r8,r4,8
    4a60:	4108b03a 	or	r4,r8,r4
    4a64:	2010943a 	slli	r8,r4,16
    4a68:	4110b03a 	or	r8,r8,r4
    4a6c:	010003c4 	movi	r4,15
    4a70:	21c0122e 	bgeu	r4,r7,4abc <memset+0xb0>
    4a74:	3a7ffc04 	addi	r9,r7,-16
    4a78:	4812d13a 	srli	r9,r9,4
    4a7c:	19000404 	addi	r4,r3,16
    4a80:	180d883a 	mov	r6,r3
    4a84:	4814913a 	slli	r10,r9,4
    4a88:	2289883a 	add	r4,r4,r10
    4a8c:	32000015 	stw	r8,0(r6)
    4a90:	32000115 	stw	r8,4(r6)
    4a94:	32000215 	stw	r8,8(r6)
    4a98:	32000315 	stw	r8,12(r6)
    4a9c:	31800404 	addi	r6,r6,16
    4aa0:	313ffa1e 	bne	r6,r4,4a8c <__alt_data_end+0xfe004a8c>
    4aa4:	4a400044 	addi	r9,r9,1
    4aa8:	4812913a 	slli	r9,r9,4
    4aac:	39c003cc 	andi	r7,r7,15
    4ab0:	010000c4 	movi	r4,3
    4ab4:	1a47883a 	add	r3,r3,r9
    4ab8:	21c00f2e 	bgeu	r4,r7,4af8 <memset+0xec>
    4abc:	3a7fff04 	addi	r9,r7,-4
    4ac0:	4812d0ba 	srli	r9,r9,2
    4ac4:	19000104 	addi	r4,r3,4
    4ac8:	180d883a 	mov	r6,r3
    4acc:	4a55883a 	add	r10,r9,r9
    4ad0:	5295883a 	add	r10,r10,r10
    4ad4:	2289883a 	add	r4,r4,r10
    4ad8:	32000015 	stw	r8,0(r6)
    4adc:	31800104 	addi	r6,r6,4
    4ae0:	313ffd1e 	bne	r6,r4,4ad8 <__alt_data_end+0xfe004ad8>
    4ae4:	4a400044 	addi	r9,r9,1
    4ae8:	4a53883a 	add	r9,r9,r9
    4aec:	4a53883a 	add	r9,r9,r9
    4af0:	1a47883a 	add	r3,r3,r9
    4af4:	39c000cc 	andi	r7,r7,3
    4af8:	38000526 	beq	r7,zero,4b10 <memset+0x104>
    4afc:	19cf883a 	add	r7,r3,r7
    4b00:	19400005 	stb	r5,0(r3)
    4b04:	18c00044 	addi	r3,r3,1
    4b08:	19fffd1e 	bne	r3,r7,4b00 <__alt_data_end+0xfe004b00>
    4b0c:	f800283a 	ret
    4b10:	f800283a 	ret
    4b14:	2007883a 	mov	r3,r4
    4b18:	300f883a 	mov	r7,r6
    4b1c:	003fcc06 	br	4a50 <__alt_data_end+0xfe004a50>

00004b20 <_realloc_r>:
    4b20:	defff604 	addi	sp,sp,-40
    4b24:	dd000415 	stw	r20,16(sp)
    4b28:	dc000015 	stw	r16,0(sp)
    4b2c:	dfc00915 	stw	ra,36(sp)
    4b30:	df000815 	stw	fp,32(sp)
    4b34:	ddc00715 	stw	r23,28(sp)
    4b38:	dd800615 	stw	r22,24(sp)
    4b3c:	dd400515 	stw	r21,20(sp)
    4b40:	dcc00315 	stw	r19,12(sp)
    4b44:	dc800215 	stw	r18,8(sp)
    4b48:	dc400115 	stw	r17,4(sp)
    4b4c:	2821883a 	mov	r16,r5
    4b50:	3029883a 	mov	r20,r6
    4b54:	28009a26 	beq	r5,zero,4dc0 <_realloc_r+0x2a0>
    4b58:	202b883a 	mov	r21,r4
    4b5c:	00126c80 	call	126c8 <__malloc_lock>
    4b60:	80ffff17 	ldw	r3,-4(r16)
    4b64:	047fff04 	movi	r17,-4
    4b68:	a08002c4 	addi	r2,r20,11
    4b6c:	01000584 	movi	r4,22
    4b70:	84fffe04 	addi	r19,r16,-8
    4b74:	1c62703a 	and	r17,r3,r17
    4b78:	2080372e 	bgeu	r4,r2,4c58 <_realloc_r+0x138>
    4b7c:	04bffe04 	movi	r18,-8
    4b80:	14a4703a 	and	r18,r2,r18
    4b84:	9005883a 	mov	r2,r18
    4b88:	90005b16 	blt	r18,zero,4cf8 <_realloc_r+0x1d8>
    4b8c:	95005a36 	bltu	r18,r20,4cf8 <_realloc_r+0x1d8>
    4b90:	8880340e 	bge	r17,r2,4c64 <_realloc_r+0x144>
    4b94:	05c00074 	movhi	r23,1
    4b98:	bdd63504 	addi	r23,r23,22740
    4b9c:	b9000217 	ldw	r4,8(r23)
    4ba0:	9c4b883a 	add	r5,r19,r17
    4ba4:	21409626 	beq	r4,r5,4e00 <_realloc_r+0x2e0>
    4ba8:	29800117 	ldw	r6,4(r5)
    4bac:	01ffff84 	movi	r7,-2
    4bb0:	31ce703a 	and	r7,r6,r7
    4bb4:	29cf883a 	add	r7,r5,r7
    4bb8:	39c00117 	ldw	r7,4(r7)
    4bbc:	39c0004c 	andi	r7,r7,1
    4bc0:	38004226 	beq	r7,zero,4ccc <_realloc_r+0x1ac>
    4bc4:	000d883a 	mov	r6,zero
    4bc8:	000b883a 	mov	r5,zero
    4bcc:	18c0004c 	andi	r3,r3,1
    4bd0:	18005c1e 	bne	r3,zero,4d44 <_realloc_r+0x224>
    4bd4:	85bffe17 	ldw	r22,-8(r16)
    4bd8:	00ffff04 	movi	r3,-4
    4bdc:	9dadc83a 	sub	r22,r19,r22
    4be0:	b1c00117 	ldw	r7,4(r22)
    4be4:	38c6703a 	and	r3,r7,r3
    4be8:	28005426 	beq	r5,zero,4d3c <_realloc_r+0x21c>
    4bec:	1c47883a 	add	r3,r3,r17
    4bf0:	2900bf26 	beq	r5,r4,4ef0 <_realloc_r+0x3d0>
    4bf4:	30ef883a 	add	r23,r6,r3
    4bf8:	b8807e16 	blt	r23,r2,4df4 <_realloc_r+0x2d4>
    4bfc:	28800317 	ldw	r2,12(r5)
    4c00:	28c00217 	ldw	r3,8(r5)
    4c04:	89bfff04 	addi	r6,r17,-4
    4c08:	01000904 	movi	r4,36
    4c0c:	18800315 	stw	r2,12(r3)
    4c10:	10c00215 	stw	r3,8(r2)
    4c14:	b1400217 	ldw	r5,8(r22)
    4c18:	b0c00317 	ldw	r3,12(r22)
    4c1c:	b5000204 	addi	r20,r22,8
    4c20:	28c00315 	stw	r3,12(r5)
    4c24:	19400215 	stw	r5,8(r3)
    4c28:	21808536 	bltu	r4,r6,4e40 <_realloc_r+0x320>
    4c2c:	008004c4 	movi	r2,19
    4c30:	1180932e 	bgeu	r2,r6,4e80 <_realloc_r+0x360>
    4c34:	80800017 	ldw	r2,0(r16)
    4c38:	b0800215 	stw	r2,8(r22)
    4c3c:	80800117 	ldw	r2,4(r16)
    4c40:	b0800315 	stw	r2,12(r22)
    4c44:	008006c4 	movi	r2,27
    4c48:	1180df36 	bltu	r2,r6,4fc8 <_realloc_r+0x4a8>
    4c4c:	b0c00404 	addi	r3,r22,16
    4c50:	84000204 	addi	r16,r16,8
    4c54:	00008b06 	br	4e84 <_realloc_r+0x364>
    4c58:	00800404 	movi	r2,16
    4c5c:	1025883a 	mov	r18,r2
    4c60:	003fca06 	br	4b8c <__alt_data_end+0xfe004b8c>
    4c64:	8029883a 	mov	r20,r16
    4c68:	8c8dc83a 	sub	r6,r17,r18
    4c6c:	008003c4 	movi	r2,15
    4c70:	18c0004c 	andi	r3,r3,1
    4c74:	11802436 	bltu	r2,r6,4d08 <_realloc_r+0x1e8>
    4c78:	1c46b03a 	or	r3,r3,r17
    4c7c:	98c00115 	stw	r3,4(r19)
    4c80:	9c63883a 	add	r17,r19,r17
    4c84:	88800117 	ldw	r2,4(r17)
    4c88:	10800054 	ori	r2,r2,1
    4c8c:	88800115 	stw	r2,4(r17)
    4c90:	a809883a 	mov	r4,r21
    4c94:	00126e80 	call	126e8 <__malloc_unlock>
    4c98:	a005883a 	mov	r2,r20
    4c9c:	dfc00917 	ldw	ra,36(sp)
    4ca0:	df000817 	ldw	fp,32(sp)
    4ca4:	ddc00717 	ldw	r23,28(sp)
    4ca8:	dd800617 	ldw	r22,24(sp)
    4cac:	dd400517 	ldw	r21,20(sp)
    4cb0:	dd000417 	ldw	r20,16(sp)
    4cb4:	dcc00317 	ldw	r19,12(sp)
    4cb8:	dc800217 	ldw	r18,8(sp)
    4cbc:	dc400117 	ldw	r17,4(sp)
    4cc0:	dc000017 	ldw	r16,0(sp)
    4cc4:	dec00a04 	addi	sp,sp,40
    4cc8:	f800283a 	ret
    4ccc:	01ffff04 	movi	r7,-4
    4cd0:	31cc703a 	and	r6,r6,r7
    4cd4:	344f883a 	add	r7,r6,r17
    4cd8:	38bfbc16 	blt	r7,r2,4bcc <__alt_data_end+0xfe004bcc>
    4cdc:	28800317 	ldw	r2,12(r5)
    4ce0:	29000217 	ldw	r4,8(r5)
    4ce4:	8029883a 	mov	r20,r16
    4ce8:	3823883a 	mov	r17,r7
    4cec:	20800315 	stw	r2,12(r4)
    4cf0:	11000215 	stw	r4,8(r2)
    4cf4:	003fdc06 	br	4c68 <__alt_data_end+0xfe004c68>
    4cf8:	00800304 	movi	r2,12
    4cfc:	a8800015 	stw	r2,0(r21)
    4d00:	0005883a 	mov	r2,zero
    4d04:	003fe506 	br	4c9c <__alt_data_end+0xfe004c9c>
    4d08:	1c86b03a 	or	r3,r3,r18
    4d0c:	9c8b883a 	add	r5,r19,r18
    4d10:	98c00115 	stw	r3,4(r19)
    4d14:	30800054 	ori	r2,r6,1
    4d18:	28800115 	stw	r2,4(r5)
    4d1c:	298d883a 	add	r6,r5,r6
    4d20:	30800117 	ldw	r2,4(r6)
    4d24:	a809883a 	mov	r4,r21
    4d28:	29400204 	addi	r5,r5,8
    4d2c:	10800054 	ori	r2,r2,1
    4d30:	30800115 	stw	r2,4(r6)
    4d34:	00032fc0 	call	32fc <_free_r>
    4d38:	003fd506 	br	4c90 <__alt_data_end+0xfe004c90>
    4d3c:	1c6f883a 	add	r23,r3,r17
    4d40:	b880370e 	bge	r23,r2,4e20 <_realloc_r+0x300>
    4d44:	a00b883a 	mov	r5,r20
    4d48:	a809883a 	mov	r4,r21
    4d4c:	0003cdc0 	call	3cdc <_malloc_r>
    4d50:	1029883a 	mov	r20,r2
    4d54:	1000c026 	beq	r2,zero,5058 <_realloc_r+0x538>
    4d58:	80ffff17 	ldw	r3,-4(r16)
    4d5c:	113ffe04 	addi	r4,r2,-8
    4d60:	00bfff84 	movi	r2,-2
    4d64:	1884703a 	and	r2,r3,r2
    4d68:	9885883a 	add	r2,r19,r2
    4d6c:	20809026 	beq	r4,r2,4fb0 <_realloc_r+0x490>
    4d70:	89bfff04 	addi	r6,r17,-4
    4d74:	00800904 	movi	r2,36
    4d78:	11805936 	bltu	r2,r6,4ee0 <_realloc_r+0x3c0>
    4d7c:	00c004c4 	movi	r3,19
    4d80:	19803636 	bltu	r3,r6,4e5c <_realloc_r+0x33c>
    4d84:	a005883a 	mov	r2,r20
    4d88:	8007883a 	mov	r3,r16
    4d8c:	19000017 	ldw	r4,0(r3)
    4d90:	11000015 	stw	r4,0(r2)
    4d94:	19000117 	ldw	r4,4(r3)
    4d98:	11000115 	stw	r4,4(r2)
    4d9c:	18c00217 	ldw	r3,8(r3)
    4da0:	10c00215 	stw	r3,8(r2)
    4da4:	800b883a 	mov	r5,r16
    4da8:	a809883a 	mov	r4,r21
    4dac:	00032fc0 	call	32fc <_free_r>
    4db0:	a809883a 	mov	r4,r21
    4db4:	00126e80 	call	126e8 <__malloc_unlock>
    4db8:	a005883a 	mov	r2,r20
    4dbc:	003fb706 	br	4c9c <__alt_data_end+0xfe004c9c>
    4dc0:	300b883a 	mov	r5,r6
    4dc4:	dfc00917 	ldw	ra,36(sp)
    4dc8:	df000817 	ldw	fp,32(sp)
    4dcc:	ddc00717 	ldw	r23,28(sp)
    4dd0:	dd800617 	ldw	r22,24(sp)
    4dd4:	dd400517 	ldw	r21,20(sp)
    4dd8:	dd000417 	ldw	r20,16(sp)
    4ddc:	dcc00317 	ldw	r19,12(sp)
    4de0:	dc800217 	ldw	r18,8(sp)
    4de4:	dc400117 	ldw	r17,4(sp)
    4de8:	dc000017 	ldw	r16,0(sp)
    4dec:	dec00a04 	addi	sp,sp,40
    4df0:	0003cdc1 	jmpi	3cdc <_malloc_r>
    4df4:	182f883a 	mov	r23,r3
    4df8:	b8bfd216 	blt	r23,r2,4d44 <__alt_data_end+0xfe004d44>
    4dfc:	00000806 	br	4e20 <_realloc_r+0x300>
    4e00:	21800117 	ldw	r6,4(r4)
    4e04:	017fff04 	movi	r5,-4
    4e08:	91c00404 	addi	r7,r18,16
    4e0c:	314c703a 	and	r6,r6,r5
    4e10:	344b883a 	add	r5,r6,r17
    4e14:	29c0250e 	bge	r5,r7,4eac <_realloc_r+0x38c>
    4e18:	200b883a 	mov	r5,r4
    4e1c:	003f6b06 	br	4bcc <__alt_data_end+0xfe004bcc>
    4e20:	b0800317 	ldw	r2,12(r22)
    4e24:	b0c00217 	ldw	r3,8(r22)
    4e28:	89bfff04 	addi	r6,r17,-4
    4e2c:	01000904 	movi	r4,36
    4e30:	18800315 	stw	r2,12(r3)
    4e34:	10c00215 	stw	r3,8(r2)
    4e38:	b5000204 	addi	r20,r22,8
    4e3c:	21bf7b2e 	bgeu	r4,r6,4c2c <__alt_data_end+0xfe004c2c>
    4e40:	a009883a 	mov	r4,r20
    4e44:	800b883a 	mov	r5,r16
    4e48:	00048d00 	call	48d0 <memmove>
    4e4c:	b0c00117 	ldw	r3,4(r22)
    4e50:	b823883a 	mov	r17,r23
    4e54:	b027883a 	mov	r19,r22
    4e58:	003f8306 	br	4c68 <__alt_data_end+0xfe004c68>
    4e5c:	80c00017 	ldw	r3,0(r16)
    4e60:	a0c00015 	stw	r3,0(r20)
    4e64:	80c00117 	ldw	r3,4(r16)
    4e68:	a0c00115 	stw	r3,4(r20)
    4e6c:	00c006c4 	movi	r3,27
    4e70:	19804736 	bltu	r3,r6,4f90 <_realloc_r+0x470>
    4e74:	a0800204 	addi	r2,r20,8
    4e78:	80c00204 	addi	r3,r16,8
    4e7c:	003fc306 	br	4d8c <__alt_data_end+0xfe004d8c>
    4e80:	a007883a 	mov	r3,r20
    4e84:	80800017 	ldw	r2,0(r16)
    4e88:	b823883a 	mov	r17,r23
    4e8c:	b027883a 	mov	r19,r22
    4e90:	18800015 	stw	r2,0(r3)
    4e94:	80800117 	ldw	r2,4(r16)
    4e98:	18800115 	stw	r2,4(r3)
    4e9c:	80800217 	ldw	r2,8(r16)
    4ea0:	18800215 	stw	r2,8(r3)
    4ea4:	b0c00117 	ldw	r3,4(r22)
    4ea8:	003f6f06 	br	4c68 <__alt_data_end+0xfe004c68>
    4eac:	9ca7883a 	add	r19,r19,r18
    4eb0:	2c85c83a 	sub	r2,r5,r18
    4eb4:	bcc00215 	stw	r19,8(r23)
    4eb8:	10800054 	ori	r2,r2,1
    4ebc:	98800115 	stw	r2,4(r19)
    4ec0:	80bfff17 	ldw	r2,-4(r16)
    4ec4:	a809883a 	mov	r4,r21
    4ec8:	1080004c 	andi	r2,r2,1
    4ecc:	90a4b03a 	or	r18,r18,r2
    4ed0:	84bfff15 	stw	r18,-4(r16)
    4ed4:	00126e80 	call	126e8 <__malloc_unlock>
    4ed8:	8005883a 	mov	r2,r16
    4edc:	003f6f06 	br	4c9c <__alt_data_end+0xfe004c9c>
    4ee0:	a009883a 	mov	r4,r20
    4ee4:	800b883a 	mov	r5,r16
    4ee8:	00048d00 	call	48d0 <memmove>
    4eec:	003fad06 	br	4da4 <__alt_data_end+0xfe004da4>
    4ef0:	30f9883a 	add	fp,r6,r3
    4ef4:	91000404 	addi	r4,r18,16
    4ef8:	e13fbe16 	blt	fp,r4,4df4 <__alt_data_end+0xfe004df4>
    4efc:	b0800317 	ldw	r2,12(r22)
    4f00:	b0c00217 	ldw	r3,8(r22)
    4f04:	89bfff04 	addi	r6,r17,-4
    4f08:	01000904 	movi	r4,36
    4f0c:	18800315 	stw	r2,12(r3)
    4f10:	10c00215 	stw	r3,8(r2)
    4f14:	b4400204 	addi	r17,r22,8
    4f18:	21804336 	bltu	r4,r6,5028 <_realloc_r+0x508>
    4f1c:	008004c4 	movi	r2,19
    4f20:	11803f2e 	bgeu	r2,r6,5020 <_realloc_r+0x500>
    4f24:	80800017 	ldw	r2,0(r16)
    4f28:	b0800215 	stw	r2,8(r22)
    4f2c:	80800117 	ldw	r2,4(r16)
    4f30:	b0800315 	stw	r2,12(r22)
    4f34:	008006c4 	movi	r2,27
    4f38:	11803f36 	bltu	r2,r6,5038 <_realloc_r+0x518>
    4f3c:	b0c00404 	addi	r3,r22,16
    4f40:	84000204 	addi	r16,r16,8
    4f44:	80800017 	ldw	r2,0(r16)
    4f48:	18800015 	stw	r2,0(r3)
    4f4c:	80800117 	ldw	r2,4(r16)
    4f50:	18800115 	stw	r2,4(r3)
    4f54:	80800217 	ldw	r2,8(r16)
    4f58:	18800215 	stw	r2,8(r3)
    4f5c:	b487883a 	add	r3,r22,r18
    4f60:	e485c83a 	sub	r2,fp,r18
    4f64:	b8c00215 	stw	r3,8(r23)
    4f68:	10800054 	ori	r2,r2,1
    4f6c:	18800115 	stw	r2,4(r3)
    4f70:	b0800117 	ldw	r2,4(r22)
    4f74:	a809883a 	mov	r4,r21
    4f78:	1080004c 	andi	r2,r2,1
    4f7c:	90a4b03a 	or	r18,r18,r2
    4f80:	b4800115 	stw	r18,4(r22)
    4f84:	00126e80 	call	126e8 <__malloc_unlock>
    4f88:	8805883a 	mov	r2,r17
    4f8c:	003f4306 	br	4c9c <__alt_data_end+0xfe004c9c>
    4f90:	80c00217 	ldw	r3,8(r16)
    4f94:	a0c00215 	stw	r3,8(r20)
    4f98:	80c00317 	ldw	r3,12(r16)
    4f9c:	a0c00315 	stw	r3,12(r20)
    4fa0:	30801126 	beq	r6,r2,4fe8 <_realloc_r+0x4c8>
    4fa4:	a0800404 	addi	r2,r20,16
    4fa8:	80c00404 	addi	r3,r16,16
    4fac:	003f7706 	br	4d8c <__alt_data_end+0xfe004d8c>
    4fb0:	a13fff17 	ldw	r4,-4(r20)
    4fb4:	00bfff04 	movi	r2,-4
    4fb8:	8029883a 	mov	r20,r16
    4fbc:	2084703a 	and	r2,r4,r2
    4fc0:	88a3883a 	add	r17,r17,r2
    4fc4:	003f2806 	br	4c68 <__alt_data_end+0xfe004c68>
    4fc8:	80800217 	ldw	r2,8(r16)
    4fcc:	b0800415 	stw	r2,16(r22)
    4fd0:	80800317 	ldw	r2,12(r16)
    4fd4:	b0800515 	stw	r2,20(r22)
    4fd8:	31000a26 	beq	r6,r4,5004 <_realloc_r+0x4e4>
    4fdc:	b0c00604 	addi	r3,r22,24
    4fe0:	84000404 	addi	r16,r16,16
    4fe4:	003fa706 	br	4e84 <__alt_data_end+0xfe004e84>
    4fe8:	81000417 	ldw	r4,16(r16)
    4fec:	a0800604 	addi	r2,r20,24
    4ff0:	80c00604 	addi	r3,r16,24
    4ff4:	a1000415 	stw	r4,16(r20)
    4ff8:	81000517 	ldw	r4,20(r16)
    4ffc:	a1000515 	stw	r4,20(r20)
    5000:	003f6206 	br	4d8c <__alt_data_end+0xfe004d8c>
    5004:	80800417 	ldw	r2,16(r16)
    5008:	84000604 	addi	r16,r16,24
    500c:	b0c00804 	addi	r3,r22,32
    5010:	b0800615 	stw	r2,24(r22)
    5014:	80bfff17 	ldw	r2,-4(r16)
    5018:	b0800715 	stw	r2,28(r22)
    501c:	003f9906 	br	4e84 <__alt_data_end+0xfe004e84>
    5020:	8807883a 	mov	r3,r17
    5024:	003fc706 	br	4f44 <__alt_data_end+0xfe004f44>
    5028:	8809883a 	mov	r4,r17
    502c:	800b883a 	mov	r5,r16
    5030:	00048d00 	call	48d0 <memmove>
    5034:	003fc906 	br	4f5c <__alt_data_end+0xfe004f5c>
    5038:	80800217 	ldw	r2,8(r16)
    503c:	b0800415 	stw	r2,16(r22)
    5040:	80800317 	ldw	r2,12(r16)
    5044:	b0800515 	stw	r2,20(r22)
    5048:	31000726 	beq	r6,r4,5068 <_realloc_r+0x548>
    504c:	b0c00604 	addi	r3,r22,24
    5050:	84000404 	addi	r16,r16,16
    5054:	003fbb06 	br	4f44 <__alt_data_end+0xfe004f44>
    5058:	a809883a 	mov	r4,r21
    505c:	00126e80 	call	126e8 <__malloc_unlock>
    5060:	0005883a 	mov	r2,zero
    5064:	003f0d06 	br	4c9c <__alt_data_end+0xfe004c9c>
    5068:	80800417 	ldw	r2,16(r16)
    506c:	84000604 	addi	r16,r16,24
    5070:	b0c00804 	addi	r3,r22,32
    5074:	b0800615 	stw	r2,24(r22)
    5078:	80bfff17 	ldw	r2,-4(r16)
    507c:	b0800715 	stw	r2,28(r22)
    5080:	003fb006 	br	4f44 <__alt_data_end+0xfe004f44>

00005084 <lflush>:
    5084:	20c0030b 	ldhu	r3,12(r4)
    5088:	00800244 	movi	r2,9
    508c:	18c0024c 	andi	r3,r3,9
    5090:	18800226 	beq	r3,r2,509c <lflush+0x18>
    5094:	0005883a 	mov	r2,zero
    5098:	f800283a 	ret
    509c:	000b7a81 	jmpi	b7a8 <fflush>

000050a0 <__srefill_r>:
    50a0:	defffd04 	addi	sp,sp,-12
    50a4:	dc400115 	stw	r17,4(sp)
    50a8:	dc000015 	stw	r16,0(sp)
    50ac:	dfc00215 	stw	ra,8(sp)
    50b0:	2023883a 	mov	r17,r4
    50b4:	2821883a 	mov	r16,r5
    50b8:	20000226 	beq	r4,zero,50c4 <__srefill_r+0x24>
    50bc:	20800e17 	ldw	r2,56(r4)
    50c0:	10003f26 	beq	r2,zero,51c0 <__srefill_r+0x120>
    50c4:	8080030b 	ldhu	r2,12(r16)
    50c8:	1108000c 	andi	r4,r2,8192
    50cc:	1007883a 	mov	r3,r2
    50d0:	2000071e 	bne	r4,zero,50f0 <__srefill_r+0x50>
    50d4:	81001917 	ldw	r4,100(r16)
    50d8:	10c80014 	ori	r3,r2,8192
    50dc:	00b7ffc4 	movi	r2,-8193
    50e0:	2088703a 	and	r4,r4,r2
    50e4:	80c0030d 	sth	r3,12(r16)
    50e8:	1805883a 	mov	r2,r3
    50ec:	81001915 	stw	r4,100(r16)
    50f0:	80000115 	stw	zero,4(r16)
    50f4:	1900080c 	andi	r4,r3,32
    50f8:	2000591e 	bne	r4,zero,5260 <__srefill_r+0x1c0>
    50fc:	1900010c 	andi	r4,r3,4
    5100:	20001e26 	beq	r4,zero,517c <__srefill_r+0xdc>
    5104:	81400c17 	ldw	r5,48(r16)
    5108:	28000826 	beq	r5,zero,512c <__srefill_r+0x8c>
    510c:	80801004 	addi	r2,r16,64
    5110:	28800226 	beq	r5,r2,511c <__srefill_r+0x7c>
    5114:	8809883a 	mov	r4,r17
    5118:	00032fc0 	call	32fc <_free_r>
    511c:	80800f17 	ldw	r2,60(r16)
    5120:	80000c15 	stw	zero,48(r16)
    5124:	80800115 	stw	r2,4(r16)
    5128:	1000371e 	bne	r2,zero,5208 <__srefill_r+0x168>
    512c:	80800417 	ldw	r2,16(r16)
    5130:	10004d26 	beq	r2,zero,5268 <__srefill_r+0x1c8>
    5134:	8080030b 	ldhu	r2,12(r16)
    5138:	108000cc 	andi	r2,r2,3
    513c:	1000221e 	bne	r2,zero,51c8 <__srefill_r+0x128>
    5140:	81800417 	ldw	r6,16(r16)
    5144:	80800817 	ldw	r2,32(r16)
    5148:	81400717 	ldw	r5,28(r16)
    514c:	81c00517 	ldw	r7,20(r16)
    5150:	81800015 	stw	r6,0(r16)
    5154:	8809883a 	mov	r4,r17
    5158:	103ee83a 	callr	r2
    515c:	80800115 	stw	r2,4(r16)
    5160:	00800d0e 	bge	zero,r2,5198 <__srefill_r+0xf8>
    5164:	0005883a 	mov	r2,zero
    5168:	dfc00217 	ldw	ra,8(sp)
    516c:	dc400117 	ldw	r17,4(sp)
    5170:	dc000017 	ldw	r16,0(sp)
    5174:	dec00304 	addi	sp,sp,12
    5178:	f800283a 	ret
    517c:	1900040c 	andi	r4,r3,16
    5180:	20003326 	beq	r4,zero,5250 <__srefill_r+0x1b0>
    5184:	18c0020c 	andi	r3,r3,8
    5188:	1800271e 	bne	r3,zero,5228 <__srefill_r+0x188>
    518c:	10800114 	ori	r2,r2,4
    5190:	8080030d 	sth	r2,12(r16)
    5194:	003fe506 	br	512c <__alt_data_end+0xfe00512c>
    5198:	80c0030b 	ldhu	r3,12(r16)
    519c:	1000111e 	bne	r2,zero,51e4 <__srefill_r+0x144>
    51a0:	00bfffc4 	movi	r2,-1
    51a4:	18c00814 	ori	r3,r3,32
    51a8:	80c0030d 	sth	r3,12(r16)
    51ac:	dfc00217 	ldw	ra,8(sp)
    51b0:	dc400117 	ldw	r17,4(sp)
    51b4:	dc000017 	ldw	r16,0(sp)
    51b8:	dec00304 	addi	sp,sp,12
    51bc:	f800283a 	ret
    51c0:	0002c480 	call	2c48 <__sinit>
    51c4:	003fbf06 	br	50c4 <__alt_data_end+0xfe0050c4>
    51c8:	00800074 	movhi	r2,1
    51cc:	109bcd04 	addi	r2,r2,28468
    51d0:	11000017 	ldw	r4,0(r2)
    51d4:	01400034 	movhi	r5,0
    51d8:	29542104 	addi	r5,r5,20612
    51dc:	0003a780 	call	3a78 <_fwalk>
    51e0:	003fd706 	br	5140 <__alt_data_end+0xfe005140>
    51e4:	00bfffc4 	movi	r2,-1
    51e8:	18c01014 	ori	r3,r3,64
    51ec:	80000115 	stw	zero,4(r16)
    51f0:	80c0030d 	sth	r3,12(r16)
    51f4:	dfc00217 	ldw	ra,8(sp)
    51f8:	dc400117 	ldw	r17,4(sp)
    51fc:	dc000017 	ldw	r16,0(sp)
    5200:	dec00304 	addi	sp,sp,12
    5204:	f800283a 	ret
    5208:	80c00e17 	ldw	r3,56(r16)
    520c:	0005883a 	mov	r2,zero
    5210:	80c00015 	stw	r3,0(r16)
    5214:	dfc00217 	ldw	ra,8(sp)
    5218:	dc400117 	ldw	r17,4(sp)
    521c:	dc000017 	ldw	r16,0(sp)
    5220:	dec00304 	addi	sp,sp,12
    5224:	f800283a 	ret
    5228:	8809883a 	mov	r4,r17
    522c:	800b883a 	mov	r5,r16
    5230:	000b5640 	call	b564 <_fflush_r>
    5234:	10000a1e 	bne	r2,zero,5260 <__srefill_r+0x1c0>
    5238:	8080030b 	ldhu	r2,12(r16)
    523c:	00fffdc4 	movi	r3,-9
    5240:	80000215 	stw	zero,8(r16)
    5244:	1884703a 	and	r2,r3,r2
    5248:	80000615 	stw	zero,24(r16)
    524c:	003fcf06 	br	518c <__alt_data_end+0xfe00518c>
    5250:	00c00244 	movi	r3,9
    5254:	88c00015 	stw	r3,0(r17)
    5258:	10801014 	ori	r2,r2,64
    525c:	8080030d 	sth	r2,12(r16)
    5260:	00bfffc4 	movi	r2,-1
    5264:	003fc006 	br	5168 <__alt_data_end+0xfe005168>
    5268:	8809883a 	mov	r4,r17
    526c:	800b883a 	mov	r5,r16
    5270:	000c4b00 	call	c4b0 <__smakebuf_r>
    5274:	003faf06 	br	5134 <__alt_data_end+0xfe005134>

00005278 <__fpclassifyd>:
    5278:	00a00034 	movhi	r2,32768
    527c:	10bfffc4 	addi	r2,r2,-1
    5280:	288a703a 	and	r5,r5,r2
    5284:	28000726 	beq	r5,zero,52a4 <__fpclassifyd+0x2c>
    5288:	00bffc34 	movhi	r2,65520
    528c:	2885883a 	add	r2,r5,r2
    5290:	00dff834 	movhi	r3,32736
    5294:	18ffffc4 	addi	r3,r3,-1
    5298:	18800636 	bltu	r3,r2,52b4 <__fpclassifyd+0x3c>
    529c:	00800104 	movi	r2,4
    52a0:	f800283a 	ret
    52a4:	2005003a 	cmpeq	r2,r4,zero
    52a8:	00c000c4 	movi	r3,3
    52ac:	1885c83a 	sub	r2,r3,r2
    52b0:	f800283a 	ret
    52b4:	00800434 	movhi	r2,16
    52b8:	10bfffc4 	addi	r2,r2,-1
    52bc:	11400236 	bltu	r2,r5,52c8 <__fpclassifyd+0x50>
    52c0:	008000c4 	movi	r2,3
    52c4:	f800283a 	ret
    52c8:	009ffc34 	movhi	r2,32752
    52cc:	28800226 	beq	r5,r2,52d8 <__fpclassifyd+0x60>
    52d0:	0005883a 	mov	r2,zero
    52d4:	f800283a 	ret
    52d8:	2005003a 	cmpeq	r2,r4,zero
    52dc:	f800283a 	ret

000052e0 <_sbrk_r>:
    52e0:	defffd04 	addi	sp,sp,-12
    52e4:	dc400115 	stw	r17,4(sp)
    52e8:	dc000015 	stw	r16,0(sp)
    52ec:	2023883a 	mov	r17,r4
    52f0:	040000b4 	movhi	r16,2
    52f4:	8422d804 	addi	r16,r16,-29856
    52f8:	2809883a 	mov	r4,r5
    52fc:	dfc00215 	stw	ra,8(sp)
    5300:	80000015 	stw	zero,0(r16)
    5304:	00128a80 	call	128a8 <sbrk>
    5308:	00ffffc4 	movi	r3,-1
    530c:	10c00526 	beq	r2,r3,5324 <_sbrk_r+0x44>
    5310:	dfc00217 	ldw	ra,8(sp)
    5314:	dc400117 	ldw	r17,4(sp)
    5318:	dc000017 	ldw	r16,0(sp)
    531c:	dec00304 	addi	sp,sp,12
    5320:	f800283a 	ret
    5324:	80c00017 	ldw	r3,0(r16)
    5328:	183ff926 	beq	r3,zero,5310 <__alt_data_end+0xfe005310>
    532c:	88c00015 	stw	r3,0(r17)
    5330:	dfc00217 	ldw	ra,8(sp)
    5334:	dc400117 	ldw	r17,4(sp)
    5338:	dc000017 	ldw	r16,0(sp)
    533c:	dec00304 	addi	sp,sp,12
    5340:	f800283a 	ret

00005344 <__sccl>:
    5344:	2a000003 	ldbu	r8,0(r5)
    5348:	00801784 	movi	r2,94
    534c:	40802626 	beq	r8,r2,53e8 <__sccl+0xa4>
    5350:	28800044 	addi	r2,r5,1
    5354:	000f883a 	mov	r7,zero
    5358:	0013883a 	mov	r9,zero
    535c:	0007883a 	mov	r3,zero
    5360:	01804004 	movi	r6,256
    5364:	20cb883a 	add	r5,r4,r3
    5368:	29c00005 	stb	r7,0(r5)
    536c:	18c00044 	addi	r3,r3,1
    5370:	19bffc1e 	bne	r3,r6,5364 <__alt_data_end+0xfe005364>
    5374:	40000f26 	beq	r8,zero,53b4 <__sccl+0x70>
    5378:	01400044 	movi	r5,1
    537c:	2a4bc83a 	sub	r5,r5,r9
    5380:	01c00b44 	movi	r7,45
    5384:	02801744 	movi	r10,93
    5388:	2207883a 	add	r3,r4,r8
    538c:	19400005 	stb	r5,0(r3)
    5390:	10c00003 	ldbu	r3,0(r2)
    5394:	12400044 	addi	r9,r2,1
    5398:	19c00a26 	beq	r3,r7,53c4 <__sccl+0x80>
    539c:	1a800726 	beq	r3,r10,53bc <__sccl+0x78>
    53a0:	18000326 	beq	r3,zero,53b0 <__sccl+0x6c>
    53a4:	1811883a 	mov	r8,r3
    53a8:	4805883a 	mov	r2,r9
    53ac:	003ff606 	br	5388 <__alt_data_end+0xfe005388>
    53b0:	f800283a 	ret
    53b4:	10bfffc4 	addi	r2,r2,-1
    53b8:	f800283a 	ret
    53bc:	4805883a 	mov	r2,r9
    53c0:	f800283a 	ret
    53c4:	11800043 	ldbu	r6,1(r2)
    53c8:	32800c26 	beq	r6,r10,53fc <__sccl+0xb8>
    53cc:	32000b16 	blt	r6,r8,53fc <__sccl+0xb8>
    53d0:	10800084 	addi	r2,r2,2
    53d4:	42000044 	addi	r8,r8,1
    53d8:	2207883a 	add	r3,r4,r8
    53dc:	19400005 	stb	r5,0(r3)
    53e0:	41bffc16 	blt	r8,r6,53d4 <__alt_data_end+0xfe0053d4>
    53e4:	003fea06 	br	5390 <__alt_data_end+0xfe005390>
    53e8:	2a000043 	ldbu	r8,1(r5)
    53ec:	28800084 	addi	r2,r5,2
    53f0:	01c00044 	movi	r7,1
    53f4:	02400044 	movi	r9,1
    53f8:	003fd806 	br	535c <__alt_data_end+0xfe00535c>
    53fc:	3811883a 	mov	r8,r7
    5400:	4805883a 	mov	r2,r9
    5404:	003fe006 	br	5388 <__alt_data_end+0xfe005388>

00005408 <nanf>:
    5408:	009ff034 	movhi	r2,32704
    540c:	f800283a 	ret

00005410 <_sprintf_r>:
    5410:	deffe404 	addi	sp,sp,-112
    5414:	2807883a 	mov	r3,r5
    5418:	dfc01a15 	stw	ra,104(sp)
    541c:	d9c01b15 	stw	r7,108(sp)
    5420:	00a00034 	movhi	r2,32768
    5424:	10bfffc4 	addi	r2,r2,-1
    5428:	02008204 	movi	r8,520
    542c:	d8800215 	stw	r2,8(sp)
    5430:	d8800515 	stw	r2,20(sp)
    5434:	d80b883a 	mov	r5,sp
    5438:	d9c01b04 	addi	r7,sp,108
    543c:	00bfffc4 	movi	r2,-1
    5440:	d8c00015 	stw	r3,0(sp)
    5444:	d8c00415 	stw	r3,16(sp)
    5448:	da00030d 	sth	r8,12(sp)
    544c:	d880038d 	sth	r2,14(sp)
    5450:	00078500 	call	7850 <___svfprintf_internal_r>
    5454:	d8c00017 	ldw	r3,0(sp)
    5458:	18000005 	stb	zero,0(r3)
    545c:	dfc01a17 	ldw	ra,104(sp)
    5460:	dec01c04 	addi	sp,sp,112
    5464:	f800283a 	ret

00005468 <sprintf>:
    5468:	deffe304 	addi	sp,sp,-116
    546c:	2007883a 	mov	r3,r4
    5470:	dfc01a15 	stw	ra,104(sp)
    5474:	d9801b15 	stw	r6,108(sp)
    5478:	d9c01c15 	stw	r7,112(sp)
    547c:	00800074 	movhi	r2,1
    5480:	109bce04 	addi	r2,r2,28472
    5484:	11000017 	ldw	r4,0(r2)
    5488:	00a00034 	movhi	r2,32768
    548c:	10bfffc4 	addi	r2,r2,-1
    5490:	280d883a 	mov	r6,r5
    5494:	02008204 	movi	r8,520
    5498:	d8800215 	stw	r2,8(sp)
    549c:	d8800515 	stw	r2,20(sp)
    54a0:	d80b883a 	mov	r5,sp
    54a4:	d9c01b04 	addi	r7,sp,108
    54a8:	00bfffc4 	movi	r2,-1
    54ac:	d8c00015 	stw	r3,0(sp)
    54b0:	d8c00415 	stw	r3,16(sp)
